
IOT_tuya.elf:     file format elf32-littleriscv
IOT_tuya.elf
architecture: riscv:rv32, flags 0x00000112:
EXEC_P, HAS_SYMS, D_PAGED
start address 0x00000000

Program Header:
    LOAD off    0x00001000 vaddr 0x00000000 paddr 0x00000000 align 2**12
         filesz 0x00005c8c memsz 0x00005c8c flags r-x
    LOAD off    0x00007000 vaddr 0x20000000 paddr 0x00005c8c align 2**12
         filesz 0x00000080 memsz 0x00003078 flags rw-
    LOAD off    0x00007800 vaddr 0x20004800 paddr 0x20004800 align 2**12
         filesz 0x00000000 memsz 0x00000800 flags rw-

Sections:
Idx Name           Size      VMA       LMA       File off  Algn  Flags
  0 .init          00000038  00000000  00000000  00001000  2**1  CONTENTS, ALLOC, LOAD, READONLY, CODE
  1 .vector        00000108  00000038  00000038  00001038  2**1  CONTENTS, ALLOC, LOAD, READONLY, CODE
  2 .text          00005b4c  00000140  00000140  00001140  2**3  CONTENTS, ALLOC, LOAD, READONLY, CODE
  3 .fini          00000000  00005c8c  00005c8c  00007080  2**0  CONTENTS, ALLOC, LOAD, CODE
  4 .dalign        00000000  20000000  20000000  00007080  2**0  CONTENTS
  5 .dlalign       00000000  00005c8c  00005c8c  00007080  2**0  CONTENTS
  6 .data          00000080  20000000  00005c8c  00007000  2**2  CONTENTS, ALLOC, LOAD, DATA
  7 .bss           00002ff8  20000080  00005d0c  00007080  2**2  ALLOC
  8 .stack         00000800  20004800  20004800  00007800  2**0  ALLOC
  9 .debug_info    0001ff81  00000000  00000000  00007080  2**0  CONTENTS, READONLY, DEBUGGING
 10 .debug_abbrev  000056d0  00000000  00000000  00027001  2**0  CONTENTS, READONLY, DEBUGGING
 11 .debug_loc     00008295  00000000  00000000  0002c6d1  2**0  CONTENTS, READONLY, DEBUGGING
 12 .debug_aranges 00000eb8  00000000  00000000  00034968  2**3  CONTENTS, READONLY, DEBUGGING
 13 .debug_ranges  00000f90  00000000  00000000  00035820  2**3  CONTENTS, READONLY, DEBUGGING
 14 .debug_line    000138d0  00000000  00000000  000367b0  2**0  CONTENTS, READONLY, DEBUGGING
 15 .debug_str     000046df  00000000  00000000  0004a080  2**0  CONTENTS, READONLY, DEBUGGING
 16 .comment       00000033  00000000  00000000  0004e75f  2**0  CONTENTS, READONLY
 17 .debug_frame   0000324c  00000000  00000000  0004e794  2**2  CONTENTS, READONLY, DEBUGGING
 18 .stab          000000b4  00000000  00000000  000519e0  2**2  CONTENTS, READONLY, DEBUGGING
 19 .stabstr       00000183  00000000  00000000  00051a94  2**0  CONTENTS, READONLY, DEBUGGING
SYMBOL TABLE:
00000000 l    d  .init	00000000 .init
00000038 l    d  .vector	00000000 .vector
00000140 l    d  .text	00000000 .text
00005c8c l    d  .fini	00000000 .fini
20000000 l    d  .dalign	00000000 .dalign
00005c8c l    d  .dlalign	00000000 .dlalign
20000000 l    d  .data	00000000 .data
20000080 l    d  .bss	00000000 .bss
20004800 l    d  .stack	00000000 .stack
00000000 l    d  .debug_info	00000000 .debug_info
00000000 l    d  .debug_abbrev	00000000 .debug_abbrev
00000000 l    d  .debug_loc	00000000 .debug_loc
00000000 l    d  .debug_aranges	00000000 .debug_aranges
00000000 l    d  .debug_ranges	00000000 .debug_ranges
00000000 l    d  .debug_line	00000000 .debug_line
00000000 l    d  .debug_str	00000000 .debug_str
00000000 l    d  .comment	00000000 .comment
00000000 l    d  .debug_frame	00000000 .debug_frame
00000000 l    d  .stab	00000000 .stab
00000000 l    d  .stabstr	00000000 .stabstr
00000000 l    df *ABS*	00000000 ./Libraries/wch_libraries/Startup/startup_ch32v10x.o
00000038 l       .vector	00000000 _vector_base
00000000 l    df *ABS*	00000000 isr.c
00000000 l    df *ABS*	00000000 main.c
00000000 l    df *ABS*	00000000 mcu_api.c
20000080 l     O .bss	00000002 rx_in.6163
00000000 l    df *ABS*	00000000 protocol.c
00000000 l    df *ABS*	00000000 system.c
20000082 l     O .bss	00000001 mcu_reset_state.6085
00000000 l    df *ABS*	00000000 ch32v10x_adc.c
00000000 l    df *ABS*	00000000 ch32v10x_dma.c
00000000 l    df *ABS*	00000000 ch32v10x_exti.c
00000000 l    df *ABS*	00000000 ch32v10x_gpio.c
00000000 l    df *ABS*	00000000 ch32v10x_misc.c
00000000 l    df *ABS*	00000000 ch32v10x_rcc.c
20000000 l     O .data	00000010 APBAHBPrescTable
20000070 l     O .data	00000004 ADCPrescTable
00000000 l    df *ABS*	00000000 ch32v10x_tim.c
00000000 l    df *ABS*	00000000 ch32v10x_usart.c
00000000 l    df *ABS*	00000000 SEEKFREE_IIC.c
00000000 l    df *ABS*	00000000 SEEKFREE_MT9V03X.c
00000000 l    df *ABS*	00000000 SEEKFREE_OLED.c
00005910 l     O .text	0000000d __func__.3170
00000000 l    df *ABS*	00000000 SEEKFREE_PRINTF.c
0000193a l     F .text	0000002e number_conversion_ascii.part.0
00000000 l    df *ABS*	00000000 SEEKFREE_TSL1401.c
00000000 l    df *ABS*	00000000 SEEKFREE_UART_7725.c
00000000 l    df *ABS*	00000000 zf_adc.c
00000000 l    df *ABS*	00000000 zf_gpio.c
00000000 l    df *ABS*	00000000 zf_nvic.c
00000000 l    df *ABS*	00000000 zf_systick.c
00000000 l    df *ABS*	00000000 zf_uart.c
00000000 l    df *ABS*	00000000 board.c
00000000 l    df *ABS*	00000000 clock_config.c
00000000 l    df *ABS*	00000000 DHT11.c
00000000 l    df *ABS*	00000000 iic.c
00000000 l    df *ABS*	00000000 eqdf2.c
00000000 l    df *ABS*	00000000 ledf2.c
00000000 l    df *ABS*	00000000 muldf3.c
00000000 l    df *ABS*	00000000 subdf3.c
00000000 l    df *ABS*	00000000 fixdfsi.c
00000000 l    df *ABS*	00000000 fixunsdfsi.c
00000000 l    df *ABS*	00000000 floatsidf.c
00000000 l    df *ABS*	00000000 divsf3.c
00000000 l    df *ABS*	00000000 mulsf3.c
00000000 l    df *ABS*	00000000 subsf3.c
00000000 l    df *ABS*	00000000 fixunssfsi.c
00000000 l    df *ABS*	00000000 floatunsisf.c
00000000 l    df *ABS*	00000000 extendsfdf2.c
00000000 l    df *ABS*	00000000 truncdfsf2.c
00000000 l    df *ABS*	00000000 libgcc2.c
00000000 l    df *ABS*	00000000 assert.c
00000000 l    df *ABS*	00000000 fprintf.c
00000000 l    df *ABS*	00000000 memcpy.c
00000000 l    df *ABS*	00000000 nano-vfprintf.c
00004378 l     F .text	00000028 __sfputc_r
00000000 l    df *ABS*	00000000 nano-vfprintf_i.c
00000000 l    df *ABS*	00000000 wbuf.c
00000000 l    df *ABS*	00000000 wsetup.c
00000000 l    df *ABS*	00000000 abort.c
00000000 l    df *ABS*	00000000 fflush.c
00000000 l    df *ABS*	00000000 findfp.c
00004db4 l     F .text	0000006a std
00000000 l    df *ABS*	00000000 fwalk.c
00000000 l    df *ABS*	00000000 makebuf.c
00000000 l    df *ABS*	00000000 memchr.c
00000000 l    df *ABS*	00000000 nano-mallocr.c
00000000 l    df *ABS*	00000000 nano-mallocr.c
00000000 l    df *ABS*	00000000 sbrkr.c
00000000 l    df *ABS*	00000000 signal.c
00000000 l    df *ABS*	00000000 signalr.c
00000000 l    df *ABS*	00000000 stdio.c
00000000 l    df *ABS*	00000000 writer.c
00000000 l    df *ABS*	00000000 closer.c
00000000 l    df *ABS*	00000000 fstatr.c
00000000 l    df *ABS*	00000000 isattyr.c
00000000 l    df *ABS*	00000000 lseekr.c
00000000 l    df *ABS*	00000000 mlock.c
00000000 l    df *ABS*	00000000 readr.c
00000000 l    df *ABS*	00000000 close.c
00000000 l    df *ABS*	00000000 fstat.c
00000000 l    df *ABS*	00000000 getpid.c
00000000 l    df *ABS*	00000000 isatty.c
00000000 l    df *ABS*	00000000 kill.c
00000000 l    df *ABS*	00000000 lseek.c
00000000 l    df *ABS*	00000000 read.c
00000000 l    df *ABS*	00000000 sbrk.c
200000a4 l     O .bss	00000004 heap_end.1518
00000000 l    df *ABS*	00000000 _exit.c
00000000 l    df *ABS*	00000000 SEEKFREE_FONT.c
00000000 l    df *ABS*	00000000 libgcc2.c
00000000 l    df *ABS*	00000000 impure.c
20000010 l     O .data	00000060 impure_data
00000000 l    df *ABS*	00000000 common.c
00000000 l    df *ABS*	00000000 reent.c
00000216 g     F .text	0000000a EXTI2_IRQHandler
00005490 g     F .text	00000030 _isatty_r
00001856 g     F .text	000000e4 oled_printf_float
0000554c g     F .text	00000010 _getpid
000054c0 g     F .text	00000034 _lseek_r
00002790 g     F .text	0000006a .hidden __eqdf2
00000a18 g     F .text	00000004 get_download_cmd_total
0000530a g     F .text	00000032 _kill_r
20000870 g       .data	00000000 __global_pointer$
000002cc g     F .text	00000074 TIM1_CC_IRQHandler
000053bc g     F .text	00000036 __sseek
00004e6e g     F .text	0000006c __sinit
00004a34 g     F .text	000000c0 __swbuf_r
0000047c g     F .text	00000002 HardFault_Handler
000007ac g     F .text	00000040 uart_receive_input
00001c72 g     F .text	00000060 ccd_collect
00004e28 g     F .text	00000046 __sfmoreglue
000054f6 g     F .text	00000002 __malloc_unlock
000035dc g     F .text	000002b2 .hidden __divsf3
00000f04 g     F .text	0000000a ADC_StartCalibration
00000646 g     F .text	00000054 my_memcpy
20002604 g     O .bss	00000100 ccd_data
000010fc g     F .text	000000b8 NVIC_Init
20000098 g     O .bss	00000004 sys_clk
200000b4 g     O .bss	0000001f wifi_data_process_buf
00002476 g     F .text	00000032 SHT3X_CalcTemperature
00000478 g     F .text	00000004 NMI_Handler
000016a8 g     F .text	00000124 oled_init
00000220 g     F .text	00000004 EXTI3_IRQHandler
2000008d g     O .bss	00000001 camera_type
000019ac g     F .text	00000024 printf_reverse_order
0000143c g     F .text	0000000c USART_GetFlagStatus
0000545e g     F .text	00000032 _fstat_r
20003074 g     O .bss	00000004 errno
20000080 g       .bss	00000000 _sbss
00000800 g       *ABS*	00000000 __stack_size
000007a4 g     F .text	00000006 mcu_get_dp_download_enum
00003b22 g     F .text	00000388 .hidden __subsf3
200000d3 g     O .bss	00000001 set_wifimode_flag
00002078 g     F .text	00000012 SYS_RecoverIrq
00000afc g     F .text	000002ae data_handle
2000008a g     O .bss	00000001 ov7725_uart_finish_flag
00002550 g     F .text	0000004c IIC_Stop
00000958 g     F .text	00000014 all_data_update
20000144 g     O .bss	000024b8 mt9v03x_image
000042c2 g     F .text	000000b6 memcpy
00000ee2 g     F .text	00000010 ADC_Cmd
00004e1e g     F .text	0000000a _cleanup_r
0000356a g     F .text	00000072 .hidden __floatsidf
000027fa g     F .text	000000b6 .hidden __ltdf2
000001e8 g     F .text	00000004 EXTI0_IRQHandler
00001432 g     F .text	0000000a USART_ReceiveData
000014a2 g     F .text	00000028 simiic_init
00005298 g     F .text	00000062 _raise_r
0000553c g     F .text	00000010 _fstat
0000425a g     F .text	0000003e __assert_func
00000038 g       .init	00000000 _einit
000012f0 g     F .text	0000000e TIM_ClearITPendingBit
00002404 g     F .text	00000072 SHX3X_ReadResults
0000127a g     F .text	0000001e RCC_APB2PeriphClockCmd
0000350e g     F .text	0000005c .hidden __fixunsdfsi
00001520 g     F .text	00000016 mt9v03x_vsync
200000d4 g     O .bss	00000004 rx_buf_in
00000230 g     F .text	00000004 ADC1_2_IRQHandler
0000533c g     F .text	00000002 _getpid_r
00001030 g     F .text	000000c2 GPIO_Init
000011b4 g     F .text	00000012 RCC_ADCCLKConfig
0000204a g     F .text	0000002e nvic_init
20000084 g     O .bss	00000004 NVIC_Priority_Group
00000ef2 g     F .text	0000000a ADC_ResetCalibration
000013d6 g     F .text	0000001c USART_Cmd
00005268 g     F .text	00000030 _sbrk_r
00001d50 g     F .text	000000c6 adc_gpio_init
000054f8 g     F .text	00000034 _read_r
0000148c g     F .text	00000016 USART_ClearITPendingBit
00003fce g     F .text	000000ac .hidden __extendsfdf2
000025e8 g     F .text	0000004c IIC_NAck
00001298 g     F .text	0000001e RCC_APB1PeriphClockCmd
0000555c g     F .text	00000010 _isatty
20000078 g     O .data	00000004 _global_impure_ptr
00000a1e g     F .text	00000012 set_wifi_uart_byte
00001968 g     F .text	00000044 number_conversion_ascii
00000444 g     F .text	00000034 DMA1_Channel4_IRQHandler
00000f16 g     F .text	000000b8 ADC_RegularChannelConfig
00004c04 g     F .text	0000000e abort
0000559c g     F .text	00000024 _sbrk
00000fce g     F .text	00000020 DMA_GetFlagStatus
000007aa g     F .text	00000002 mcu_get_dp_download_value
00000440 g     F .text	00000004 USART3_IRQHandler
00001026 g     F .text	0000000a EXTI_ClearITPendingBit
00000f0e g     F .text	00000008 ADC_GetCalibrationStatus
20003078 g       .bss	00000000 _ebss
0000259c g     F .text	0000004c IIC_Ack
200000d8 g     O .bss	00000017 wifi_uart_rx_buf
00001448 g     F .text	00000044 USART_GetITStatus
00000efc g     F .text	00000008 ADC_GetResetCalibrationStatus
000034a6 g     F .text	00000068 .hidden __fixdfsi
00000a30 g     F .text	00000028 set_wifi_uart_buffer
200000f0 g     O .bss	00000004 rx_buf_out
00000950 g     F .text	00000008 uart_transmit_output
0000209c g     F .text	0000003c systick_delay
200025fc g     O .bss	00000001 rx_buffer
00001cd2 g     F .text	00000052 ov7725_cof_uart_interrupt
00005990 g     O .text	00000010 UARTN
00004298 g     F .text	0000002a fprintf
00000384 g     F .text	00000026 TIM4_IRQHandler
000027fa g     F .text	000000b6 .hidden __ledf2
000010f2 g     F .text	0000000a GPIO_WriteBit
2000008c g     O .bss	00000001 ov7725_uart_receive_num
00005c2c g     O .text	00000020 __sf_fake_stderr
20003078 g       .bss	00000000 end
000012d4 g     F .text	0000001c TIM_GetITStatus
000011c6 g     F .text	000000b4 RCC_GetClocksFreq
00000a7c g     F .text	00000080 wifi_uart_write_frame
000041e4 g     F .text	00000076 .hidden __clzsi2
000043a0 g     F .text	00000044 __sfputs_r
00002186 g     F .text	0000007c uart_init
000050dc g     F .text	0000001a memchr
000012fe g     F .text	000000d8 USART_Init
00001662 g     F .text	00000046 oled_fill
000050f6 g     F .text	000000a4 _free_r
00002000 g     F .text	00000022 gpio_get
0000035e g     F .text	00000026 TIM3_IRQHandler
00002092 g     F .text	0000000a EnableGlobalIRQ
000020d8 g     F .text	000000ae uart_gpio_init
0000269c g     F .text	0000007a IIC_Send_Byte
00000284 g     F .text	00000048 TIM1_TRG_COM_IRQHandler
200000a8 g     O .bss	00000004 RH_Value
00001d3a g     F .text	00000016 ov7725_uart_dma
00000000 g       .init	00000000 _start
0000557c g     F .text	00000010 _lseek
2000008b g     O .bss	00000001 ov7725_uart_receive_flag
0000022c g     F .text	00000004 EXTI15_10_IRQHandler
00005980 g     O .text	00000010 GPION
2000306c g     O .bss	00000006 buffer
00002716 g     F .text	0000007a IIC_Read_Byte
000013f2 g     F .text	00000036 USART_ITConfig
000017cc g     F .text	0000008a oled_p6x8str
000024a8 g     F .text	0000005c SHT_GetValue
0000542e g     F .text	00000030 _close_r
20000000 g       .dalign	00000000 _data_vma
00002504 g     F .text	0000004c IIC_Start
200000f4 g     O .bss	0000004d wifi_uart_tx_buf
00004af4 g     F .text	00000110 __swsetup_r
00000228 g     F .text	00000004 EXTI9_5_IRQHandler
0000093c g     F .text	00000014 wifi_state_get
000006c4 g     F .text	00000042 mcu_dp_bool_update
00004eda g     F .text	000000a0 __sfp
200000ac g     O .bss	00000004 Tem_Value
00002258 g     F .text	00000032 board_init
000028b0 g     F .text	000004b8 .hidden __muldf3
0000533e g     F .text	00000030 __sread
000054f4 g     F .text	00000002 __malloc_lock
20000141 g     O .bss	00000001 wifi_work_state
00004d4e g     F .text	00000066 _fflush_r
00001008 g     F .text	0000001e EXTI_GetITStatus
00005c4c g     O .text	00000020 __sf_fake_stdin
00001536 g     F .text	00000016 mt9v03x_dma
00000140 g     F .text	000000a8 memset
0000047e g     F .text	000001b2 main
20002708 g     O .bss	00000960 ov7725_uart_image_bin
000019d0 g     F .text	000002a2 zf_sprintf
000053f2 g     F .text	00000006 __sclose
20002704 g     O .bss	00000001 tsl1401_finish_flag
0000407a g     F .text	0000016a .hidden __truncdfsf2
0000519a g     F .text	000000ce _malloc_r
000023da g     F .text	0000002a SHT3X_WriteCMD
20000142 g     O .bss	00000001 reset_wifi_flag
00001eb0 g     F .text	0000004e adc_convert
00000224 g     F .text	00000004 EXTI4_IRQHandler
0000388e g     F .text	00000294 .hidden __mulsf3
00000706 g     F .text	0000005a mcu_dp_value_update
0000208a g     F .text	00000008 DisableGlobalIRQ
00000a58 g     F .text	00000024 get_check_sum
000022d8 g     F .text	00000102 SystemInit
00002790 g     F .text	0000006a .hidden __nedf2
00005ab0 g     O .text	00000100 .hidden __clz_tab
00000000 g       .init	00000000 _sinit
00000760 g     F .text	0000003e mcu_dp_enum_update
000053f8 g     F .text	00000036 _write_r
0000154c g     F .text	00000056 oled_wrdat
20000089 g     O .bss	00000001 receive_num
0000069a g     F .text	0000002a byte_to_int
20000090 g     O .bss	00000008 irq_status
00000924 g     F .text	00000018 wifi_protocol_init
00004684 g     F .text	0000010c _printf_common
20000074 g     O .data	00000004 _impure_ptr
0000025e g     F .text	00000026 TIM1_UP_IRQHandler
20002600 g     O .bss	00000003 receive
00001e16 g     F .text	0000009a adc_init
00004c12 g     F .text	0000013c __sflush_r
00001d24 g     F .text	00000016 ov7725_uart_vsync
00000dba g     F .text	00000034 take_byte_rxbuff
000056e8 g     O .text	00000228 oled_6x8
00000340 g     F .text	0000001e TIM2_IRQHandler
20005000 g       .stack	00000000 _eusrstack
00002634 g     F .text	00000068 IIC_Wait_Ack
20002603 g     O .bss	00000001 uart_receive_flag
000014ca g     F .text	00000056 mt9v03x_uart_callback
00000e6c g     F .text	00000026 ADC_DeInit
2000008e g     O .bss	00000001 close_all_irq_flag
20000088 g     O .bss	00000001 mt9v03x_finish_flag
00000234 g     F .text	0000002a TIM1_BRK_IRQHandler
00004fe6 g     F .text	00000058 __swhatbuf_r
00000e92 g     F .text	00000050 ADC_Init
00001428 g     F .text	0000000a USART_SendData
00002022 g     F .text	00000028 SYS_DisableAllIrq
000001ec g     F .text	0000002a EXTI1_IRQHandler
0000228a g     F .text	0000004e _write
20000080 g       .data	00000000 _edata
20000143 g     O .bss	00000001 stop_update_flag
00005c8c g       .dlalign	00000000 _data_lma
00000400 g     F .text	00000040 USART2_IRQHandler
0000536e g     F .text	0000004e __swrite
00004298 g     F .text	0000002a fiprintf
000043e4 g     F .text	000002a0 _vfiprintf_r
00004f7a g     F .text	0000006c _fwalk_reent
00003f00 g     F .text	000000ce .hidden __floatunsisf
0000556c g     F .text	00000010 _kill
000015f8 g     F .text	0000006a oled_set_pos
00005c6c g     O .text	00000020 __sf_fake_stdout
00000a1c g     F .text	00000002 wifi_test_result
00000fee g     F .text	0000001a DMA_ClearFlag
0000558c g     F .text	00000010 _read
00000dee  w      .text	00000000 handle_reset
00003eaa g     F .text	00000056 .hidden __fixunssfsi
000055c0 g     F .text	00000002 _exit
200000b0 g     O .bss	00000004 lx
000003aa g     F .text	00000056 USART1_IRQHandler
0000503e g     F .text	0000009e __smakebuf_r
00000daa g     F .text	00000010 with_data_rxbuff
00004790 g     F .text	000002a4 _printf_i
000007ec g     F .text	00000138 wifi_uart_service
0000096c g     F .text	000000ac dp_download_handle
200000a0 g     O .bss	00000004 __malloc_sbrk_start
000012b6 g     F .text	0000001e RCC_APB2PeriphResetCmd
00002222 g     F .text	00000036 uart_rx_irq
00001fdc g     F .text	00000024 gpio_set
00001efe g     F .text	000000de gpio_init
2000009c g     O .bss	00000004 __malloc_free_list
00002d68 g     F .text	0000073e .hidden __subdf3
000043e4 g     F .text	000002a0 _vfprintf_r
0000079e g     F .text	00000006 mcu_get_dp_download_bool
00002202 g     F .text	00000020 uart_putchar
20003068 g     O .bss	00000003 ov7725_uart_receive
00005644 g     O .text	0000002c download_cmd
000015a2 g     F .text	00000056 oled_wrcmd
0000552c g     F .text	00000010 _close
000052fa g     F .text	00000010 raise
00000630 g     F .text	00000016 my_strlen



Disassembly of section .init:

00000000 <_sinit>:
_start():
F:\数据\嘉立创比赛\程序\IOT_tuya\obj/../Libraries/wch_libraries/Startup/startup_ch32v10x.S:13

	.section	.init,"ax",@progbits
	.global	_start
	.align	1
_start:
	j	handle_reset
   0:	5ef0006f          	j	dee <handle_reset>
   4:	00000013          	nop
   8:	00000013          	nop
   c:	00000013          	nop
  10:	00000013          	nop
  14:	00000013          	nop
  18:	00000013          	nop
  1c:	00000013          	nop
  20:	00000013          	nop
  24:	00000013          	nop
  28:	00000013          	nop
  2c:	00000013          	nop
  30:	00000013          	nop
  34:	00100073          	ebreak

Disassembly of section .vector:

00000038 <_vector_base>:
_vector_base():
F:\数据\嘉立创比赛\程序\IOT_tuya\obj/../Libraries/wch_libraries/Startup/startup_ch32v10x.S:31
	.word 0x00100073
    .section    .vector,"ax",@progbits
    .align  1
_vector_base:
    .option norvc;
        j   _start
  38:	fc9ff06f          	j	0 <_sinit>
  3c:	0000                	unimp
  3e:	0000                	unimp
F:\数据\嘉立创比赛\程序\IOT_tuya\obj/../Libraries/wch_libraries/Startup/startup_ch32v10x.S:33
    .word   0
        j   NMI_Handler                 /* NMI Handler */
  40:	4380006f          	j	478 <NMI_Handler>
F:\数据\嘉立创比赛\程序\IOT_tuya\obj/../Libraries/wch_libraries/Startup/startup_ch32v10x.S:34
        j   HardFault_Handler           /* Hard Fault Handler */
  44:	4380006f          	j	47c <HardFault_Handler>
	...
F:\数据\嘉立创比赛\程序\IOT_tuya\obj/../Libraries/wch_libraries/Startup/startup_ch32v10x.S:43
    .word   0
    .word   0
    .word   0
    .word   0
    .word   0
        j   SysTick_Handler            /* SysTick Handler */
  68:	f99ff06f          	j	0 <_sinit>
  6c:	0000                	unimp
  6e:	0000                	unimp
F:\数据\嘉立创比赛\程序\IOT_tuya\obj/../Libraries/wch_libraries/Startup/startup_ch32v10x.S:45
    .word   0
        j   SW_handler                 /* SW Handler */
  70:	f91ff06f          	j	0 <_sinit>
  74:	0000                	unimp
  76:	0000                	unimp
F:\数据\嘉立创比赛\程序\IOT_tuya\obj/../Libraries/wch_libraries/Startup/startup_ch32v10x.S:48
    .word   0
    /* External Interrupts */
        j   WWDG_IRQHandler            /* Window Watchdog */
  78:	f89ff06f          	j	0 <_sinit>
F:\数据\嘉立创比赛\程序\IOT_tuya\obj/../Libraries/wch_libraries/Startup/startup_ch32v10x.S:49
        j   PVD_IRQHandler             /* PVD through EXTI Line detect */
  7c:	f85ff06f          	j	0 <_sinit>
F:\数据\嘉立创比赛\程序\IOT_tuya\obj/../Libraries/wch_libraries/Startup/startup_ch32v10x.S:50
        j   TAMPER_IRQHandler          /* TAMPER */
  80:	f81ff06f          	j	0 <_sinit>
F:\数据\嘉立创比赛\程序\IOT_tuya\obj/../Libraries/wch_libraries/Startup/startup_ch32v10x.S:51
        j   RTC_IRQHandler             /* RTC */
  84:	f7dff06f          	j	0 <_sinit>
F:\数据\嘉立创比赛\程序\IOT_tuya\obj/../Libraries/wch_libraries/Startup/startup_ch32v10x.S:52
        j   FLASH_IRQHandler           /* Flash */
  88:	f79ff06f          	j	0 <_sinit>
F:\数据\嘉立创比赛\程序\IOT_tuya\obj/../Libraries/wch_libraries/Startup/startup_ch32v10x.S:53
        j   RCC_IRQHandler             /* RCC */
  8c:	f75ff06f          	j	0 <_sinit>
F:\数据\嘉立创比赛\程序\IOT_tuya\obj/../Libraries/wch_libraries/Startup/startup_ch32v10x.S:54
        j   EXTI0_IRQHandler           /* EXTI Line 0 */
  90:	1580006f          	j	1e8 <EXTI0_IRQHandler>
F:\数据\嘉立创比赛\程序\IOT_tuya\obj/../Libraries/wch_libraries/Startup/startup_ch32v10x.S:55
        j   EXTI1_IRQHandler           /* EXTI Line 1 */
  94:	1580006f          	j	1ec <EXTI1_IRQHandler>
F:\数据\嘉立创比赛\程序\IOT_tuya\obj/../Libraries/wch_libraries/Startup/startup_ch32v10x.S:56
        j   EXTI2_IRQHandler           /* EXTI Line 2 */
  98:	17e0006f          	j	216 <EXTI2_IRQHandler>
F:\数据\嘉立创比赛\程序\IOT_tuya\obj/../Libraries/wch_libraries/Startup/startup_ch32v10x.S:57
        j   EXTI3_IRQHandler           /* EXTI Line 3 */
  9c:	1840006f          	j	220 <EXTI3_IRQHandler>
F:\数据\嘉立创比赛\程序\IOT_tuya\obj/../Libraries/wch_libraries/Startup/startup_ch32v10x.S:58
        j   EXTI4_IRQHandler           /* EXTI Line 4 */
  a0:	1840006f          	j	224 <EXTI4_IRQHandler>
F:\数据\嘉立创比赛\程序\IOT_tuya\obj/../Libraries/wch_libraries/Startup/startup_ch32v10x.S:59
        j   DMA1_Channel1_IRQHandler   /* DMA1 Channel 1 */
  a4:	f5dff06f          	j	0 <_sinit>
F:\数据\嘉立创比赛\程序\IOT_tuya\obj/../Libraries/wch_libraries/Startup/startup_ch32v10x.S:60
        j   DMA1_Channel2_IRQHandler   /* DMA1 Channel 2 */
  a8:	f59ff06f          	j	0 <_sinit>
F:\数据\嘉立创比赛\程序\IOT_tuya\obj/../Libraries/wch_libraries/Startup/startup_ch32v10x.S:61
        j   DMA1_Channel3_IRQHandler   /* DMA1 Channel 3 */
  ac:	f55ff06f          	j	0 <_sinit>
F:\数据\嘉立创比赛\程序\IOT_tuya\obj/../Libraries/wch_libraries/Startup/startup_ch32v10x.S:62
        j   DMA1_Channel4_IRQHandler   /* DMA1 Channel 4 */
  b0:	3940006f          	j	444 <DMA1_Channel4_IRQHandler>
F:\数据\嘉立创比赛\程序\IOT_tuya\obj/../Libraries/wch_libraries/Startup/startup_ch32v10x.S:63
        j   DMA1_Channel5_IRQHandler   /* DMA1 Channel 5 */
  b4:	f4dff06f          	j	0 <_sinit>
F:\数据\嘉立创比赛\程序\IOT_tuya\obj/../Libraries/wch_libraries/Startup/startup_ch32v10x.S:64
        j   DMA1_Channel6_IRQHandler   /* DMA1 Channel 6 */
  b8:	f49ff06f          	j	0 <_sinit>
F:\数据\嘉立创比赛\程序\IOT_tuya\obj/../Libraries/wch_libraries/Startup/startup_ch32v10x.S:65
        j   DMA1_Channel7_IRQHandler   /* DMA1 Channel 7 */
  bc:	f45ff06f          	j	0 <_sinit>
F:\数据\嘉立创比赛\程序\IOT_tuya\obj/../Libraries/wch_libraries/Startup/startup_ch32v10x.S:66
        j   ADC1_2_IRQHandler          /* ADC1_2 */
  c0:	1700006f          	j	230 <ADC1_2_IRQHandler>
	...
F:\数据\嘉立创比赛\程序\IOT_tuya\obj/../Libraries/wch_libraries/Startup/startup_ch32v10x.S:71
        .word   0
        .word   0
        .word   0
        .word   0
        j   EXTI9_5_IRQHandler         /* EXTI Line 9..5 */
  d4:	1540006f          	j	228 <EXTI9_5_IRQHandler>
F:\数据\嘉立创比赛\程序\IOT_tuya\obj/../Libraries/wch_libraries/Startup/startup_ch32v10x.S:72
        j   TIM1_BRK_IRQHandler        /* TIM1 Break */
  d8:	15c0006f          	j	234 <TIM1_BRK_IRQHandler>
F:\数据\嘉立创比赛\程序\IOT_tuya\obj/../Libraries/wch_libraries/Startup/startup_ch32v10x.S:73
        j   TIM1_UP_IRQHandler         /* TIM1 Update */
  dc:	1820006f          	j	25e <TIM1_UP_IRQHandler>
F:\数据\嘉立创比赛\程序\IOT_tuya\obj/../Libraries/wch_libraries/Startup/startup_ch32v10x.S:74
        j   TIM1_TRG_COM_IRQHandler    /* TIM1 Trigger and Commutation */
  e0:	1a40006f          	j	284 <TIM1_TRG_COM_IRQHandler>
F:\数据\嘉立创比赛\程序\IOT_tuya\obj/../Libraries/wch_libraries/Startup/startup_ch32v10x.S:75
        j   TIM1_CC_IRQHandler         /* TIM1 Capture Compare */
  e4:	1e80006f          	j	2cc <TIM1_CC_IRQHandler>
F:\数据\嘉立创比赛\程序\IOT_tuya\obj/../Libraries/wch_libraries/Startup/startup_ch32v10x.S:76
        j   TIM2_IRQHandler            /* TIM2 */
  e8:	2580006f          	j	340 <TIM2_IRQHandler>
F:\数据\嘉立创比赛\程序\IOT_tuya\obj/../Libraries/wch_libraries/Startup/startup_ch32v10x.S:77
        j   TIM3_IRQHandler            /* TIM3 */
  ec:	2720006f          	j	35e <TIM3_IRQHandler>
F:\数据\嘉立创比赛\程序\IOT_tuya\obj/../Libraries/wch_libraries/Startup/startup_ch32v10x.S:78
        j   TIM4_IRQHandler            /* TIM4 */
  f0:	2940006f          	j	384 <TIM4_IRQHandler>
F:\数据\嘉立创比赛\程序\IOT_tuya\obj/../Libraries/wch_libraries/Startup/startup_ch32v10x.S:79
        j   I2C1_EV_IRQHandler         /* I2C1 Event */
  f4:	f0dff06f          	j	0 <_sinit>
F:\数据\嘉立创比赛\程序\IOT_tuya\obj/../Libraries/wch_libraries/Startup/startup_ch32v10x.S:80
        j   I2C1_ER_IRQHandler         /* I2C1 Error */
  f8:	f09ff06f          	j	0 <_sinit>
F:\数据\嘉立创比赛\程序\IOT_tuya\obj/../Libraries/wch_libraries/Startup/startup_ch32v10x.S:81
        j   I2C2_EV_IRQHandler         /* I2C2 Event */
  fc:	f05ff06f          	j	0 <_sinit>
F:\数据\嘉立创比赛\程序\IOT_tuya\obj/../Libraries/wch_libraries/Startup/startup_ch32v10x.S:82
        j   I2C2_ER_IRQHandler         /* I2C2 Error */
 100:	f01ff06f          	j	0 <_sinit>
F:\数据\嘉立创比赛\程序\IOT_tuya\obj/../Libraries/wch_libraries/Startup/startup_ch32v10x.S:83
        j   SPI1_IRQHandler            /* SPI1 */
 104:	efdff06f          	j	0 <_sinit>
F:\数据\嘉立创比赛\程序\IOT_tuya\obj/../Libraries/wch_libraries/Startup/startup_ch32v10x.S:84
        j   SPI2_IRQHandler            /* SPI2 */
 108:	ef9ff06f          	j	0 <_sinit>
F:\数据\嘉立创比赛\程序\IOT_tuya\obj/../Libraries/wch_libraries/Startup/startup_ch32v10x.S:85
        j   USART1_IRQHandler          /* USART1 */
 10c:	29e0006f          	j	3aa <USART1_IRQHandler>
F:\数据\嘉立创比赛\程序\IOT_tuya\obj/../Libraries/wch_libraries/Startup/startup_ch32v10x.S:86
        j   USART2_IRQHandler          /* USART2 */
 110:	2f00006f          	j	400 <USART2_IRQHandler>
F:\数据\嘉立创比赛\程序\IOT_tuya\obj/../Libraries/wch_libraries/Startup/startup_ch32v10x.S:87
        j   USART3_IRQHandler          /* USART3 */
 114:	32c0006f          	j	440 <USART3_IRQHandler>
F:\数据\嘉立创比赛\程序\IOT_tuya\obj/../Libraries/wch_libraries/Startup/startup_ch32v10x.S:88
        j   EXTI15_10_IRQHandler       /* EXTI Line 15..10 */
 118:	1140006f          	j	22c <EXTI15_10_IRQHandler>
F:\数据\嘉立创比赛\程序\IOT_tuya\obj/../Libraries/wch_libraries/Startup/startup_ch32v10x.S:89
        j   RTCAlarm_IRQHandler        /* RTC Alarm through EXTI Line */
 11c:	ee5ff06f          	j	0 <_sinit>
F:\数据\嘉立创比赛\程序\IOT_tuya\obj/../Libraries/wch_libraries/Startup/startup_ch32v10x.S:90
        j   USBWakeUp_IRQHandler       /* USB Wakeup from suspend */
 120:	ee1ff06f          	j	0 <_sinit>
F:\数据\嘉立创比赛\程序\IOT_tuya\obj/../Libraries/wch_libraries/Startup/startup_ch32v10x.S:91
        j   USBHD_IRQHandler           /* USBHD */
 124:	eddff06f          	j	0 <_sinit>
	...

Disassembly of section .text:

00000140 <memset>:
memset():
     140:	433d                	li	t1,15
     142:	872a                	mv	a4,a0
     144:	02c37363          	bgeu	t1,a2,16a <memset+0x2a>
     148:	00f77793          	andi	a5,a4,15
     14c:	efbd                	bnez	a5,1ca <memset+0x8a>
     14e:	e5ad                	bnez	a1,1b8 <memset+0x78>
     150:	ff067693          	andi	a3,a2,-16
     154:	8a3d                	andi	a2,a2,15
     156:	96ba                	add	a3,a3,a4
     158:	c30c                	sw	a1,0(a4)
     15a:	c34c                	sw	a1,4(a4)
     15c:	c70c                	sw	a1,8(a4)
     15e:	c74c                	sw	a1,12(a4)
     160:	0741                	addi	a4,a4,16
     162:	fed76be3          	bltu	a4,a3,158 <memset+0x18>
     166:	e211                	bnez	a2,16a <memset+0x2a>
     168:	8082                	ret
     16a:	40c306b3          	sub	a3,t1,a2
     16e:	068a                	slli	a3,a3,0x2
     170:	00000297          	auipc	t0,0x0
     174:	9696                	add	a3,a3,t0
     176:	00a68067          	jr	10(a3)
     17a:	00b70723          	sb	a1,14(a4)
     17e:	00b706a3          	sb	a1,13(a4)
     182:	00b70623          	sb	a1,12(a4)
     186:	00b705a3          	sb	a1,11(a4)
     18a:	00b70523          	sb	a1,10(a4)
     18e:	00b704a3          	sb	a1,9(a4)
     192:	00b70423          	sb	a1,8(a4)
     196:	00b703a3          	sb	a1,7(a4)
     19a:	00b70323          	sb	a1,6(a4)
     19e:	00b702a3          	sb	a1,5(a4)
     1a2:	00b70223          	sb	a1,4(a4)
     1a6:	00b701a3          	sb	a1,3(a4)
     1aa:	00b70123          	sb	a1,2(a4)
     1ae:	00b700a3          	sb	a1,1(a4)
     1b2:	00b70023          	sb	a1,0(a4)
     1b6:	8082                	ret
     1b8:	0ff5f593          	andi	a1,a1,255
     1bc:	00859693          	slli	a3,a1,0x8
     1c0:	8dd5                	or	a1,a1,a3
     1c2:	01059693          	slli	a3,a1,0x10
     1c6:	8dd5                	or	a1,a1,a3
     1c8:	b761                	j	150 <memset+0x10>
     1ca:	00279693          	slli	a3,a5,0x2
     1ce:	00000297          	auipc	t0,0x0
     1d2:	9696                	add	a3,a3,t0
     1d4:	8286                	mv	t0,ra
     1d6:	fa8680e7          	jalr	-88(a3)
     1da:	8096                	mv	ra,t0
     1dc:	17c1                	addi	a5,a5,-16
     1de:	8f1d                	sub	a4,a4,a5
     1e0:	963e                	add	a2,a2,a5
     1e2:	f8c374e3          	bgeu	t1,a2,16a <memset+0x2a>
     1e6:	b7a5                	j	14e <memset+0xe>

000001e8 <EXTI0_IRQHandler>:
EXTI0_IRQHandler():
     1e8:	30200073          	mret

000001ec <EXTI1_IRQHandler>:
EXTI1_IRQHandler():
F:\数据\嘉立创比赛\程序\IOT_tuya\obj/../User/isr.c:69

}

void EXTI1_IRQHandler(void)
{
    if(SET == EXTI_GetITStatus(EXTI_Line1))
     1ec:	4509                	li	a0,2
     1ee:	61b000ef          	jal	ra,1008 <EXTI_GetITStatus>
     1f2:	4785                	li	a5,1
     1f4:	00f51a63          	bne	a0,a5,208 <EXTI1_IRQHandler+0x1c>
F:\数据\嘉立创比赛\程序\IOT_tuya\obj/../User/isr.c:71
    {
        if(camera_type == 0)
     1f8:	81d1c783          	lbu	a5,-2019(gp) # 2000008d <camera_type>
     1fc:	eb81                	bnez	a5,20c <EXTI1_IRQHandler+0x20>
F:\数据\嘉立创比赛\程序\IOT_tuya\obj/../User/isr.c:72
            ov7725_uart_vsync();
     1fe:	327010ef          	jal	ra,1d24 <ov7725_uart_vsync>
F:\数据\嘉立创比赛\程序\IOT_tuya\obj/../User/isr.c:75
        else if(camera_type == 1)
            mt9v03x_vsync();
        EXTI_ClearITPendingBit(EXTI_Line1);
     202:	4509                	li	a0,2
     204:	623000ef          	jal	ra,1026 <EXTI_ClearITPendingBit>
F:\数据\嘉立创比赛\程序\IOT_tuya\obj/../User/isr.c:78
    }

}
     208:	30200073          	mret
F:\数据\嘉立创比赛\程序\IOT_tuya\obj/../User/isr.c:73
        else if(camera_type == 1)
     20c:	fea79be3          	bne	a5,a0,202 <EXTI1_IRQHandler+0x16>
F:\数据\嘉立创比赛\程序\IOT_tuya\obj/../User/isr.c:74
            mt9v03x_vsync();
     210:	310010ef          	jal	ra,1520 <mt9v03x_vsync>
     214:	b7fd                	j	202 <EXTI1_IRQHandler+0x16>

00000216 <EXTI2_IRQHandler>:
EXTI2_IRQHandler():
F:\数据\嘉立创比赛\程序\IOT_tuya\obj/../User/isr.c:82

void EXTI2_IRQHandler(void)
{
    EXTI_ClearITPendingBit(EXTI_Line2);
     216:	4511                	li	a0,4
     218:	60f000ef          	jal	ra,1026 <EXTI_ClearITPendingBit>
F:\数据\嘉立创比赛\程序\IOT_tuya\obj/../User/isr.c:83
}
     21c:	30200073          	mret

00000220 <EXTI3_IRQHandler>:
EXTI3_IRQHandler():
     220:	30200073          	mret

00000224 <EXTI4_IRQHandler>:
EXTI4_IRQHandler():
     224:	30200073          	mret

00000228 <EXTI9_5_IRQHandler>:
EXTI9_5_IRQHandler():
     228:	30200073          	mret

0000022c <EXTI15_10_IRQHandler>:
EXTI15_10_IRQHandler():
     22c:	30200073          	mret

00000230 <ADC1_2_IRQHandler>:
ADC1_2_IRQHandler():
     230:	30200073          	mret

00000234 <TIM1_BRK_IRQHandler>:
TIM1_BRK_IRQHandler():
F:\数据\嘉立创比赛\程序\IOT_tuya\obj/../User/isr.c:115


}

void TIM1_BRK_IRQHandler(void)
{
     234:	1141                	addi	sp,sp,-16
     236:	c622                	sw	s0,12(sp)
F:\数据\嘉立创比赛\程序\IOT_tuya\obj/../User/isr.c:116
    if(TIM_GetITStatus(TIM1, TIM_IT_Break) != RESET)
     238:	40013437          	lui	s0,0x40013
     23c:	08000593          	li	a1,128
     240:	c0040513          	addi	a0,s0,-1024 # 40012c00 <_eusrstack+0x2000dc00>
     244:	090010ef          	jal	ra,12d4 <TIM_GetITStatus>
     248:	c519                	beqz	a0,256 <TIM1_BRK_IRQHandler+0x22>
F:\数据\嘉立创比赛\程序\IOT_tuya\obj/../User/isr.c:118
    {
        TIM_ClearITPendingBit(TIM1, TIM_IT_Break);
     24a:	08000593          	li	a1,128
     24e:	c0040513          	addi	a0,s0,-1024
     252:	09e010ef          	jal	ra,12f0 <TIM_ClearITPendingBit>
F:\数据\嘉立创比赛\程序\IOT_tuya\obj/../User/isr.c:121

    }
}
     256:	4432                	lw	s0,12(sp)
     258:	0141                	addi	sp,sp,16
     25a:	30200073          	mret

0000025e <TIM1_UP_IRQHandler>:
TIM1_UP_IRQHandler():
F:\数据\嘉立创比赛\程序\IOT_tuya\obj/../User/isr.c:124

void TIM1_UP_IRQHandler(void)
{
     25e:	1141                	addi	sp,sp,-16
     260:	c622                	sw	s0,12(sp)
F:\数据\嘉立创比赛\程序\IOT_tuya\obj/../User/isr.c:125
    if(TIM_GetITStatus(TIM1, TIM_IT_Update) != RESET)
     262:	40013437          	lui	s0,0x40013
     266:	4585                	li	a1,1
     268:	c0040513          	addi	a0,s0,-1024 # 40012c00 <_eusrstack+0x2000dc00>
     26c:	068010ef          	jal	ra,12d4 <TIM_GetITStatus>
     270:	c511                	beqz	a0,27c <TIM1_UP_IRQHandler+0x1e>
F:\数据\嘉立创比赛\程序\IOT_tuya\obj/../User/isr.c:127
    {
        TIM_ClearITPendingBit(TIM1, TIM_IT_Update);
     272:	4585                	li	a1,1
     274:	c0040513          	addi	a0,s0,-1024
     278:	078010ef          	jal	ra,12f0 <TIM_ClearITPendingBit>
F:\数据\嘉立创比赛\程序\IOT_tuya\obj/../User/isr.c:130

    }
}
     27c:	4432                	lw	s0,12(sp)
     27e:	0141                	addi	sp,sp,16
     280:	30200073          	mret

00000284 <TIM1_TRG_COM_IRQHandler>:
TIM1_TRG_COM_IRQHandler():
F:\数据\嘉立创比赛\程序\IOT_tuya\obj/../User/isr.c:133

void TIM1_TRG_COM_IRQHandler(void)
{
     284:	1141                	addi	sp,sp,-16
     286:	c622                	sw	s0,12(sp)
F:\数据\嘉立创比赛\程序\IOT_tuya\obj/../User/isr.c:134
    if(TIM_GetITStatus(TIM1, TIM_IT_Trigger) != RESET)
     288:	40013437          	lui	s0,0x40013
     28c:	04000593          	li	a1,64
     290:	c0040513          	addi	a0,s0,-1024 # 40012c00 <_eusrstack+0x2000dc00>
     294:	040010ef          	jal	ra,12d4 <TIM_GetITStatus>
     298:	c519                	beqz	a0,2a6 <TIM1_TRG_COM_IRQHandler+0x22>
F:\数据\嘉立创比赛\程序\IOT_tuya\obj/../User/isr.c:136
    {
        TIM_ClearITPendingBit(TIM1, TIM_IT_Trigger);
     29a:	04000593          	li	a1,64
     29e:	c0040513          	addi	a0,s0,-1024
     2a2:	04e010ef          	jal	ra,12f0 <TIM_ClearITPendingBit>
F:\数据\嘉立创比赛\程序\IOT_tuya\obj/../User/isr.c:139

    }
    if(TIM_GetITStatus(TIM1, TIM_IT_COM) != RESET)
     2a6:	40013437          	lui	s0,0x40013
     2aa:	02000593          	li	a1,32
     2ae:	c0040513          	addi	a0,s0,-1024 # 40012c00 <_eusrstack+0x2000dc00>
     2b2:	022010ef          	jal	ra,12d4 <TIM_GetITStatus>
     2b6:	c519                	beqz	a0,2c4 <TIM1_TRG_COM_IRQHandler+0x40>
F:\数据\嘉立创比赛\程序\IOT_tuya\obj/../User/isr.c:141
    {
        TIM_ClearITPendingBit(TIM1, TIM_IT_COM);
     2b8:	02000593          	li	a1,32
     2bc:	c0040513          	addi	a0,s0,-1024
     2c0:	030010ef          	jal	ra,12f0 <TIM_ClearITPendingBit>
F:\数据\嘉立创比赛\程序\IOT_tuya\obj/../User/isr.c:144

    }
}
     2c4:	4432                	lw	s0,12(sp)
     2c6:	0141                	addi	sp,sp,16
     2c8:	30200073          	mret

000002cc <TIM1_CC_IRQHandler>:
TIM1_CC_IRQHandler():
F:\数据\嘉立创比赛\程序\IOT_tuya\obj/../User/isr.c:147

void TIM1_CC_IRQHandler(void)
{
     2cc:	1141                	addi	sp,sp,-16
     2ce:	c622                	sw	s0,12(sp)
F:\数据\嘉立创比赛\程序\IOT_tuya\obj/../User/isr.c:148
    if(TIM_GetITStatus(TIM1, TIM_IT_CC1) != RESET)
     2d0:	40013437          	lui	s0,0x40013
     2d4:	4589                	li	a1,2
     2d6:	c0040513          	addi	a0,s0,-1024 # 40012c00 <_eusrstack+0x2000dc00>
     2da:	7fb000ef          	jal	ra,12d4 <TIM_GetITStatus>
     2de:	c511                	beqz	a0,2ea <TIM1_CC_IRQHandler+0x1e>
F:\数据\嘉立创比赛\程序\IOT_tuya\obj/../User/isr.c:150
    {
        TIM_ClearITPendingBit(TIM1, TIM_IT_CC1);
     2e0:	4589                	li	a1,2
     2e2:	c0040513          	addi	a0,s0,-1024
     2e6:	00a010ef          	jal	ra,12f0 <TIM_ClearITPendingBit>
F:\数据\嘉立创比赛\程序\IOT_tuya\obj/../User/isr.c:153

    }
    if(TIM_GetITStatus(TIM1, TIM_IT_CC2) != RESET)
     2ea:	40013437          	lui	s0,0x40013
     2ee:	4591                	li	a1,4
     2f0:	c0040513          	addi	a0,s0,-1024 # 40012c00 <_eusrstack+0x2000dc00>
     2f4:	7e1000ef          	jal	ra,12d4 <TIM_GetITStatus>
     2f8:	c511                	beqz	a0,304 <TIM1_CC_IRQHandler+0x38>
F:\数据\嘉立创比赛\程序\IOT_tuya\obj/../User/isr.c:155
    {
        TIM_ClearITPendingBit(TIM1, TIM_IT_CC2);
     2fa:	4591                	li	a1,4
     2fc:	c0040513          	addi	a0,s0,-1024
     300:	7f1000ef          	jal	ra,12f0 <TIM_ClearITPendingBit>
F:\数据\嘉立创比赛\程序\IOT_tuya\obj/../User/isr.c:158

    }
    if(TIM_GetITStatus(TIM1, TIM_IT_CC3) != RESET)
     304:	40013437          	lui	s0,0x40013
     308:	45a1                	li	a1,8
     30a:	c0040513          	addi	a0,s0,-1024 # 40012c00 <_eusrstack+0x2000dc00>
     30e:	7c7000ef          	jal	ra,12d4 <TIM_GetITStatus>
     312:	c511                	beqz	a0,31e <TIM1_CC_IRQHandler+0x52>
F:\数据\嘉立创比赛\程序\IOT_tuya\obj/../User/isr.c:160
    {
        TIM_ClearITPendingBit(TIM1, TIM_IT_CC3);
     314:	45a1                	li	a1,8
     316:	c0040513          	addi	a0,s0,-1024
     31a:	7d7000ef          	jal	ra,12f0 <TIM_ClearITPendingBit>
F:\数据\嘉立创比赛\程序\IOT_tuya\obj/../User/isr.c:163

    }
    if(TIM_GetITStatus(TIM1, TIM_IT_CC4) != RESET)
     31e:	40013437          	lui	s0,0x40013
     322:	45c1                	li	a1,16
     324:	c0040513          	addi	a0,s0,-1024 # 40012c00 <_eusrstack+0x2000dc00>
     328:	7ad000ef          	jal	ra,12d4 <TIM_GetITStatus>
     32c:	c511                	beqz	a0,338 <TIM1_CC_IRQHandler+0x6c>
F:\数据\嘉立创比赛\程序\IOT_tuya\obj/../User/isr.c:165
    {
        TIM_ClearITPendingBit(TIM1, TIM_IT_CC4);
     32e:	45c1                	li	a1,16
     330:	c0040513          	addi	a0,s0,-1024
     334:	7bd000ef          	jal	ra,12f0 <TIM_ClearITPendingBit>
F:\数据\嘉立创比赛\程序\IOT_tuya\obj/../User/isr.c:168

    }
}
     338:	4432                	lw	s0,12(sp)
     33a:	0141                	addi	sp,sp,16
     33c:	30200073          	mret

00000340 <TIM2_IRQHandler>:
TIM2_IRQHandler():
F:\数据\嘉立创比赛\程序\IOT_tuya\obj/../User/isr.c:173

void TIM2_IRQHandler(void)
{

    if(TIM_GetITStatus(TIM2, TIM_IT_Update) != RESET)
     340:	4585                	li	a1,1
     342:	40000537          	lui	a0,0x40000
     346:	78f000ef          	jal	ra,12d4 <TIM_GetITStatus>
     34a:	c901                	beqz	a0,35a <TIM2_IRQHandler+0x1a>
F:\数据\嘉立创比赛\程序\IOT_tuya\obj/../User/isr.c:175
    {
        TIM_ClearITPendingBit(TIM2, TIM_IT_Update );
     34c:	4585                	li	a1,1
     34e:	40000537          	lui	a0,0x40000
     352:	79f000ef          	jal	ra,12f0 <TIM_ClearITPendingBit>
F:\数据\嘉立创比赛\程序\IOT_tuya\obj/../User/isr.c:176
        ccd_collect();//CCD数据采集
     356:	11d010ef          	jal	ra,1c72 <ccd_collect>
F:\数据\嘉立创比赛\程序\IOT_tuya\obj/../User/isr.c:178
    }
}
     35a:	30200073          	mret

0000035e <TIM3_IRQHandler>:
TIM3_IRQHandler():
F:\数据\嘉立创比赛\程序\IOT_tuya\obj/../User/isr.c:181

void TIM3_IRQHandler(void)
{
     35e:	1141                	addi	sp,sp,-16
     360:	c622                	sw	s0,12(sp)
F:\数据\嘉立创比赛\程序\IOT_tuya\obj/../User/isr.c:182
    if(TIM_GetITStatus(TIM3, TIM_IT_Update) != RESET)
     362:	40000437          	lui	s0,0x40000
     366:	4585                	li	a1,1
     368:	40040513          	addi	a0,s0,1024 # 40000400 <_eusrstack+0x1fffb400>
     36c:	769000ef          	jal	ra,12d4 <TIM_GetITStatus>
     370:	c511                	beqz	a0,37c <TIM3_IRQHandler+0x1e>
F:\数据\嘉立创比赛\程序\IOT_tuya\obj/../User/isr.c:184
    {
        TIM_ClearITPendingBit(TIM3, TIM_IT_Update );
     372:	4585                	li	a1,1
     374:	40040513          	addi	a0,s0,1024
     378:	779000ef          	jal	ra,12f0 <TIM_ClearITPendingBit>
F:\数据\嘉立创比赛\程序\IOT_tuya\obj/../User/isr.c:187

    }
}
     37c:	4432                	lw	s0,12(sp)
     37e:	0141                	addi	sp,sp,16
     380:	30200073          	mret

00000384 <TIM4_IRQHandler>:
TIM4_IRQHandler():
F:\数据\嘉立创比赛\程序\IOT_tuya\obj/../User/isr.c:190

void TIM4_IRQHandler(void)
{
     384:	1141                	addi	sp,sp,-16
     386:	c622                	sw	s0,12(sp)
F:\数据\嘉立创比赛\程序\IOT_tuya\obj/../User/isr.c:191
    if(TIM_GetITStatus(TIM4, TIM_IT_Update) != RESET)
     388:	40001437          	lui	s0,0x40001
     38c:	4585                	li	a1,1
     38e:	80040513          	addi	a0,s0,-2048 # 40000800 <_eusrstack+0x1fffb800>
     392:	743000ef          	jal	ra,12d4 <TIM_GetITStatus>
     396:	c511                	beqz	a0,3a2 <TIM4_IRQHandler+0x1e>
F:\数据\嘉立创比赛\程序\IOT_tuya\obj/../User/isr.c:193
    {
        TIM_ClearITPendingBit(TIM4, TIM_IT_Update );
     398:	4585                	li	a1,1
     39a:	80040513          	addi	a0,s0,-2048
     39e:	753000ef          	jal	ra,12f0 <TIM_ClearITPendingBit>
F:\数据\嘉立创比赛\程序\IOT_tuya\obj/../User/isr.c:196

    }
}
     3a2:	4432                	lw	s0,12(sp)
     3a4:	0141                	addi	sp,sp,16
     3a6:	30200073          	mret

000003aa <USART1_IRQHandler>:
USART1_IRQHandler():
F:\数据\嘉立创比赛\程序\IOT_tuya\obj/../User/isr.c:199

void USART1_IRQHandler(void)
{
     3aa:	1141                	addi	sp,sp,-16
     3ac:	c622                	sw	s0,12(sp)
F:\数据\嘉立创比赛\程序\IOT_tuya\obj/../User/isr.c:202

    uint8 dat;
    if(USART_GetITStatus(USART1, USART_IT_RXNE) != RESET)
     3ae:	40014437          	lui	s0,0x40014
     3b2:	52500593          	li	a1,1317
     3b6:	80040513          	addi	a0,s0,-2048 # 40013800 <_eusrstack+0x2000e800>
     3ba:	08e010ef          	jal	ra,1448 <USART_GetITStatus>
     3be:	cd0d                	beqz	a0,3f8 <USART1_IRQHandler+0x4e>
F:\数据\嘉立创比赛\程序\IOT_tuya\obj/../User/isr.c:204
    {
        USART_ClearITPendingBit(USART1, USART_IT_RXNE); //清除串口接收中断标志位
     3c0:	52500593          	li	a1,1317
     3c4:	80040513          	addi	a0,s0,-2048
     3c8:	0c4010ef          	jal	ra,148c <USART_ClearITPendingBit>
F:\数据\嘉立创比赛\程序\IOT_tuya\obj/../User/isr.c:205
        dat = USART_ReceiveData(USART1);                //获取串口数据
     3cc:	80040513          	addi	a0,s0,-2048
     3d0:	062010ef          	jal	ra,1432 <USART_ReceiveData>
     3d4:	0ff57413          	andi	s0,a0,255
F:\数据\嘉立创比赛\程序\IOT_tuya\obj/../User/isr.c:207

        if(dat=='1')
     3d8:	03100793          	li	a5,49
F:\数据\嘉立创比赛\程序\IOT_tuya\obj/../User/isr.c:209
        {
            gpio_set(B15, 0);
     3dc:	4581                	li	a1,0
F:\数据\嘉立创比赛\程序\IOT_tuya\obj/../User/isr.c:207
        if(dat=='1')
     3de:	00f40763          	beq	s0,a5,3ec <USART1_IRQHandler+0x42>
F:\数据\嘉立创比赛\程序\IOT_tuya\obj/../User/isr.c:211
        }
        if(dat=='2')
     3e2:	03200793          	li	a5,50
     3e6:	00f41763          	bne	s0,a5,3f4 <USART1_IRQHandler+0x4a>
F:\数据\嘉立创比赛\程序\IOT_tuya\obj/../User/isr.c:213
        {
            gpio_set(B15, 1);
     3ea:	4585                	li	a1,1
     3ec:	02f00513          	li	a0,47
     3f0:	3ed010ef          	jal	ra,1fdc <gpio_set>
F:\数据\嘉立创比赛\程序\IOT_tuya\obj/../User/isr.c:216
        }
        //printf(" Input:%x\r\n",dat);
        uart_receive_input(dat);
     3f4:	8522                	mv	a0,s0
     3f6:	2e5d                	jal	7ac <uart_receive_input>
F:\数据\嘉立创比赛\程序\IOT_tuya\obj/../User/isr.c:221
    }



}
     3f8:	4432                	lw	s0,12(sp)
     3fa:	0141                	addi	sp,sp,16
     3fc:	30200073          	mret

00000400 <USART2_IRQHandler>:
USART2_IRQHandler():
F:\数据\嘉立创比赛\程序\IOT_tuya\obj/../User/isr.c:224

void USART2_IRQHandler(void)
{
     400:	1141                	addi	sp,sp,-16
     402:	c622                	sw	s0,12(sp)
F:\数据\嘉立创比赛\程序\IOT_tuya\obj/../User/isr.c:225
    if(USART_GetITStatus(USART2, USART_IT_RXNE) != RESET)
     404:	40004437          	lui	s0,0x40004
     408:	52500593          	li	a1,1317
     40c:	40040513          	addi	a0,s0,1024 # 40004400 <_eusrstack+0x1ffff400>
     410:	038010ef          	jal	ra,1448 <USART_GetITStatus>
     414:	cd01                	beqz	a0,42c <USART2_IRQHandler+0x2c>
F:\数据\嘉立创比赛\程序\IOT_tuya\obj/../User/isr.c:227
    {
        USART_ClearITPendingBit(USART2, USART_IT_RXNE);
     416:	52500593          	li	a1,1317
     41a:	40040513          	addi	a0,s0,1024
     41e:	06e010ef          	jal	ra,148c <USART_ClearITPendingBit>
F:\数据\嘉立创比赛\程序\IOT_tuya\obj/../User/isr.c:228
        if(camera_type == 0)
     422:	81d1c783          	lbu	a5,-2019(gp) # 2000008d <camera_type>
     426:	e799                	bnez	a5,434 <USART2_IRQHandler+0x34>
F:\数据\嘉立创比赛\程序\IOT_tuya\obj/../User/isr.c:229
            ov7725_cof_uart_interrupt();
     428:	0ab010ef          	jal	ra,1cd2 <ov7725_cof_uart_interrupt>
F:\数据\嘉立创比赛\程序\IOT_tuya\obj/../User/isr.c:233
        else if(camera_type == 1)
            mt9v03x_uart_callback();
    }
}
     42c:	4432                	lw	s0,12(sp)
     42e:	0141                	addi	sp,sp,16
     430:	30200073          	mret
F:\数据\嘉立创比赛\程序\IOT_tuya\obj/../User/isr.c:230
        else if(camera_type == 1)
     434:	4705                	li	a4,1
     436:	fee79be3          	bne	a5,a4,42c <USART2_IRQHandler+0x2c>
F:\数据\嘉立创比赛\程序\IOT_tuya\obj/../User/isr.c:231
            mt9v03x_uart_callback();
     43a:	090010ef          	jal	ra,14ca <mt9v03x_uart_callback>
F:\数据\嘉立创比赛\程序\IOT_tuya\obj/../User/isr.c:233
}
     43e:	b7fd                	j	42c <USART2_IRQHandler+0x2c>

00000440 <USART3_IRQHandler>:
USART3_IRQHandler():
     440:	30200073          	mret

00000444 <DMA1_Channel4_IRQHandler>:
DMA1_Channel4_IRQHandler():
F:\数据\嘉立创比赛\程序\IOT_tuya\obj/../User/isr.c:241
{

}

void DMA1_Channel4_IRQHandler(void)
{
     444:	1141                	addi	sp,sp,-16
F:\数据\嘉立创比赛\程序\IOT_tuya\obj/../User/isr.c:242
    if(SET == DMA_GetFlagStatus(DMA1_FLAG_TC4))
     446:	6509                	lui	a0,0x2
F:\数据\嘉立创比赛\程序\IOT_tuya\obj/../User/isr.c:241
{
     448:	c622                	sw	s0,12(sp)
F:\数据\嘉立创比赛\程序\IOT_tuya\obj/../User/isr.c:242
    if(SET == DMA_GetFlagStatus(DMA1_FLAG_TC4))
     44a:	385000ef          	jal	ra,fce <DMA_GetFlagStatus>
     44e:	4785                	li	a5,1
     450:	00f51b63          	bne	a0,a5,466 <DMA1_Channel4_IRQHandler+0x22>
     454:	842a                	mv	s0,a0
F:\数据\嘉立创比赛\程序\IOT_tuya\obj/../User/isr.c:244
    {
        DMA_ClearFlag(DMA1_FLAG_TC4);
     456:	6509                	lui	a0,0x2
     458:	397000ef          	jal	ra,fee <DMA_ClearFlag>
F:\数据\嘉立创比赛\程序\IOT_tuya\obj/../User/isr.c:245
        if(camera_type == 0)
     45c:	81d1c783          	lbu	a5,-2019(gp) # 2000008d <camera_type>
     460:	e799                	bnez	a5,46e <DMA1_Channel4_IRQHandler+0x2a>
F:\数据\嘉立创比赛\程序\IOT_tuya\obj/../User/isr.c:246
            ov7725_uart_dma();
     462:	0d9010ef          	jal	ra,1d3a <ov7725_uart_dma>
F:\数据\嘉立创比赛\程序\IOT_tuya\obj/../User/isr.c:250
        else if(camera_type == 1)
            mt9v03x_dma();
    }
}
     466:	4432                	lw	s0,12(sp)
     468:	0141                	addi	sp,sp,16
     46a:	30200073          	mret
F:\数据\嘉立创比赛\程序\IOT_tuya\obj/../User/isr.c:247
        else if(camera_type == 1)
     46e:	fe879ce3          	bne	a5,s0,466 <DMA1_Channel4_IRQHandler+0x22>
F:\数据\嘉立创比赛\程序\IOT_tuya\obj/../User/isr.c:248
            mt9v03x_dma();
     472:	0c4010ef          	jal	ra,1536 <mt9v03x_dma>
F:\数据\嘉立创比赛\程序\IOT_tuya\obj/../User/isr.c:250
}
     476:	bfc5                	j	466 <DMA1_Channel4_IRQHandler+0x22>

00000478 <NMI_Handler>:
NMI_Handler():
F:\数据\嘉立创比赛\程序\IOT_tuya\obj/../User/isr.c:261
* Return         : None
*******************************************************************************/
void NMI_Handler(void)
{

}
     478:	30200073          	mret

0000047c <HardFault_Handler>:
HardFault_Handler():
F:\数据\嘉立创比赛\程序\IOT_tuya\obj/../User/isr.c:274 (discriminator 1)
void HardFault_Handler(void)
{

  while (1)
  {
  }
     47c:	a001                	j	47c <HardFault_Handler>

0000047e <main>:
main():
F:\数据\嘉立创比赛\程序\IOT_tuya\obj/../User/main.c:31
extern uint8_t value;
float Tem_Value;
float RH_Value;
float lx;
int main(void)
{
     47e:	7139                	addi	sp,sp,-64
     480:	de06                	sw	ra,60(sp)
     482:	dc22                	sw	s0,56(sp)
     484:	da26                	sw	s1,52(sp)
     486:	d84a                	sw	s2,48(sp)
     488:	d64e                	sw	s3,44(sp)
     48a:	d452                	sw	s4,40(sp)
     48c:	d256                	sw	s5,36(sp)
     48e:	d05a                	sw	s6,32(sp)
     490:	ce5e                	sw	s7,28(sp)
     492:	cc62                	sw	s8,24(sp)
     494:	ca66                	sw	s9,20(sp)
     496:	c86a                	sw	s10,16(sp)
     498:	c66e                	sw	s11,12(sp)
F:\数据\嘉立创比赛\程序\IOT_tuya\obj/../User/main.c:32
    DisableGlobalIRQ();
     49a:	3f1010ef          	jal	ra,208a <DisableGlobalIRQ>
F:\数据\嘉立创比赛\程序\IOT_tuya\obj/../User/main.c:33
    board_init();           //务必保留，本函数用于初始化MPU 时钟 调试串口
     49e:	5bb010ef          	jal	ra,2258 <board_init>
F:\数据\嘉立创比赛\程序\IOT_tuya\obj/../User/main.c:36

    //此处编写用户代码(例如：外设初始化代码等)
    gpio_init(A8, GPO, 1, GPIO_PIN_CONFIG);
     4a2:	31000693          	li	a3,784
     4a6:	4605                	li	a2,1
     4a8:	4585                	li	a1,1
     4aa:	4521                	li	a0,8
     4ac:	253010ef          	jal	ra,1efe <gpio_init>
F:\数据\嘉立创比赛\程序\IOT_tuya\obj/../User/main.c:37
    gpio_init(C9, GPO, 1, GPIO_PIN_CONFIG);
     4b0:	31000693          	li	a3,784
     4b4:	4605                	li	a2,1
     4b6:	4585                	li	a1,1
     4b8:	04900513          	li	a0,73
     4bc:	243010ef          	jal	ra,1efe <gpio_init>
F:\数据\嘉立创比赛\程序\IOT_tuya\obj/../User/main.c:38
    oled_init();
     4c0:	1e8010ef          	jal	ra,16a8 <oled_init>
F:\数据\嘉立创比赛\程序\IOT_tuya\obj/../User/main.c:39
    simiic_init(); //模拟IICIO口初始化
     4c4:	7df000ef          	jal	ra,14a2 <simiic_init>
F:\数据\嘉立创比赛\程序\IOT_tuya\obj/../User/main.c:40
    adc_init(ADC_IN4_A4);
     4c8:	4511                	li	a0,4
     4ca:	14d010ef          	jal	ra,1e16 <adc_init>
F:\数据\嘉立创比赛\程序\IOT_tuya\obj/../User/main.c:41
    wifi_protocol_init();
     4ce:	2999                	jal	924 <wifi_protocol_init>
F:\数据\嘉立创比赛\程序\IOT_tuya\obj/../User/main.c:43
    //总中断最后开启
    uart_rx_irq(DEBUG_UART, ENABLE);
     4d0:	4585                	li	a1,1
     4d2:	4501                	li	a0,0
     4d4:	54f010ef          	jal	ra,2222 <uart_rx_irq>
F:\数据\嘉立创比赛\程序\IOT_tuya\obj/../User/main.c:44
    nvic_init(USART1_IRQn, 2, 1, ENABLE);
     4d8:	4685                	li	a3,1
     4da:	4605                	li	a2,1
     4dc:	4589                	li	a1,2
     4de:	03500513          	li	a0,53
     4e2:	369010ef          	jal	ra,204a <nvic_init>
F:\数据\嘉立创比赛\程序\IOT_tuya\obj/../User/main.c:46

    EnableGlobalIRQ();
     4e6:	3ad010ef          	jal	ra,2092 <EnableGlobalIRQ>
F:\数据\嘉立创比赛\程序\IOT_tuya\obj/../User/main.c:48

    SHT3X_WriteCMD(0x88,0x2236);  //发送周期性读数据命令
     4ea:	6589                	lui	a1,0x2
     4ec:	23658593          	addi	a1,a1,566 # 2236 <uart_rx_irq+0x14>
     4f0:	08800513          	li	a0,136
     4f4:	6e7010ef          	jal	ra,23da <SHT3X_WriteCMD>
F:\数据\嘉立创比赛\程序\IOT_tuya\obj/../User/main.c:54


    while(1)
    {
        SHT_GetValue(0x88);   //获取温湿度值
        mcu_dp_value_update(1,Tem_Value*10);
     4f8:	000057b7          	lui	a5,0x5
     4fc:	5c47ad83          	lw	s11,1476(a5) # 55c4 <_exit+0x4>
F:\数据\嘉立创比赛\程序\IOT_tuya\obj/../User/main.c:56
        mcu_dp_value_update(2,RH_Value);
        lx=(adc_convert(ADC_IN4_A4,ADC_8BIT)*3.3/256.0);
     500:	000057b7          	lui	a5,0x5
     504:	5c87ab03          	lw	s6,1480(a5) # 55c8 <_exit+0x8>
     508:	5cc7ab83          	lw	s7,1484(a5)
     50c:	000057b7          	lui	a5,0x5
     510:	5d07aa03          	lw	s4,1488(a5) # 55d0 <_exit+0x10>
     514:	5d47aa83          	lw	s5,1492(a5)
F:\数据\嘉立创比赛\程序\IOT_tuya\obj/../User/main.c:57
        mcu_dp_value_update(16,(20-(lx*10.0)));
     518:	000057b7          	lui	a5,0x5
     51c:	5d87a903          	lw	s2,1496(a5) # 55d8 <_exit+0x18>
     520:	5dc7a983          	lw	s3,1500(a5)
     524:	000057b7          	lui	a5,0x5
     528:	5e07a403          	lw	s0,1504(a5) # 55e0 <_exit+0x20>
     52c:	5e47a483          	lw	s1,1508(a5)
F:\数据\嘉立创比赛\程序\IOT_tuya\obj/../User/main.c:53 (discriminator 1)
        SHT_GetValue(0x88);   //获取温湿度值
     530:	08800513          	li	a0,136
     534:	775010ef          	jal	ra,24a8 <SHT_GetValue>
F:\数据\嘉立创比赛\程序\IOT_tuya\obj/../User/main.c:54 (discriminator 1)
        mcu_dp_value_update(1,Tem_Value*10);
     538:	83c1a503          	lw	a0,-1988(gp) # 200000ac <Tem_Value>
     53c:	85ee                	mv	a1,s11
     53e:	350030ef          	jal	ra,388e <__mulsf3>
     542:	169030ef          	jal	ra,3eaa <__fixunssfsi>
     546:	85aa                	mv	a1,a0
     548:	4505                	li	a0,1
     54a:	2a75                	jal	706 <mcu_dp_value_update>
F:\数据\嘉立创比赛\程序\IOT_tuya\obj/../User/main.c:55 (discriminator 1)
        mcu_dp_value_update(2,RH_Value);
     54c:	8381a503          	lw	a0,-1992(gp) # 200000a8 <RH_Value>
     550:	15b030ef          	jal	ra,3eaa <__fixunssfsi>
     554:	85aa                	mv	a1,a0
     556:	4509                	li	a0,2
     558:	227d                	jal	706 <mcu_dp_value_update>
F:\数据\嘉立创比赛\程序\IOT_tuya\obj/../User/main.c:56 (discriminator 1)
        lx=(adc_convert(ADC_IN4_A4,ADC_8BIT)*3.3/256.0);
     55a:	4591                	li	a1,4
     55c:	4511                	li	a0,4
     55e:	153010ef          	jal	ra,1eb0 <adc_convert>
     562:	008030ef          	jal	ra,356a <__floatsidf>
     566:	865a                	mv	a2,s6
     568:	86de                	mv	a3,s7
     56a:	346020ef          	jal	ra,28b0 <__muldf3>
     56e:	8652                	mv	a2,s4
     570:	86d6                	mv	a3,s5
     572:	33e020ef          	jal	ra,28b0 <__muldf3>
     576:	305030ef          	jal	ra,407a <__truncdfsf2>
     57a:	84a1a023          	sw	a0,-1984(gp) # 200000b0 <lx>
F:\数据\嘉立创比赛\程序\IOT_tuya\obj/../User/main.c:57 (discriminator 1)
        mcu_dp_value_update(16,(20-(lx*10.0)));
     57e:	251030ef          	jal	ra,3fce <__extendsfdf2>
     582:	864a                	mv	a2,s2
     584:	86ce                	mv	a3,s3
     586:	32a020ef          	jal	ra,28b0 <__muldf3>
     58a:	86ae                	mv	a3,a1
     58c:	862a                	mv	a2,a0
     58e:	85a6                	mv	a1,s1
     590:	8522                	mv	a0,s0
     592:	7d6020ef          	jal	ra,2d68 <__subdf3>
     596:	779020ef          	jal	ra,350e <__fixunsdfsi>
     59a:	85aa                	mv	a1,a0
     59c:	4541                	li	a0,16
     59e:	22a5                	jal	706 <mcu_dp_value_update>
F:\数据\嘉立创比赛\程序\IOT_tuya\obj/../User/main.c:58 (discriminator 1)
        oled_p6x8str(25,0,"Temp=");
     5a0:	00005637          	lui	a2,0x5
     5a4:	5e860613          	addi	a2,a2,1512 # 55e8 <_exit+0x28>
     5a8:	4581                	li	a1,0
     5aa:	4565                	li	a0,25
     5ac:	220010ef          	jal	ra,17cc <oled_p6x8str>
F:\数据\嘉立创比赛\程序\IOT_tuya\obj/../User/main.c:59 (discriminator 1)
        oled_printf_float(55,0,Tem_Value,5,2);
     5b0:	83c1a503          	lw	a0,-1988(gp) # 200000ac <Tem_Value>
     5b4:	21b030ef          	jal	ra,3fce <__extendsfdf2>
     5b8:	86ae                	mv	a3,a1
     5ba:	4789                	li	a5,2
     5bc:	4715                	li	a4,5
     5be:	862a                	mv	a2,a0
     5c0:	4581                	li	a1,0
     5c2:	03700513          	li	a0,55
     5c6:	290010ef          	jal	ra,1856 <oled_printf_float>
F:\数据\嘉立创比赛\程序\IOT_tuya\obj/../User/main.c:60 (discriminator 1)
        oled_p6x8str(25,3,"humi=");
     5ca:	00005637          	lui	a2,0x5
     5ce:	5f060613          	addi	a2,a2,1520 # 55f0 <_exit+0x30>
     5d2:	458d                	li	a1,3
     5d4:	4565                	li	a0,25
     5d6:	1f6010ef          	jal	ra,17cc <oled_p6x8str>
F:\数据\嘉立创比赛\程序\IOT_tuya\obj/../User/main.c:61 (discriminator 1)
        oled_printf_float(55,3,RH_Value,5,2);
     5da:	8381a503          	lw	a0,-1992(gp) # 200000a8 <RH_Value>
     5de:	1f1030ef          	jal	ra,3fce <__extendsfdf2>
     5e2:	86ae                	mv	a3,a1
     5e4:	4789                	li	a5,2
     5e6:	4715                	li	a4,5
     5e8:	862a                	mv	a2,a0
     5ea:	458d                	li	a1,3
     5ec:	03700513          	li	a0,55
     5f0:	266010ef          	jal	ra,1856 <oled_printf_float>
F:\数据\嘉立创比赛\程序\IOT_tuya\obj/../User/main.c:62 (discriminator 1)
        oled_p6x8str(25,6,"lux=");
     5f4:	00005637          	lui	a2,0x5
     5f8:	5f860613          	addi	a2,a2,1528 # 55f8 <_exit+0x38>
     5fc:	4599                	li	a1,6
     5fe:	4565                	li	a0,25
     600:	1cc010ef          	jal	ra,17cc <oled_p6x8str>
F:\数据\嘉立创比赛\程序\IOT_tuya\obj/../User/main.c:63 (discriminator 1)
        oled_printf_float(55,6,lx,5,2);
     604:	8401a503          	lw	a0,-1984(gp) # 200000b0 <lx>
     608:	1c7030ef          	jal	ra,3fce <__extendsfdf2>
     60c:	862a                	mv	a2,a0
     60e:	86ae                	mv	a3,a1
     610:	4789                	li	a5,2
     612:	4715                	li	a4,5
     614:	4599                	li	a1,6
     616:	03700513          	li	a0,55
     61a:	23c010ef          	jal	ra,1856 <oled_printf_float>
F:\数据\嘉立创比赛\程序\IOT_tuya\obj/../User/main.c:64 (discriminator 1)
        systick_delay_ms(500);
     61e:	0007a537          	lui	a0,0x7a
     622:	12050513          	addi	a0,a0,288 # 7a120 <_data_lma+0x74494>
     626:	277010ef          	jal	ra,209c <systick_delay>
F:\数据\嘉立创比赛\程序\IOT_tuya\obj/../User/main.c:65 (discriminator 1)
        wifi_uart_service();
     62a:	22c9                	jal	7ec <wifi_uart_service>
F:\数据\嘉立创比赛\程序\IOT_tuya\obj/../User/main.c:67 (discriminator 1)

        wifi_state_get();
     62c:	2e01                	jal	93c <wifi_state_get>
     62e:	b709                	j	530 <main+0xb2>

00000630 <my_strlen>:
my_strlen():
F:\数据\嘉立创比赛\程序\IOT_tuya\obj/../TYIOT/mcu_api.c:65
 */
unsigned long my_strlen(unsigned char *str)  
{
    unsigned long len = 0;
    if(str == NULL) { 
        return 0;
     630:	4781                	li	a5,0
F:\数据\嘉立创比赛\程序\IOT_tuya\obj/../TYIOT/mcu_api.c:64
    if(str == NULL) { 
     632:	c511                	beqz	a0,63e <my_strlen+0xe>
F:\数据\嘉立创比赛\程序\IOT_tuya\obj/../TYIOT/mcu_api.c:68 (discriminator 1)
    }
    
    for(len = 0; *str ++ != '\0'; )
     634:	00f50733          	add	a4,a0,a5
     638:	00074703          	lbu	a4,0(a4)
     63c:	e319                	bnez	a4,642 <my_strlen+0x12>
F:\数据\嘉立创比赛\程序\IOT_tuya\obj/../TYIOT/mcu_api.c:74
    {
        len ++;
    }
    
    return len;
}
     63e:	853e                	mv	a0,a5
     640:	8082                	ret
F:\数据\嘉立创比赛\程序\IOT_tuya\obj/../TYIOT/mcu_api.c:70
        len ++;
     642:	0785                	addi	a5,a5,1
     644:	bfc5                	j	634 <my_strlen+0x4>

00000646 <my_memcpy>:
my_memcpy():
F:\数据\嘉立创比赛\程序\IOT_tuya\obj/../TYIOT/mcu_api.c:111
{
    unsigned char *pdest = (unsigned char *)dest;
    const unsigned char *psrc  = (const unsigned char *)src;
    unsigned short i;
    
    if(dest == NULL || src == NULL) {
     646:	c929                	beqz	a0,698 <my_memcpy+0x52>
F:\数据\嘉立创比赛\程序\IOT_tuya\obj/../TYIOT/mcu_api.c:111 (discriminator 1)
     648:	c5b9                	beqz	a1,696 <my_memcpy+0x50>
F:\数据\嘉立创比赛\程序\IOT_tuya\obj/../TYIOT/mcu_api.c:115
        return NULL;
    }
    
    if((pdest <= psrc) || (pdest > psrc + count)) {
     64a:	02a5fb63          	bgeu	a1,a0,680 <my_memcpy+0x3a>
F:\数据\嘉立创比赛\程序\IOT_tuya\obj/../TYIOT/mcu_api.c:115 (discriminator 1)
     64e:	00c58733          	add	a4,a1,a2
     652:	87b2                	mv	a5,a2
     654:	02a76663          	bltu	a4,a0,680 <my_memcpy+0x3a>
F:\数据\嘉立创比赛\程序\IOT_tuya\obj/../TYIOT/mcu_api.c:120
        for(i = 0; i < count; i ++) {
            pdest[i] = psrc[i];
        }
    }else {
        for(i = count; i > 0; i --) {
     658:	577d                	li	a4,-1
     65a:	17fd                	addi	a5,a5,-1
     65c:	02e79463          	bne	a5,a4,684 <my_memcpy+0x3e>
     660:	8082                	ret
F:\数据\嘉立创比赛\程序\IOT_tuya\obj/../TYIOT/mcu_api.c:117 (discriminator 3)
            pdest[i] = psrc[i];
     662:	00f58733          	add	a4,a1,a5
     666:	00074683          	lbu	a3,0(a4)
     66a:	00f50733          	add	a4,a0,a5
     66e:	0785                	addi	a5,a5,1
     670:	00d70023          	sb	a3,0(a4)
F:\数据\嘉立创比赛\程序\IOT_tuya\obj/../TYIOT/mcu_api.c:116 (discriminator 1)
        for(i = 0; i < count; i ++) {
     674:	01079713          	slli	a4,a5,0x10
     678:	8341                	srli	a4,a4,0x10
     67a:	fec764e3          	bltu	a4,a2,662 <my_memcpy+0x1c>
     67e:	8082                	ret
     680:	4781                	li	a5,0
     682:	bfcd                	j	674 <my_memcpy+0x2e>
F:\数据\嘉立创比赛\程序\IOT_tuya\obj/../TYIOT/mcu_api.c:121
            pdest[i - 1] = psrc[i - 1];
     684:	00f586b3          	add	a3,a1,a5
     688:	0006c603          	lbu	a2,0(a3)
     68c:	00f506b3          	add	a3,a0,a5
     690:	00c68023          	sb	a2,0(a3)
     694:	b7d9                	j	65a <my_memcpy+0x14>
F:\数据\嘉立创比赛\程序\IOT_tuya\obj/../TYIOT/mcu_api.c:112
        return NULL;
     696:	4501                	li	a0,0
F:\数据\嘉立创比赛\程序\IOT_tuya\obj/../TYIOT/mcu_api.c:126
        }
    }
    
    return dest;
}
     698:	8082                	ret

0000069a <byte_to_int>:
byte_to_int():
F:\数据\嘉立创比赛\程序\IOT_tuya\obj/../TYIOT/mcu_api.c:191
{
    unsigned long nubmer = 0;

    nubmer = (unsigned long)value[0];
    nubmer <<= 8;
    nubmer |= (unsigned long)value[1];
     69a:	00154783          	lbu	a5,1(a0)
     69e:	00054703          	lbu	a4,0(a0)
     6a2:	07a2                	slli	a5,a5,0x8
     6a4:	8fd9                	or	a5,a5,a4
     6a6:	00879713          	slli	a4,a5,0x8
     6aa:	83a1                	srli	a5,a5,0x8
     6ac:	8fd9                	or	a5,a5,a4
     6ae:	07c2                	slli	a5,a5,0x10
F:\数据\嘉立创比赛\程序\IOT_tuya\obj/../TYIOT/mcu_api.c:193
    nubmer <<= 8;
    nubmer |= (unsigned long)value[2];
     6b0:	00254703          	lbu	a4,2(a0)
     6b4:	83c1                	srli	a5,a5,0x10
F:\数据\嘉立创比赛\程序\IOT_tuya\obj/../TYIOT/mcu_api.c:195
    nubmer <<= 8;
    nubmer |= (unsigned long)value[3];
     6b6:	00354503          	lbu	a0,3(a0)
F:\数据\嘉立创比赛\程序\IOT_tuya\obj/../TYIOT/mcu_api.c:192
    nubmer <<= 8;
     6ba:	07a2                	slli	a5,a5,0x8
F:\数据\嘉立创比赛\程序\IOT_tuya\obj/../TYIOT/mcu_api.c:193
    nubmer |= (unsigned long)value[2];
     6bc:	8fd9                	or	a5,a5,a4
F:\数据\嘉立创比赛\程序\IOT_tuya\obj/../TYIOT/mcu_api.c:194
    nubmer <<= 8;
     6be:	07a2                	slli	a5,a5,0x8
F:\数据\嘉立创比赛\程序\IOT_tuya\obj/../TYIOT/mcu_api.c:198
    
    return nubmer;
}
     6c0:	8d5d                	or	a0,a0,a5
     6c2:	8082                	ret

000006c4 <mcu_dp_bool_update>:
mcu_dp_bool_update():
F:\数据\嘉立创比赛\程序\IOT_tuya\obj/../TYIOT/mcu_api.c:239
 */
unsigned char mcu_dp_bool_update(unsigned char dpid,unsigned char value)
{
    unsigned short send_len = 0;
    
    if(stop_update_flag == ENABLE)
     6c4:	8d31c783          	lbu	a5,-1837(gp) # 20000143 <stop_update_flag>
     6c8:	4705                	li	a4,1
     6ca:	02f70c63          	beq	a4,a5,702 <mcu_dp_bool_update+0x3e>
F:\数据\嘉立创比赛\程序\IOT_tuya\obj/../TYIOT/mcu_api.c:236
{
     6ce:	1141                	addi	sp,sp,-16
     6d0:	c422                	sw	s0,8(sp)
     6d2:	842e                	mv	s0,a1
     6d4:	85aa                	mv	a1,a0
F:\数据\嘉立创比赛\程序\IOT_tuya\obj/../TYIOT/mcu_api.c:242
        return SUCCESS;
    
    send_len = set_wifi_uart_byte(send_len,dpid);
     6d6:	4501                	li	a0,0
F:\数据\嘉立创比赛\程序\IOT_tuya\obj/../TYIOT/mcu_api.c:236
{
     6d8:	c606                	sw	ra,12(sp)
F:\数据\嘉立创比赛\程序\IOT_tuya\obj/../TYIOT/mcu_api.c:242
    send_len = set_wifi_uart_byte(send_len,dpid);
     6da:	2691                	jal	a1e <set_wifi_uart_byte>
F:\数据\嘉立创比赛\程序\IOT_tuya\obj/../TYIOT/mcu_api.c:243
    send_len = set_wifi_uart_byte(send_len,DP_TYPE_BOOL);
     6dc:	4585                	li	a1,1
     6de:	2681                	jal	a1e <set_wifi_uart_byte>
F:\数据\嘉立创比赛\程序\IOT_tuya\obj/../TYIOT/mcu_api.c:245
    //
    send_len = set_wifi_uart_byte(send_len,0);
     6e0:	4581                	li	a1,0
     6e2:	2e35                	jal	a1e <set_wifi_uart_byte>
F:\数据\嘉立创比赛\程序\IOT_tuya\obj/../TYIOT/mcu_api.c:246
    send_len = set_wifi_uart_byte(send_len,1);
     6e4:	4585                	li	a1,1
     6e6:	2e25                	jal	a1e <set_wifi_uart_byte>
F:\数据\嘉立创比赛\程序\IOT_tuya\obj/../TYIOT/mcu_api.c:249
    //
    if(value == FALSE) {
        send_len = set_wifi_uart_byte(send_len,FALSE);
     6e8:	4581                	li	a1,0
F:\数据\嘉立创比赛\程序\IOT_tuya\obj/../TYIOT/mcu_api.c:248
    if(value == FALSE) {
     6ea:	c011                	beqz	s0,6ee <mcu_dp_bool_update+0x2a>
F:\数据\嘉立创比赛\程序\IOT_tuya\obj/../TYIOT/mcu_api.c:251
    }else {
        send_len = set_wifi_uart_byte(send_len,1);
     6ec:	4585                	li	a1,1
     6ee:	2e05                	jal	a1e <set_wifi_uart_byte>
F:\数据\嘉立创比赛\程序\IOT_tuya\obj/../TYIOT/mcu_api.c:254
    }
    
    wifi_uart_write_frame(STATE_UPLOAD_CMD, MCU_TX_VER, send_len);
     6f0:	862a                	mv	a2,a0
     6f2:	458d                	li	a1,3
     6f4:	451d                	li	a0,7
     6f6:	2659                	jal	a7c <wifi_uart_write_frame>
F:\数据\嘉立创比赛\程序\IOT_tuya\obj/../TYIOT/mcu_api.c:257
    
    return SUCCESS;
}
     6f8:	40b2                	lw	ra,12(sp)
     6fa:	4422                	lw	s0,8(sp)
     6fc:	4505                	li	a0,1
     6fe:	0141                	addi	sp,sp,16
     700:	8082                	ret
     702:	4505                	li	a0,1
     704:	8082                	ret

00000706 <mcu_dp_value_update>:
mcu_dp_value_update():
F:\数据\嘉立创比赛\程序\IOT_tuya\obj/../TYIOT/mcu_api.c:270
 */
unsigned char mcu_dp_value_update(unsigned char dpid,unsigned long value)
{
    unsigned short send_len = 0;
    
    if(stop_update_flag == ENABLE)
     706:	8d31c783          	lbu	a5,-1837(gp) # 20000143 <stop_update_flag>
     70a:	4705                	li	a4,1
     70c:	04f70863          	beq	a4,a5,75c <mcu_dp_value_update+0x56>
F:\数据\嘉立创比赛\程序\IOT_tuya\obj/../TYIOT/mcu_api.c:267
{
     710:	1141                	addi	sp,sp,-16
     712:	c422                	sw	s0,8(sp)
     714:	842e                	mv	s0,a1
     716:	85aa                	mv	a1,a0
F:\数据\嘉立创比赛\程序\IOT_tuya\obj/../TYIOT/mcu_api.c:273
        return SUCCESS;
    
    send_len = set_wifi_uart_byte(send_len,dpid);
     718:	4501                	li	a0,0
F:\数据\嘉立创比赛\程序\IOT_tuya\obj/../TYIOT/mcu_api.c:267
{
     71a:	c606                	sw	ra,12(sp)
F:\数据\嘉立创比赛\程序\IOT_tuya\obj/../TYIOT/mcu_api.c:273
    send_len = set_wifi_uart_byte(send_len,dpid);
     71c:	2609                	jal	a1e <set_wifi_uart_byte>
F:\数据\嘉立创比赛\程序\IOT_tuya\obj/../TYIOT/mcu_api.c:274
    send_len = set_wifi_uart_byte(send_len,DP_TYPE_VALUE);
     71e:	4589                	li	a1,2
     720:	2cfd                	jal	a1e <set_wifi_uart_byte>
F:\数据\嘉立创比赛\程序\IOT_tuya\obj/../TYIOT/mcu_api.c:276
    //
    send_len = set_wifi_uart_byte(send_len,0);
     722:	4581                	li	a1,0
     724:	2ced                	jal	a1e <set_wifi_uart_byte>
F:\数据\嘉立创比赛\程序\IOT_tuya\obj/../TYIOT/mcu_api.c:277
    send_len = set_wifi_uart_byte(send_len,4);
     726:	4591                	li	a1,4
     728:	2cdd                	jal	a1e <set_wifi_uart_byte>
F:\数据\嘉立创比赛\程序\IOT_tuya\obj/../TYIOT/mcu_api.c:279
    //
    send_len = set_wifi_uart_byte(send_len,value >> 24);
     72a:	01845593          	srli	a1,s0,0x18
     72e:	2cc5                	jal	a1e <set_wifi_uart_byte>
F:\数据\嘉立创比赛\程序\IOT_tuya\obj/../TYIOT/mcu_api.c:280
    send_len = set_wifi_uart_byte(send_len,value >> 16);
     730:	01045593          	srli	a1,s0,0x10
     734:	0ff5f593          	andi	a1,a1,255
     738:	24dd                	jal	a1e <set_wifi_uart_byte>
F:\数据\嘉立创比赛\程序\IOT_tuya\obj/../TYIOT/mcu_api.c:281
    send_len = set_wifi_uart_byte(send_len,value >> 8);
     73a:	00845593          	srli	a1,s0,0x8
     73e:	0ff5f593          	andi	a1,a1,255
     742:	2cf1                	jal	a1e <set_wifi_uart_byte>
F:\数据\嘉立创比赛\程序\IOT_tuya\obj/../TYIOT/mcu_api.c:282
    send_len = set_wifi_uart_byte(send_len,value & 0xff);
     744:	0ff47593          	andi	a1,s0,255
     748:	2cd9                	jal	a1e <set_wifi_uart_byte>
F:\数据\嘉立创比赛\程序\IOT_tuya\obj/../TYIOT/mcu_api.c:284
    
    wifi_uart_write_frame(STATE_UPLOAD_CMD,MCU_TX_VER,send_len);
     74a:	862a                	mv	a2,a0
     74c:	458d                	li	a1,3
     74e:	451d                	li	a0,7
     750:	2635                	jal	a7c <wifi_uart_write_frame>
F:\数据\嘉立创比赛\程序\IOT_tuya\obj/../TYIOT/mcu_api.c:287
    
    return SUCCESS;
}
     752:	40b2                	lw	ra,12(sp)
     754:	4422                	lw	s0,8(sp)
     756:	4505                	li	a0,1
     758:	0141                	addi	sp,sp,16
     75a:	8082                	ret
     75c:	4505                	li	a0,1
     75e:	8082                	ret

00000760 <mcu_dp_enum_update>:
mcu_dp_enum_update():
F:\数据\嘉立创比赛\程序\IOT_tuya\obj/../TYIOT/mcu_api.c:328
 */
unsigned char mcu_dp_enum_update(unsigned char dpid,unsigned char value)
{
    unsigned short send_len = 0;
    
    if(stop_update_flag == ENABLE)
     760:	8d31c783          	lbu	a5,-1837(gp) # 20000143 <stop_update_flag>
     764:	4705                	li	a4,1
     766:	02f70a63          	beq	a4,a5,79a <mcu_dp_enum_update+0x3a>
F:\数据\嘉立创比赛\程序\IOT_tuya\obj/../TYIOT/mcu_api.c:325
{
     76a:	1141                	addi	sp,sp,-16
     76c:	c422                	sw	s0,8(sp)
     76e:	842e                	mv	s0,a1
     770:	85aa                	mv	a1,a0
F:\数据\嘉立创比赛\程序\IOT_tuya\obj/../TYIOT/mcu_api.c:331
        return SUCCESS;
    
    send_len = set_wifi_uart_byte(send_len,dpid);
     772:	4501                	li	a0,0
F:\数据\嘉立创比赛\程序\IOT_tuya\obj/../TYIOT/mcu_api.c:325
{
     774:	c606                	sw	ra,12(sp)
F:\数据\嘉立创比赛\程序\IOT_tuya\obj/../TYIOT/mcu_api.c:331
    send_len = set_wifi_uart_byte(send_len,dpid);
     776:	2465                	jal	a1e <set_wifi_uart_byte>
F:\数据\嘉立创比赛\程序\IOT_tuya\obj/../TYIOT/mcu_api.c:332
    send_len = set_wifi_uart_byte(send_len,DP_TYPE_ENUM);
     778:	4591                	li	a1,4
     77a:	2455                	jal	a1e <set_wifi_uart_byte>
F:\数据\嘉立创比赛\程序\IOT_tuya\obj/../TYIOT/mcu_api.c:334
    //
    send_len = set_wifi_uart_byte(send_len,0);
     77c:	4581                	li	a1,0
     77e:	2445                	jal	a1e <set_wifi_uart_byte>
F:\数据\嘉立创比赛\程序\IOT_tuya\obj/../TYIOT/mcu_api.c:335
    send_len = set_wifi_uart_byte(send_len,1);
     780:	4585                	li	a1,1
     782:	2c71                	jal	a1e <set_wifi_uart_byte>
F:\数据\嘉立创比赛\程序\IOT_tuya\obj/../TYIOT/mcu_api.c:337
    //
    send_len = set_wifi_uart_byte(send_len,value);
     784:	85a2                	mv	a1,s0
     786:	2c61                	jal	a1e <set_wifi_uart_byte>
F:\数据\嘉立创比赛\程序\IOT_tuya\obj/../TYIOT/mcu_api.c:339
    
    wifi_uart_write_frame(STATE_UPLOAD_CMD,MCU_TX_VER,send_len);
     788:	862a                	mv	a2,a0
     78a:	458d                	li	a1,3
     78c:	451d                	li	a0,7
     78e:	24fd                	jal	a7c <wifi_uart_write_frame>
F:\数据\嘉立创比赛\程序\IOT_tuya\obj/../TYIOT/mcu_api.c:342
    
    return SUCCESS;
}
     790:	40b2                	lw	ra,12(sp)
     792:	4422                	lw	s0,8(sp)
     794:	4505                	li	a0,1
     796:	0141                	addi	sp,sp,16
     798:	8082                	ret
     79a:	4505                	li	a0,1
     79c:	8082                	ret

0000079e <mcu_get_dp_download_bool>:
mcu_get_dp_download_bool():
F:\数据\嘉立创比赛\程序\IOT_tuya\obj/../TYIOT/mcu_api.c:578
 * @note   Null
 */
unsigned char mcu_get_dp_download_bool(const unsigned char value[],unsigned short len)
{
    return(value[0]);
}
     79e:	00054503          	lbu	a0,0(a0)
     7a2:	8082                	ret

000007a4 <mcu_get_dp_download_enum>:
mcu_get_dp_download_enum():
     7a4:	00054503          	lbu	a0,0(a0)
     7a8:	8082                	ret

000007aa <mcu_get_dp_download_value>:
mcu_get_dp_download_value():
F:\数据\嘉立创比赛\程序\IOT_tuya\obj/../TYIOT/mcu_api.c:601
 * @return 当前dp值
 * @note   Null
 */
unsigned long mcu_get_dp_download_value(const unsigned char value[],unsigned short len)
{
    return(byte_to_int(value));
     7aa:	bdc5                	j	69a <byte_to_int>

000007ac <uart_receive_input>:
uart_receive_input():
F:\数据\嘉立创比赛\程序\IOT_tuya\obj/../TYIOT/mcu_api.c:614
 */
void uart_receive_input(unsigned char value)
{
    //#error "请在串口接收中断中调用uart_receive_input(value),串口数据由MCU_SDK处理,用户请勿再另行处理,完成后删除该行"
    
    if(1 == rx_buf_out - rx_buf_in) {
     7ac:	8801a703          	lw	a4,-1920(gp) # 200000f0 <rx_buf_out>
     7b0:	8641a683          	lw	a3,-1948(gp) # 200000d4 <rx_buf_in>
     7b4:	fff70613          	addi	a2,a4,-1
     7b8:	02d60963          	beq	a2,a3,7ea <uart_receive_input+0x3e>
F:\数据\嘉立创比赛\程序\IOT_tuya\obj/../TYIOT/mcu_api.c:616
        //串口接收缓存已满
    }else if((rx_buf_in > rx_buf_out) && ((rx_buf_in - rx_buf_out) >= sizeof(wifi_uart_rx_buf))) {
     7bc:	00d77763          	bgeu	a4,a3,7ca <uart_receive_input+0x1e>
F:\数据\嘉立创比赛\程序\IOT_tuya\obj/../TYIOT/mcu_api.c:616 (discriminator 1)
     7c0:	40e68733          	sub	a4,a3,a4
     7c4:	4659                	li	a2,22
     7c6:	02e66263          	bltu	a2,a4,7ea <uart_receive_input+0x3e>
F:\数据\嘉立创比赛\程序\IOT_tuya\obj/../TYIOT/mcu_api.c:620
        //串口接收缓存已满
    }else {
        //串口接收缓存未满
        if(rx_buf_in >= (unsigned char *)(wifi_uart_rx_buf + sizeof(wifi_uart_rx_buf))) {
     7ca:	87f18713          	addi	a4,gp,-1921 # 200000ef <wifi_uart_rx_buf+0x17>
     7ce:	00e6e663          	bltu	a3,a4,7da <uart_receive_input+0x2e>
F:\数据\嘉立创比赛\程序\IOT_tuya\obj/../TYIOT/mcu_api.c:621
            rx_buf_in = (unsigned char *)(wifi_uart_rx_buf);
     7d2:	86818713          	addi	a4,gp,-1944 # 200000d8 <wifi_uart_rx_buf>
     7d6:	86e1a223          	sw	a4,-1948(gp) # 200000d4 <rx_buf_in>
F:\数据\嘉立创比赛\程序\IOT_tuya\obj/../TYIOT/mcu_api.c:624
        }
        
        *rx_buf_in ++ = value;
     7da:	8641a703          	lw	a4,-1948(gp) # 200000d4 <rx_buf_in>
     7de:	00170693          	addi	a3,a4,1
     7e2:	86d1a223          	sw	a3,-1948(gp) # 200000d4 <rx_buf_in>
     7e6:	00a70023          	sb	a0,0(a4)
F:\数据\嘉立创比赛\程序\IOT_tuya\obj/../TYIOT/mcu_api.c:626
    }
}
     7ea:	8082                	ret

000007ec <wifi_uart_service>:
wifi_uart_service():
F:\数据\嘉立创比赛\程序\IOT_tuya\obj/../TYIOT/mcu_api.c:652
 * @param  Null
 * @return Null
 * @note   在MCU主函数while循环中调用该函数
 */
void wifi_uart_service(void)
{
     7ec:	7179                	addi	sp,sp,-48
     7ee:	ce4e                	sw	s3,28(sp)
     7f0:	cc52                	sw	s4,24(sp)
     7f2:	ca56                	sw	s5,20(sp)
     7f4:	d606                	sw	ra,44(sp)
     7f6:	d422                	sw	s0,40(sp)
     7f8:	d226                	sw	s1,36(sp)
     7fa:	d04a                	sw	s2,32(sp)
     7fc:	c85a                	sw	s6,16(sp)
     7fe:	c65e                	sw	s7,12(sp)
F:\数据\嘉立创比赛\程序\IOT_tuya\obj/../TYIOT/mcu_api.c:658
    //#error "请直接在main函数的while(1){}中添加wifi_uart_service(),调用该函数不要加任何条件判断,完成后删除该行"
    static unsigned short rx_in = 0;
    unsigned short offset = 0;
    unsigned short rx_value_len = 0;
    
    while((rx_in < sizeof(wifi_data_process_buf)) && with_data_rxbuff() > 0) {
     800:	4af9                	li	s5,30
F:\数据\嘉立创比赛\程序\IOT_tuya\obj/../TYIOT/mcu_api.c:659
        wifi_data_process_buf[rx_in ++] = take_byte_rxbuff();
     802:	84418993          	addi	s3,gp,-1980 # 200000b4 <wifi_data_process_buf>
F:\数据\嘉立创比赛\程序\IOT_tuya\obj/../TYIOT/mcu_api.c:658
    while((rx_in < sizeof(wifi_data_process_buf)) && with_data_rxbuff() > 0) {
     806:	81018493          	addi	s1,gp,-2032 # 20000080 <_edata>
     80a:	0004d783          	lhu	a5,0(s1)
     80e:	81018913          	addi	s2,gp,-2032 # 20000080 <_edata>
     812:	04fafb63          	bgeu	s5,a5,868 <__stack_size+0x68>
F:\数据\嘉立创比赛\程序\IOT_tuya\obj/../TYIOT/mcu_api.c:662
    }
    
    if(rx_in < PROTOCOL_HEAD)
     816:	00095703          	lhu	a4,0(s2)
     81a:	4799                	li	a5,6
     81c:	0ee7f963          	bgeu	a5,a4,90e <__stack_size+0x10e>
F:\数据\嘉立创比赛\程序\IOT_tuya\obj/../TYIOT/mcu_api.c:655
    unsigned short offset = 0;
     820:	4401                	li	s0,0
F:\数据\嘉立创比赛\程序\IOT_tuya\obj/../TYIOT/mcu_api.c:665
        return;
    
    while((rx_in - offset) >= PROTOCOL_HEAD) {
     822:	4999                	li	s3,6
F:\数据\嘉立创比赛\程序\IOT_tuya\obj/../TYIOT/mcu_api.c:666
        if(wifi_data_process_buf[offset + HEAD_FIRST] != FRAME_FIRST) {
     824:	84418b93          	addi	s7,gp,-1980 # 200000b4 <wifi_data_process_buf>
     828:	05500a13          	li	s4,85
F:\数据\嘉立创比赛\程序\IOT_tuya\obj/../TYIOT/mcu_api.c:671
            offset ++;
            continue;
        }
        
        if(wifi_data_process_buf[offset + HEAD_SECOND] != FRAME_SECOND) {
     82c:	0aa00a93          	li	s5,170
F:\数据\嘉立创比赛\程序\IOT_tuya\obj/../TYIOT/mcu_api.c:683
            continue;
        }      
        
        rx_value_len = wifi_data_process_buf[offset + LENGTH_HIGH] * 0x100;
        rx_value_len += (wifi_data_process_buf[offset + LENGTH_LOW] + PROTOCOL_HEAD);
        if(rx_value_len > sizeof(wifi_data_process_buf) + PROTOCOL_HEAD) {
     830:	02600b13          	li	s6,38
F:\数据\嘉立创比赛\程序\IOT_tuya\obj/../TYIOT/mcu_api.c:665
    while((rx_in - offset) >= PROTOCOL_HEAD) {
     834:	00095603          	lhu	a2,0(s2)
     838:	8e01                	sub	a2,a2,s0
     83a:	04c9c463          	blt	s3,a2,882 <__stack_size+0x82>
F:\数据\嘉立创比赛\程序\IOT_tuya\obj/../TYIOT/mcu_api.c:704
        
        data_handle(offset);
        offset += rx_value_len;
    }//end while

    rx_in -= offset;
     83e:	0642                	slli	a2,a2,0x10
     840:	8241                	srli	a2,a2,0x10
     842:	00c91023          	sh	a2,0(s2)
F:\数据\嘉立创比赛\程序\IOT_tuya\obj/../TYIOT/mcu_api.c:705
    if(rx_in > 0) {
     846:	c661                	beqz	a2,90e <__stack_size+0x10e>
F:\数据\嘉立创比赛\程序\IOT_tuya\obj/../TYIOT/mcu_api.c:706
        my_memcpy((char *)wifi_data_process_buf, (const char *)wifi_data_process_buf + offset, rx_in);
     848:	84418593          	addi	a1,gp,-1980 # 200000b4 <wifi_data_process_buf>
     84c:	95a2                	add	a1,a1,s0
F:\数据\嘉立创比赛\程序\IOT_tuya\obj/../TYIOT/mcu_api.c:708
    }
}
     84e:	5422                	lw	s0,40(sp)
     850:	50b2                	lw	ra,44(sp)
     852:	5492                	lw	s1,36(sp)
     854:	5902                	lw	s2,32(sp)
     856:	49f2                	lw	s3,28(sp)
     858:	4a62                	lw	s4,24(sp)
     85a:	4ad2                	lw	s5,20(sp)
     85c:	4b42                	lw	s6,16(sp)
     85e:	4bb2                	lw	s7,12(sp)
F:\数据\嘉立创比赛\程序\IOT_tuya\obj/../TYIOT/mcu_api.c:706
        my_memcpy((char *)wifi_data_process_buf, (const char *)wifi_data_process_buf + offset, rx_in);
     860:	84418513          	addi	a0,gp,-1980 # 200000b4 <wifi_data_process_buf>
F:\数据\嘉立创比赛\程序\IOT_tuya\obj/../TYIOT/mcu_api.c:708
}
     864:	6145                	addi	sp,sp,48
F:\数据\嘉立创比赛\程序\IOT_tuya\obj/../TYIOT/mcu_api.c:706
        my_memcpy((char *)wifi_data_process_buf, (const char *)wifi_data_process_buf + offset, rx_in);
     866:	b3c5                	j	646 <my_memcpy>
F:\数据\嘉立创比赛\程序\IOT_tuya\obj/../TYIOT/mcu_api.c:658 (discriminator 1)
    while((rx_in < sizeof(wifi_data_process_buf)) && with_data_rxbuff() > 0) {
     868:	2389                	jal	daa <with_data_rxbuff>
     86a:	d555                	beqz	a0,816 <__stack_size+0x16>
F:\数据\嘉立创比赛\程序\IOT_tuya\obj/../TYIOT/mcu_api.c:659
        wifi_data_process_buf[rx_in ++] = take_byte_rxbuff();
     86c:	0004d403          	lhu	s0,0(s1)
     870:	00140793          	addi	a5,s0,1
     874:	00f49023          	sh	a5,0(s1)
     878:	944e                	add	s0,s0,s3
     87a:	2381                	jal	dba <take_byte_rxbuff>
     87c:	00a40023          	sb	a0,0(s0)
     880:	b759                	j	806 <__stack_size+0x6>
F:\数据\嘉立创比赛\程序\IOT_tuya\obj/../TYIOT/mcu_api.c:666
        if(wifi_data_process_buf[offset + HEAD_FIRST] != FRAME_FIRST) {
     882:	01740533          	add	a0,s0,s7
     886:	00054703          	lbu	a4,0(a0)
     88a:	00140793          	addi	a5,s0,1
     88e:	00ea0663          	beq	s4,a4,89a <__stack_size+0x9a>
F:\数据\嘉立创比赛\程序\IOT_tuya\obj/../TYIOT/mcu_api.c:672
            offset ++;
     892:	01079413          	slli	s0,a5,0x10
F:\数据\嘉立创比赛\程序\IOT_tuya\obj/../TYIOT/mcu_api.c:701
        offset += rx_value_len;
     896:	8041                	srli	s0,s0,0x10
     898:	bf71                	j	834 <__stack_size+0x34>
F:\数据\嘉立创比赛\程序\IOT_tuya\obj/../TYIOT/mcu_api.c:671
        if(wifi_data_process_buf[offset + HEAD_SECOND] != FRAME_SECOND) {
     89a:	00fb8733          	add	a4,s7,a5
     89e:	00074703          	lbu	a4,0(a4)
     8a2:	feea98e3          	bne	s5,a4,892 <__stack_size+0x92>
F:\数据\嘉立创比赛\程序\IOT_tuya\obj/../TYIOT/mcu_api.c:676
        if(wifi_data_process_buf[offset + PROTOCOL_VERSION] != MCU_RX_VER) {
     8a6:	00240713          	addi	a4,s0,2
     8aa:	017707b3          	add	a5,a4,s7
     8ae:	0007c783          	lbu	a5,0(a5)
     8b2:	0ff7f793          	andi	a5,a5,255
     8b6:	c781                	beqz	a5,8be <__stack_size+0xbe>
F:\数据\嘉立创比赛\程序\IOT_tuya\obj/../TYIOT/mcu_api.c:677
            offset += 2;
     8b8:	01071413          	slli	s0,a4,0x10
     8bc:	bfe9                	j	896 <__stack_size+0x96>
F:\数据\嘉立创比赛\程序\IOT_tuya\obj/../TYIOT/mcu_api.c:681
        rx_value_len = wifi_data_process_buf[offset + LENGTH_HIGH] * 0x100;
     8be:	00440793          	addi	a5,s0,4
     8c2:	97de                	add	a5,a5,s7
     8c4:	0007c483          	lbu	s1,0(a5)
F:\数据\嘉立创比赛\程序\IOT_tuya\obj/../TYIOT/mcu_api.c:682
        rx_value_len += (wifi_data_process_buf[offset + LENGTH_LOW] + PROTOCOL_HEAD);
     8c8:	00540793          	addi	a5,s0,5
     8cc:	97de                	add	a5,a5,s7
     8ce:	0007c783          	lbu	a5,0(a5)
F:\数据\嘉立创比赛\程序\IOT_tuya\obj/../TYIOT/mcu_api.c:681
        rx_value_len = wifi_data_process_buf[offset + LENGTH_HIGH] * 0x100;
     8d2:	04a2                	slli	s1,s1,0x8
F:\数据\嘉立创比赛\程序\IOT_tuya\obj/../TYIOT/mcu_api.c:682
        rx_value_len += (wifi_data_process_buf[offset + LENGTH_LOW] + PROTOCOL_HEAD);
     8d4:	079d                	addi	a5,a5,7
     8d6:	94be                	add	s1,s1,a5
     8d8:	04c2                	slli	s1,s1,0x10
     8da:	80c1                	srli	s1,s1,0x10
F:\数据\嘉立创比赛\程序\IOT_tuya\obj/../TYIOT/mcu_api.c:683
        if(rx_value_len > sizeof(wifi_data_process_buf) + PROTOCOL_HEAD) {
     8dc:	009b7563          	bgeu	s6,s1,8e6 <__stack_size+0xe6>
F:\数据\嘉立创比赛\程序\IOT_tuya\obj/../TYIOT/mcu_api.c:696
            offset += 3;
     8e0:	040d                	addi	s0,s0,3
     8e2:	0442                	slli	s0,s0,0x10
     8e4:	bf4d                	j	896 <__stack_size+0x96>
F:\数据\嘉立创比赛\程序\IOT_tuya\obj/../TYIOT/mcu_api.c:688
        if((rx_in - offset) < rx_value_len) {
     8e6:	f4964ce3          	blt	a2,s1,83e <__stack_size+0x3e>
F:\数据\嘉立创比赛\程序\IOT_tuya\obj/../TYIOT/mcu_api.c:693
        if(get_check_sum((unsigned char *)wifi_data_process_buf + offset,rx_value_len - 1) != wifi_data_process_buf[offset + rx_value_len - 1]) {
     8ea:	fff48593          	addi	a1,s1,-1
     8ee:	05c2                	slli	a1,a1,0x10
     8f0:	81c1                	srli	a1,a1,0x10
     8f2:	229d                	jal	a58 <get_check_sum>
     8f4:	94a2                	add	s1,s1,s0
     8f6:	fff48793          	addi	a5,s1,-1
     8fa:	97de                	add	a5,a5,s7
     8fc:	0007c783          	lbu	a5,0(a5)
     900:	fef510e3          	bne	a0,a5,8e0 <__stack_size+0xe0>
F:\数据\嘉立创比赛\程序\IOT_tuya\obj/../TYIOT/mcu_api.c:700
        data_handle(offset);
     904:	8522                	mv	a0,s0
     906:	2add                	jal	afc <data_handle>
F:\数据\嘉立创比赛\程序\IOT_tuya\obj/../TYIOT/mcu_api.c:701
        offset += rx_value_len;
     908:	01049413          	slli	s0,s1,0x10
     90c:	b769                	j	896 <__stack_size+0x96>
F:\数据\嘉立创比赛\程序\IOT_tuya\obj/../TYIOT/mcu_api.c:708
}
     90e:	50b2                	lw	ra,44(sp)
     910:	5422                	lw	s0,40(sp)
     912:	5492                	lw	s1,36(sp)
     914:	5902                	lw	s2,32(sp)
     916:	49f2                	lw	s3,28(sp)
     918:	4a62                	lw	s4,24(sp)
     91a:	4ad2                	lw	s5,20(sp)
     91c:	4b42                	lw	s6,16(sp)
     91e:	4bb2                	lw	s7,12(sp)
     920:	6145                	addi	sp,sp,48
     922:	8082                	ret

00000924 <wifi_protocol_init>:
wifi_protocol_init():
F:\数据\嘉立创比赛\程序\IOT_tuya\obj/../TYIOT/mcu_api.c:719
 * @note   在MCU初始化代码中调用该函数
 */
void wifi_protocol_init(void)
{
    //#error " 请在main函数中添加wifi_protocol_init()完成wifi协议初始化,并删除该行"
    rx_buf_in = (unsigned char *)wifi_uart_rx_buf;
     924:	86818793          	addi	a5,gp,-1944 # 200000d8 <wifi_uart_rx_buf>
     928:	86f1a223          	sw	a5,-1948(gp) # 200000d4 <rx_buf_in>
F:\数据\嘉立创比赛\程序\IOT_tuya\obj/../TYIOT/mcu_api.c:720
    rx_buf_out = (unsigned char *)wifi_uart_rx_buf;
     92c:	88f1a023          	sw	a5,-1920(gp) # 200000f0 <rx_buf_out>
F:\数据\嘉立创比赛\程序\IOT_tuya\obj/../TYIOT/mcu_api.c:722
    
    stop_update_flag = DISABLE;
     930:	8c0189a3          	sb	zero,-1837(gp) # 20000143 <stop_update_flag>
F:\数据\嘉立创比赛\程序\IOT_tuya\obj/../TYIOT/mcu_api.c:725
    
#ifndef WIFI_CONTROL_SELF_MODE
    wifi_work_state = WIFI_SATE_UNKNOW;
     934:	577d                	li	a4,-1
     936:	8ce188a3          	sb	a4,-1839(gp) # 20000141 <wifi_work_state>
F:\数据\嘉立创比赛\程序\IOT_tuya\obj/../TYIOT/mcu_api.c:727
#endif
}
     93a:	8082                	ret

0000093c <wifi_state_get>:
mcu_get_wifi_work_state():
F:\数据\嘉立创比赛\程序\IOT_tuya\obj/../TYIOT/mcu_api.c:810
 * -          SMART_AND_AP_STATE: WIFI smartconfig&AP 模式
 * @note   如果为模块自处理模式,MCU无须调用该函数
 */
unsigned char mcu_get_wifi_work_state(void)
{
    return wifi_work_state;
     93c:	8d11c783          	lbu	a5,-1839(gp) # 20000141 <wifi_work_state>
wifi_state_get():
F:\数据\嘉立创比赛\程序\IOT_tuya\obj/../TYIOT/mcu_api.c:1207
}
#endif

void wifi_state_get(void)
{
    switch(mcu_get_wifi_work_state())
     940:	4711                	li	a4,4
     942:	00f71663          	bne	a4,a5,94e <wifi_state_get+0x12>
F:\数据\嘉立创比赛\程序\IOT_tuya\obj/../TYIOT/mcu_api.c:1210
    {
        case WIFI_CONN_CLOUD:
            gpio_set(A8,0);//如果WIFI连接正确，则A8灯常亮。
     946:	4581                	li	a1,0
     948:	4521                	li	a0,8
     94a:	6920106f          	j	1fdc <gpio_set>
F:\数据\嘉立创比赛\程序\IOT_tuya\obj/../TYIOT/mcu_api.c:1213
    }

}
     94e:	8082                	ret

00000950 <uart_transmit_output>:
uart_transmit_output():
F:\数据\嘉立创比赛\程序\IOT_tuya\obj/../TYIOT/protocol.c:119
 * @param[in] {value} 串口要发送的1字节数据
 * @return Null
 */
void uart_transmit_output(unsigned char value)
{
    uart_putchar(DEBUG_UART, value);
     950:	85aa                	mv	a1,a0
     952:	4501                	li	a0,0
     954:	0af0106f          	j	2202 <uart_putchar>

00000958 <all_data_update>:
all_data_update():
F:\数据\嘉立创比赛\程序\IOT_tuya\obj/../TYIOT/protocol.c:153
 * @param  Null
 * @return Null
 * @note   此函数SDK内部需调用，MCU必须实现该函数内数据上报功能，包括只上报和可上报可下发型数据
 */
void all_data_update(void)
{
     958:	1141                	addi	sp,sp,-16
F:\数据\嘉立创比赛\程序\IOT_tuya\obj/../TYIOT/protocol.c:157
    //#error "请在此处理可下发可上报数据及只上报数据示例,处理完成后删除该行"

    //此代码为平台自动生成，请按照实际数据修改每个可下发可上报函数和只上报函数
    mcu_dp_value_update(DPID_TEMP_CURRENT,1);//VALUE型数据上报;
     95a:	4585                	li	a1,1
     95c:	4505                	li	a0,1
F:\数据\嘉立创比赛\程序\IOT_tuya\obj/../TYIOT/protocol.c:153
{
     95e:	c606                	sw	ra,12(sp)
F:\数据\嘉立创比赛\程序\IOT_tuya\obj/../TYIOT/protocol.c:157
    mcu_dp_value_update(DPID_TEMP_CURRENT,1);//VALUE型数据上报;
     960:	335d                	jal	706 <mcu_dp_value_update>
F:\数据\嘉立创比赛\程序\IOT_tuya\obj/../TYIOT/protocol.c:181
    mcu_dp_value_update(DPID_HUM_SENSITIVITY,当前湿度灵敏度)//VALUE型数据上报;
    mcu_dp_bool_update(DPID_SWITCH,当前开关)//BOOL型数据上报;
    mcu_dp_value_update(DPID_TEMP_SET,当前温度设置)//VALUE型数据上报;*/


}
     962:	40b2                	lw	ra,12(sp)
F:\数据\嘉立创比赛\程序\IOT_tuya\obj/../TYIOT/protocol.c:158
    mcu_dp_value_update(DPID_HUMIDITY_VALUE,10);//VALUE型数据上报;
     964:	45a9                	li	a1,10
     966:	4509                	li	a0,2
F:\数据\嘉立创比赛\程序\IOT_tuya\obj/../TYIOT/protocol.c:181
}
     968:	0141                	addi	sp,sp,16
F:\数据\嘉立创比赛\程序\IOT_tuya\obj/../TYIOT/protocol.c:158
    mcu_dp_value_update(DPID_HUMIDITY_VALUE,10);//VALUE型数据上报;
     96a:	bb71                	j	706 <mcu_dp_value_update>

0000096c <dp_download_handle>:
dp_download_handle():
F:\数据\嘉立创比赛\程序\IOT_tuya\obj/../TYIOT/protocol.c:603
    当前函数处理可下发/可上报数据调用
    具体函数内需要实现下发数据处理
    完成用需要将处理结果反馈至APP端,否则APP会认为下发失败
    ***********************************/
    unsigned char ret=0;
    switch(dpid) {
     96c:	1569                	addi	a0,a0,-6
     96e:	0ff57713          	andi	a4,a0,255
     972:	46c1                	li	a3,16
     974:	0ae6e063          	bltu	a3,a4,a14 <dp_download_handle+0xa8>
     978:	87ae                	mv	a5,a1
     97a:	853e                	mv	a0,a5
     97c:	6795                	lui	a5,0x5
     97e:	60078793          	addi	a5,a5,1536 # 5600 <_exit+0x40>
     982:	070a                	slli	a4,a4,0x2
     984:	973e                	add	a4,a4,a5
     986:	431c                	lw	a5,0(a4)
F:\数据\嘉立创比赛\程序\IOT_tuya\obj/../TYIOT/protocol.c:596
{
     988:	1141                	addi	sp,sp,-16
     98a:	c606                	sw	ra,12(sp)
     98c:	85b2                	mv	a1,a2
F:\数据\嘉立创比赛\程序\IOT_tuya\obj/../TYIOT/protocol.c:603
    switch(dpid) {
     98e:	8782                	jr	a5
dp_download_temp_sampling_handle():
F:\数据\嘉立创比赛\程序\IOT_tuya\obj/../TYIOT/protocol.c:203
    temp_sampling = mcu_get_dp_download_value(value,length);
     990:	3d29                	jal	7aa <mcu_get_dp_download_value>
F:\数据\嘉立创比赛\程序\IOT_tuya\obj/../TYIOT/protocol.c:210
    ret = mcu_dp_value_update(DPID_TEMP_SAMPLING,temp_sampling);
     992:	85aa                	mv	a1,a0
     994:	4519                	li	a0,6
dp_download_temp_set_handle():
F:\数据\嘉立创比赛\程序\IOT_tuya\obj/../TYIOT/protocol.c:570
    ret = mcu_dp_value_update(DPID_TEMP_SET,temp_set);
     996:	3b85                	jal	706 <mcu_dp_value_update>
     998:	a809                	j	9aa <dp_download_handle+0x3e>
dp_download_humidity_sampling_handle():
F:\数据\嘉立创比赛\程序\IOT_tuya\obj/../TYIOT/protocol.c:230
    humidity_sampling = mcu_get_dp_download_value(value,length);
     99a:	3d01                	jal	7aa <mcu_get_dp_download_value>
F:\数据\嘉立创比赛\程序\IOT_tuya\obj/../TYIOT/protocol.c:237
    ret = mcu_dp_value_update(DPID_HUMIDITY_SAMPLING,humidity_sampling);
     99c:	85aa                	mv	a1,a0
     99e:	451d                	li	a0,7
     9a0:	bfdd                	j	996 <dp_download_handle+0x2a>
dp_download_temp_unit_convert_handle():
F:\数据\嘉立创比赛\程序\IOT_tuya\obj/../TYIOT/protocol.c:257
    temp_unit_convert = mcu_get_dp_download_enum(value,length);
     9a2:	3509                	jal	7a4 <mcu_get_dp_download_enum>
F:\数据\嘉立创比赛\程序\IOT_tuya\obj/../TYIOT/protocol.c:271
    ret = mcu_dp_enum_update(DPID_TEMP_UNIT_CONVERT, temp_unit_convert);
     9a4:	85aa                	mv	a1,a0
     9a6:	4525                	li	a0,9
     9a8:	3b65                	jal	760 <mcu_dp_enum_update>
dp_download_switch_handle():
F:\数据\嘉立创比赛\程序\IOT_tuya\obj/../TYIOT/protocol.c:544
    if(ret == SUCCESS)
     9aa:	157d                	addi	a0,a0,-1
dp_download_temp_sampling_handle():
F:\数据\嘉立创比赛\程序\IOT_tuya\obj/../TYIOT/protocol.c:214
        return ERROR;
     9ac:	00153513          	seqz	a0,a0
dp_download_handle():
F:\数据\嘉立创比赛\程序\IOT_tuya\obj/../TYIOT/protocol.c:666
        
        default:
        break;
    }
    return ret;
}
     9b0:	40b2                	lw	ra,12(sp)
     9b2:	0141                	addi	sp,sp,16
     9b4:	8082                	ret
dp_download_maxtemp_set_handle():
F:\数据\嘉立创比赛\程序\IOT_tuya\obj/../TYIOT/protocol.c:291
    maxtemp_set = mcu_get_dp_download_value(value,length);
     9b6:	3bd5                	jal	7aa <mcu_get_dp_download_value>
F:\数据\嘉立创比赛\程序\IOT_tuya\obj/../TYIOT/protocol.c:298
    ret = mcu_dp_value_update(DPID_MAXTEMP_SET,maxtemp_set);
     9b8:	85aa                	mv	a1,a0
     9ba:	4529                	li	a0,10
     9bc:	bfe9                	j	996 <dp_download_handle+0x2a>
dp_download_minitemp_set_handle():
F:\数据\嘉立创比赛\程序\IOT_tuya\obj/../TYIOT/protocol.c:318
    minitemp_set = mcu_get_dp_download_value(value,length);
     9be:	33f5                	jal	7aa <mcu_get_dp_download_value>
F:\数据\嘉立创比赛\程序\IOT_tuya\obj/../TYIOT/protocol.c:325
    ret = mcu_dp_value_update(DPID_MINITEMP_SET,minitemp_set);
     9c0:	85aa                	mv	a1,a0
     9c2:	452d                	li	a0,11
     9c4:	bfc9                	j	996 <dp_download_handle+0x2a>
dp_download_maxhum_set_handle():
F:\数据\嘉立创比赛\程序\IOT_tuya\obj/../TYIOT/protocol.c:345
    maxhum_set = mcu_get_dp_download_value(value,length);
     9c6:	33d5                	jal	7aa <mcu_get_dp_download_value>
F:\数据\嘉立创比赛\程序\IOT_tuya\obj/../TYIOT/protocol.c:352
    ret = mcu_dp_value_update(DPID_MAXHUM_SET,maxhum_set);
     9c8:	85aa                	mv	a1,a0
     9ca:	4531                	li	a0,12
     9cc:	b7e9                	j	996 <dp_download_handle+0x2a>
dp_download_minihum_set_handle():
F:\数据\嘉立创比赛\程序\IOT_tuya\obj/../TYIOT/protocol.c:372
    minihum_set = mcu_get_dp_download_value(value,length);
     9ce:	3bf1                	jal	7aa <mcu_get_dp_download_value>
F:\数据\嘉立创比赛\程序\IOT_tuya\obj/../TYIOT/protocol.c:379
    ret = mcu_dp_value_update(DPID_MINIHUM_SET,minihum_set);
     9d0:	85aa                	mv	a1,a0
     9d2:	4535                	li	a0,13
     9d4:	b7c9                	j	996 <dp_download_handle+0x2a>
dp_download_bright_value_handle():
F:\数据\嘉立创比赛\程序\IOT_tuya\obj/../TYIOT/protocol.c:399
    bright_value = mcu_get_dp_download_value(value,length);
     9d6:	3bd1                	jal	7aa <mcu_get_dp_download_value>
F:\数据\嘉立创比赛\程序\IOT_tuya\obj/../TYIOT/protocol.c:406
    ret = mcu_dp_value_update(DPID_BRIGHT_VALUE,bright_value);
     9d8:	85aa                	mv	a1,a0
     9da:	4541                	li	a0,16
     9dc:	bf6d                	j	996 <dp_download_handle+0x2a>
dp_download_temp_periodic_report_handle():
F:\数据\嘉立创比赛\程序\IOT_tuya\obj/../TYIOT/protocol.c:426
    temp_periodic_report = mcu_get_dp_download_value(value,length);
     9de:	33f1                	jal	7aa <mcu_get_dp_download_value>
F:\数据\嘉立创比赛\程序\IOT_tuya\obj/../TYIOT/protocol.c:433
    ret = mcu_dp_value_update(DPID_TEMP_PERIODIC_REPORT,temp_periodic_report);
     9e0:	85aa                	mv	a1,a0
     9e2:	4545                	li	a0,17
     9e4:	bf4d                	j	996 <dp_download_handle+0x2a>
dp_download_hum_periodic_report_handle():
F:\数据\嘉立创比赛\程序\IOT_tuya\obj/../TYIOT/protocol.c:453
    hum_periodic_report = mcu_get_dp_download_value(value,length);
     9e6:	33d1                	jal	7aa <mcu_get_dp_download_value>
F:\数据\嘉立创比赛\程序\IOT_tuya\obj/../TYIOT/protocol.c:460
    ret = mcu_dp_value_update(DPID_HUM_PERIODIC_REPORT,hum_periodic_report);
     9e8:	85aa                	mv	a1,a0
     9ea:	4549                	li	a0,18
     9ec:	b76d                	j	996 <dp_download_handle+0x2a>
dp_download_temp_sensitivity_handle():
F:\数据\嘉立创比赛\程序\IOT_tuya\obj/../TYIOT/protocol.c:480
    temp_sensitivity = mcu_get_dp_download_value(value,length);
     9ee:	3b75                	jal	7aa <mcu_get_dp_download_value>
F:\数据\嘉立创比赛\程序\IOT_tuya\obj/../TYIOT/protocol.c:487
    ret = mcu_dp_value_update(DPID_TEMP_SENSITIVITY,temp_sensitivity);
     9f0:	85aa                	mv	a1,a0
     9f2:	454d                	li	a0,19
     9f4:	b74d                	j	996 <dp_download_handle+0x2a>
dp_download_hum_sensitivity_handle():
F:\数据\嘉立创比赛\程序\IOT_tuya\obj/../TYIOT/protocol.c:507
    hum_sensitivity = mcu_get_dp_download_value(value,length);
     9f6:	3b55                	jal	7aa <mcu_get_dp_download_value>
F:\数据\嘉立创比赛\程序\IOT_tuya\obj/../TYIOT/protocol.c:514
    ret = mcu_dp_value_update(DPID_HUM_SENSITIVITY,hum_sensitivity);
     9f8:	85aa                	mv	a1,a0
     9fa:	4551                	li	a0,20
     9fc:	bf69                	j	996 <dp_download_handle+0x2a>
dp_download_switch_handle():
F:\数据\嘉立创比赛\程序\IOT_tuya\obj/../TYIOT/protocol.c:535
    switch_1 = mcu_get_dp_download_bool(value,length);
     9fe:	3345                	jal	79e <mcu_get_dp_download_bool>
F:\数据\嘉立创比赛\程序\IOT_tuya\obj/../TYIOT/protocol.c:543
    ret = mcu_dp_bool_update(DPID_SWITCH,switch_1);
     a00:	85aa                	mv	a1,a0
     a02:	4555                	li	a0,21
     a04:	31c1                	jal	6c4 <mcu_dp_bool_update>
     a06:	b755                	j	9aa <dp_download_handle+0x3e>
dp_download_temp_set_handle():
F:\数据\嘉立创比赛\程序\IOT_tuya\obj/../TYIOT/protocol.c:563
    temp_set = mcu_get_dp_download_value(value,length);
     a08:	334d                	jal	7aa <mcu_get_dp_download_value>
F:\数据\嘉立创比赛\程序\IOT_tuya\obj/../TYIOT/protocol.c:570
    ret = mcu_dp_value_update(DPID_TEMP_SET,temp_set);
     a0a:	85aa                	mv	a1,a0
     a0c:	4559                	li	a0,22
     a0e:	b761                	j	996 <dp_download_handle+0x2a>
dp_download_handle():
F:\数据\嘉立创比赛\程序\IOT_tuya\obj/../TYIOT/protocol.c:602
    unsigned char ret=0;
     a10:	4501                	li	a0,0
     a12:	bf79                	j	9b0 <dp_download_handle+0x44>
     a14:	4501                	li	a0,0
F:\数据\嘉立创比赛\程序\IOT_tuya\obj/../TYIOT/protocol.c:666
}
     a16:	8082                	ret

00000a18 <get_download_cmd_total>:
get_download_cmd_total():
F:\数据\嘉立创比赛\程序\IOT_tuya\obj/../TYIOT/protocol.c:677
 * @note   该函数用户不能修改
 */
unsigned char get_download_cmd_total(void)
{
    return(sizeof(download_cmd) / sizeof(download_cmd[0]));
}
     a18:	4559                	li	a0,22
     a1a:	8082                	ret

00000a1c <wifi_test_result>:
wifi_test_result():
F:\数据\嘉立创比赛\程序\IOT_tuya\obj/../TYIOT/protocol.c:807
        }
    }else {
        //测试成功
        //rssi为信号强度(0-100, 0信号最差，100信号最强)
    }
}
     a1c:	8082                	ret

00000a1e <set_wifi_uart_byte>:
set_wifi_uart_byte():
F:\数据\嘉立创比赛\程序\IOT_tuya\obj/../TYIOT/system.c:38
 */
unsigned short set_wifi_uart_byte(unsigned short dest, unsigned char byte)
{
    unsigned char *obj = (unsigned char *)wifi_uart_tx_buf + DATA_START + dest;
    
    *obj = byte;
     a1e:	88a18793          	addi	a5,gp,-1910 # 200000fa <wifi_uart_tx_buf+0x6>
     a22:	97aa                	add	a5,a5,a0
F:\数据\嘉立创比赛\程序\IOT_tuya\obj/../TYIOT/system.c:39
    dest += 1;
     a24:	0505                	addi	a0,a0,1
F:\数据\嘉立创比赛\程序\IOT_tuya\obj/../TYIOT/system.c:42
    
    return dest;
}
     a26:	0542                	slli	a0,a0,0x10
F:\数据\嘉立创比赛\程序\IOT_tuya\obj/../TYIOT/system.c:38
    *obj = byte;
     a28:	00b78023          	sb	a1,0(a5)
F:\数据\嘉立创比赛\程序\IOT_tuya\obj/../TYIOT/system.c:42
}
     a2c:	8141                	srli	a0,a0,0x10
     a2e:	8082                	ret

00000a30 <set_wifi_uart_buffer>:
set_wifi_uart_buffer():
F:\数据\嘉立创比赛\程序\IOT_tuya\obj/../TYIOT/system.c:52
 * @param[in] {src} 婧板
 * @param[in] {len} 版垮害
 * @return ョ缂瀛板
 */
unsigned short set_wifi_uart_buffer(unsigned short dest, const unsigned char *src, unsigned short len)
{
     a30:	1141                	addi	sp,sp,-16
     a32:	c422                	sw	s0,8(sp)
F:\数据\嘉立创比赛\程序\IOT_tuya\obj/../TYIOT/system.c:55
    unsigned char *obj = (unsigned char *)wifi_uart_tx_buf + DATA_START + dest;
    
    my_memcpy(obj,src,len);
     a34:	88418793          	addi	a5,gp,-1916 # 200000f4 <wifi_uart_tx_buf>
F:\数据\嘉立创比赛\程序\IOT_tuya\obj/../TYIOT/system.c:52
{
     a38:	842a                	mv	s0,a0
F:\数据\嘉立创比赛\程序\IOT_tuya\obj/../TYIOT/system.c:53
    unsigned char *obj = (unsigned char *)wifi_uart_tx_buf + DATA_START + dest;
     a3a:	0519                	addi	a0,a0,6
F:\数据\嘉立创比赛\程序\IOT_tuya\obj/../TYIOT/system.c:55
    my_memcpy(obj,src,len);
     a3c:	953e                	add	a0,a0,a5
F:\数据\嘉立创比赛\程序\IOT_tuya\obj/../TYIOT/system.c:52
{
     a3e:	c226                	sw	s1,4(sp)
     a40:	c606                	sw	ra,12(sp)
     a42:	84b2                	mv	s1,a2
F:\数据\嘉立创比赛\程序\IOT_tuya\obj/../TYIOT/system.c:55
    my_memcpy(obj,src,len);
     a44:	3109                	jal	646 <my_memcpy>
F:\数据\嘉立创比赛\程序\IOT_tuya\obj/../TYIOT/system.c:57
    
    dest += len;
     a46:	00940533          	add	a0,s0,s1
F:\数据\嘉立创比赛\程序\IOT_tuya\obj/../TYIOT/system.c:59
    return dest;
}
     a4a:	40b2                	lw	ra,12(sp)
     a4c:	4422                	lw	s0,8(sp)
     a4e:	0542                	slli	a0,a0,0x10
     a50:	4492                	lw	s1,4(sp)
     a52:	8141                	srli	a0,a0,0x10
     a54:	0141                	addi	sp,sp,16
     a56:	8082                	ret

00000a58 <get_check_sum>:
get_check_sum():
F:\数据\嘉立创比赛\程序\IOT_tuya\obj/../TYIOT/system.c:72
unsigned char get_check_sum(unsigned char *pack, unsigned short pack_len)
{
    unsigned short i;
    unsigned char check_sum = 0;
    
    for(i = 0; i < pack_len; i ++) {
     a58:	4701                	li	a4,0
F:\数据\嘉立创比赛\程序\IOT_tuya\obj/../TYIOT/system.c:70
    unsigned char check_sum = 0;
     a5a:	4781                	li	a5,0
F:\数据\嘉立创比赛\程序\IOT_tuya\obj/../TYIOT/system.c:72 (discriminator 1)
    for(i = 0; i < pack_len; i ++) {
     a5c:	01071693          	slli	a3,a4,0x10
     a60:	82c1                	srli	a3,a3,0x10
     a62:	00b6e463          	bltu	a3,a1,a6a <get_check_sum+0x12>
F:\数据\嘉立创比赛\程序\IOT_tuya\obj/../TYIOT/system.c:77
        check_sum += *pack ++;
    }
    
    return check_sum;
}
     a66:	853e                	mv	a0,a5
     a68:	8082                	ret
F:\数据\嘉立创比赛\程序\IOT_tuya\obj/../TYIOT/system.c:73 (discriminator 3)
        check_sum += *pack ++;
     a6a:	00e506b3          	add	a3,a0,a4
     a6e:	0006c683          	lbu	a3,0(a3)
     a72:	0705                	addi	a4,a4,1
     a74:	97b6                	add	a5,a5,a3
     a76:	0ff7f793          	andi	a5,a5,255
     a7a:	b7cd                	j	a5c <get_check_sum+0x4>

00000a7c <wifi_uart_write_frame>:
wifi_uart_write_frame():
F:\数据\嘉立创比赛\程序\IOT_tuya\obj/../TYIOT/system.c:104
 * @param[in] {fr_ver} 甯х
 * @param[in] {len} 版垮害
 * @return Null
 */
void wifi_uart_write_frame(unsigned char fr_type, unsigned char fr_ver, unsigned short len)
{
     a7c:	1141                	addi	sp,sp,-16
     a7e:	c226                	sw	s1,4(sp)
F:\数据\嘉立创比赛\程序\IOT_tuya\obj/../TYIOT/system.c:107
    unsigned char check_sum = 0;
    
    wifi_uart_tx_buf[HEAD_FIRST] = 0x55;
     a80:	05500793          	li	a5,85
F:\数据\嘉立创比赛\程序\IOT_tuya\obj/../TYIOT/system.c:104
{
     a84:	c422                	sw	s0,8(sp)
     a86:	c04a                	sw	s2,0(sp)
F:\数据\嘉立创比赛\程序\IOT_tuya\obj/../TYIOT/system.c:107
    wifi_uart_tx_buf[HEAD_FIRST] = 0x55;
     a88:	88f18223          	sb	a5,-1916(gp) # 200000f4 <wifi_uart_tx_buf>
F:\数据\嘉立创比赛\程序\IOT_tuya\obj/../TYIOT/system.c:104
{
     a8c:	c606                	sw	ra,12(sp)
F:\数据\嘉立创比赛\程序\IOT_tuya\obj/../TYIOT/system.c:108
    wifi_uart_tx_buf[HEAD_SECOND] = 0xaa;
     a8e:	88418913          	addi	s2,gp,-1916 # 200000f4 <wifi_uart_tx_buf>
     a92:	faa00793          	li	a5,-86
     a96:	00f900a3          	sb	a5,1(s2)
F:\数据\嘉立创比赛\程序\IOT_tuya\obj/../TYIOT/system.c:109
    wifi_uart_tx_buf[PROTOCOL_VERSION] = fr_ver;
     a9a:	00b90123          	sb	a1,2(s2)
F:\数据\嘉立创比赛\程序\IOT_tuya\obj/../TYIOT/system.c:110
    wifi_uart_tx_buf[FRAME_TYPE] = fr_type;
     a9e:	00a901a3          	sb	a0,3(s2)
F:\数据\嘉立创比赛\程序\IOT_tuya\obj/../TYIOT/system.c:111
    wifi_uart_tx_buf[LENGTH_HIGH] = len >> 8;
     aa2:	00865793          	srli	a5,a2,0x8
     aa6:	00f90223          	sb	a5,4(s2)
F:\数据\嘉立创比赛\程序\IOT_tuya\obj/../TYIOT/system.c:114
    wifi_uart_tx_buf[LENGTH_LOW] = len & 0xff;
    
    len += PROTOCOL_HEAD;
     aaa:	00760413          	addi	s0,a2,7
F:\数据\嘉立创比赛\程序\IOT_tuya\obj/../TYIOT/system.c:112
    wifi_uart_tx_buf[LENGTH_LOW] = len & 0xff;
     aae:	0ff67793          	andi	a5,a2,255
F:\数据\嘉立创比赛\程序\IOT_tuya\obj/../TYIOT/system.c:115
    check_sum = get_check_sum((unsigned char *)wifi_uart_tx_buf, len - 1);
     ab2:	0619                	addi	a2,a2,6
     ab4:	01061593          	slli	a1,a2,0x10
F:\数据\嘉立创比赛\程序\IOT_tuya\obj/../TYIOT/system.c:114
    len += PROTOCOL_HEAD;
     ab8:	0442                	slli	s0,s0,0x10
F:\数据\嘉立创比赛\程序\IOT_tuya\obj/../TYIOT/system.c:115
    check_sum = get_check_sum((unsigned char *)wifi_uart_tx_buf, len - 1);
     aba:	81c1                	srli	a1,a1,0x10
     abc:	88418513          	addi	a0,gp,-1916 # 200000f4 <wifi_uart_tx_buf>
F:\数据\嘉立创比赛\程序\IOT_tuya\obj/../TYIOT/system.c:112
    wifi_uart_tx_buf[LENGTH_LOW] = len & 0xff;
     ac0:	00f902a3          	sb	a5,5(s2)
F:\数据\嘉立创比赛\程序\IOT_tuya\obj/../TYIOT/system.c:114
    len += PROTOCOL_HEAD;
     ac4:	8041                	srli	s0,s0,0x10
F:\数据\嘉立创比赛\程序\IOT_tuya\obj/../TYIOT/system.c:115
    check_sum = get_check_sum((unsigned char *)wifi_uart_tx_buf, len - 1);
     ac6:	3f49                	jal	a58 <get_check_sum>
F:\数据\嘉立创比赛\程序\IOT_tuya\obj/../TYIOT/system.c:116
    wifi_uart_tx_buf[len - 1] = check_sum;
     ac8:	fff40793          	addi	a5,s0,-1
     acc:	993e                	add	s2,s2,a5
     ace:	00a90023          	sb	a0,0(s2)
wifi_uart_write_data():
F:\数据\嘉立创比赛\程序\IOT_tuya\obj/../TYIOT/system.c:86
    if((NULL == in) || (0 == len)) {
     ad2:	c811                	beqz	s0,ae6 <wifi_uart_write_frame+0x6a>
F:\数据\嘉立创比赛\程序\IOT_tuya\obj/../TYIOT/system.c:90
    while(len --) {
     ad4:	6941                	lui	s2,0x10
     ad6:	88418493          	addi	s1,gp,-1916 # 200000f4 <wifi_uart_tx_buf>
     ada:	197d                	addi	s2,s2,-1
     adc:	147d                	addi	s0,s0,-1
     ade:	0442                	slli	s0,s0,0x10
     ae0:	8041                	srli	s0,s0,0x10
     ae2:	01241863          	bne	s0,s2,af2 <wifi_uart_write_frame+0x76>
wifi_uart_write_frame():
F:\数据\嘉立创比赛\程序\IOT_tuya\obj/../TYIOT/system.c:119
    
    wifi_uart_write_data((unsigned char *)wifi_uart_tx_buf, len);
}
     ae6:	40b2                	lw	ra,12(sp)
     ae8:	4422                	lw	s0,8(sp)
     aea:	4492                	lw	s1,4(sp)
     aec:	4902                	lw	s2,0(sp)
     aee:	0141                	addi	sp,sp,16
     af0:	8082                	ret
wifi_uart_write_data():
F:\数据\嘉立创比赛\程序\IOT_tuya\obj/../TYIOT/system.c:91
        uart_transmit_output(*in);
     af2:	0004c503          	lbu	a0,0(s1)
F:\数据\嘉立创比赛\程序\IOT_tuya\obj/../TYIOT/system.c:92
        in ++;
     af6:	0485                	addi	s1,s1,1
F:\数据\嘉立创比赛\程序\IOT_tuya\obj/../TYIOT/system.c:91
        uart_transmit_output(*in);
     af8:	3da1                	jal	950 <uart_transmit_output>
F:\数据\嘉立创比赛\程序\IOT_tuya\obj/../TYIOT/system.c:92
        in ++;
     afa:	b7cd                	j	adc <wifi_uart_write_frame+0x60>

00000afc <data_handle>:
data_handle():
F:\数据\嘉立创比赛\程序\IOT_tuya\obj/../TYIOT/system.c:405
    unsigned short dp_len;
#endif
  
    unsigned char ret;
    unsigned short i,total_len;
    unsigned char cmd_type = wifi_data_process_buf[offset + FRAME_TYPE];
     afc:	84418693          	addi	a3,gp,-1980 # 200000b4 <wifi_data_process_buf>
     b00:	00350713          	addi	a4,a0,3
     b04:	9736                	add	a4,a4,a3
     b06:	00074703          	lbu	a4,0(a4)
F:\数据\嘉立创比赛\程序\IOT_tuya\obj/../TYIOT/system.c:423
    static unsigned short file_package_size = 0                               //浠舵版涓澶у
    static unsigned char file_download_flag = 0                               //浠朵杞芥蹇
    unsigned int file_download_size = 0;
#endif

    switch(cmd_type)
     b0a:	46b9                	li	a3,14
F:\数据\嘉立创比赛\程序\IOT_tuya\obj/../TYIOT/system.c:405
    unsigned char cmd_type = wifi_data_process_buf[offset + FRAME_TYPE];
     b0c:	0ff77713          	andi	a4,a4,255
F:\数据\嘉立创比赛\程序\IOT_tuya\obj/../TYIOT/system.c:423
    switch(cmd_type)
     b10:	28e6ec63          	bltu	a3,a4,da8 <data_handle+0x2ac>
     b14:	6695                	lui	a3,0x5
     b16:	070a                	slli	a4,a4,0x2
     b18:	67068693          	addi	a3,a3,1648 # 5670 <download_cmd+0x2c>
     b1c:	9736                	add	a4,a4,a3
     b1e:	4318                	lw	a4,0(a4)
F:\数据\嘉立创比赛\程序\IOT_tuya\obj/../TYIOT/system.c:391
{
     b20:	715d                	addi	sp,sp,-80
     b22:	c2a6                	sw	s1,68(sp)
     b24:	c686                	sw	ra,76(sp)
     b26:	84418493          	addi	s1,gp,-1980 # 200000b4 <wifi_data_process_buf>
     b2a:	c4a2                	sw	s0,72(sp)
     b2c:	c0ca                	sw	s2,64(sp)
     b2e:	de4e                	sw	s3,60(sp)
     b30:	dc52                	sw	s4,56(sp)
     b32:	da56                	sw	s5,52(sp)
     b34:	d85a                	sw	s6,48(sp)
     b36:	d65e                	sw	s7,44(sp)
     b38:	d462                	sw	s8,40(sp)
     b3a:	d266                	sw	s9,36(sp)
     b3c:	d06a                	sw	s10,32(sp)
     b3e:	ce6e                	sw	s11,28(sp)
     b40:	87aa                	mv	a5,a0
F:\数据\嘉立创比赛\程序\IOT_tuya\obj/../TYIOT/system.c:423
    switch(cmd_type)
     b42:	8702                	jr	a4
heat_beat_check():
F:\数据\嘉立创比赛\程序\IOT_tuya\obj/../TYIOT/system.c:131
    if(FALSE == mcu_reset_state) {
     b44:	81218713          	addi	a4,gp,-2030 # 20000082 <mcu_reset_state.6085>
     b48:	00074683          	lbu	a3,0(a4)
     b4c:	88418793          	addi	a5,gp,-1916 # 200000f4 <wifi_uart_tx_buf>
     b50:	ea85                	bnez	a3,b80 <data_handle+0x84>
set_wifi_uart_byte():
F:\数据\嘉立创比赛\程序\IOT_tuya\obj/../TYIOT/system.c:38
    *obj = byte;
     b52:	00078323          	sb	zero,6(a5)
heat_beat_check():
F:\数据\嘉立创比赛\程序\IOT_tuya\obj/../TYIOT/system.c:133
        mcu_reset_state = TRUE;
     b56:	4785                	li	a5,1
     b58:	00f70023          	sb	a5,0(a4)
F:\数据\嘉立创比赛\程序\IOT_tuya\obj/../TYIOT/system.c:138
    wifi_uart_write_frame(HEAT_BEAT_CMD, MCU_TX_VER, length);
     b5c:	4605                	li	a2,1
     b5e:	458d                	li	a1,3
     b60:	4501                	li	a0,0
data_handle():
F:\数据\嘉立创比赛\程序\IOT_tuya\obj/../TYIOT/system.c:726
#endif
        

        default:break;
    }
}
     b62:	4426                	lw	s0,72(sp)
     b64:	40b6                	lw	ra,76(sp)
     b66:	4496                	lw	s1,68(sp)
     b68:	4906                	lw	s2,64(sp)
     b6a:	59f2                	lw	s3,60(sp)
     b6c:	5a62                	lw	s4,56(sp)
     b6e:	5ad2                	lw	s5,52(sp)
     b70:	5b42                	lw	s6,48(sp)
     b72:	5bb2                	lw	s7,44(sp)
     b74:	5c22                	lw	s8,40(sp)
     b76:	5c92                	lw	s9,36(sp)
     b78:	5d02                	lw	s10,32(sp)
     b7a:	4df2                	lw	s11,28(sp)
     b7c:	6161                	addi	sp,sp,80
product_info_update():
F:\数据\嘉立创比赛\程序\IOT_tuya\obj/../TYIOT/system.c:176
    wifi_uart_write_frame(PRODUCT_INFO_CMD, MCU_TX_VER, length);
     b7e:	bdfd                	j	a7c <wifi_uart_write_frame>
set_wifi_uart_byte():
F:\数据\嘉立创比赛\程序\IOT_tuya\obj/../TYIOT/system.c:38
    *obj = byte;
     b80:	4705                	li	a4,1
     b82:	00e78323          	sb	a4,6(a5)
F:\数据\嘉立创比赛\程序\IOT_tuya\obj/../TYIOT/system.c:41
    return dest;
     b86:	bfd9                	j	b5c <data_handle+0x60>
product_info_update():
F:\数据\嘉立创比赛\程序\IOT_tuya\obj/../TYIOT/system.c:151
    length = set_wifi_uart_buffer(length, "{\"p\":\"", my_strlen("{\"p\":\""));
     b88:	000054b7          	lui	s1,0x5
     b8c:	6ac48513          	addi	a0,s1,1708 # 56ac <download_cmd+0x68>
     b90:	aa1ff0ef          	jal	ra,630 <my_strlen>
     b94:	01051413          	slli	s0,a0,0x10
     b98:	8041                	srli	s0,s0,0x10
set_wifi_uart_buffer():
F:\数据\嘉立创比赛\程序\IOT_tuya\obj/../TYIOT/system.c:55
    my_memcpy(obj,src,len);
     b9a:	8622                	mv	a2,s0
     b9c:	6ac48593          	addi	a1,s1,1708
     ba0:	88a18513          	addi	a0,gp,-1910 # 200000fa <wifi_uart_tx_buf+0x6>
     ba4:	aa3ff0ef          	jal	ra,646 <my_memcpy>
product_info_update():
F:\数据\嘉立创比赛\程序\IOT_tuya\obj/../TYIOT/system.c:152
    length = set_wifi_uart_buffer(length,(unsigned char *)PRODUCT_KEY,my_strlen((unsigned char *)PRODUCT_KEY));
     ba8:	000054b7          	lui	s1,0x5
     bac:	6b448513          	addi	a0,s1,1716 # 56b4 <download_cmd+0x70>
     bb0:	a81ff0ef          	jal	ra,630 <my_strlen>
     bb4:	01051613          	slli	a2,a0,0x10
     bb8:	6b448593          	addi	a1,s1,1716
     bbc:	8241                	srli	a2,a2,0x10
     bbe:	0ff47513          	andi	a0,s0,255
     bc2:	35bd                	jal	a30 <set_wifi_uart_buffer>
F:\数据\嘉立创比赛\程序\IOT_tuya\obj/../TYIOT/system.c:153
    length = set_wifi_uart_buffer(length, "\",\"v\":\"", my_strlen("\",\"v\":\""));
     bc4:	00005437          	lui	s0,0x5
F:\数据\嘉立创比赛\程序\IOT_tuya\obj/../TYIOT/system.c:152
    length = set_wifi_uart_buffer(length,(unsigned char *)PRODUCT_KEY,my_strlen((unsigned char *)PRODUCT_KEY));
     bc8:	84aa                	mv	s1,a0
F:\数据\嘉立创比赛\程序\IOT_tuya\obj/../TYIOT/system.c:153
    length = set_wifi_uart_buffer(length, "\",\"v\":\"", my_strlen("\",\"v\":\""));
     bca:	6c840513          	addi	a0,s0,1736 # 56c8 <download_cmd+0x84>
     bce:	a63ff0ef          	jal	ra,630 <my_strlen>
     bd2:	01051613          	slli	a2,a0,0x10
     bd6:	6c840593          	addi	a1,s0,1736
     bda:	8241                	srli	a2,a2,0x10
     bdc:	0ff4f513          	andi	a0,s1,255
     be0:	3d81                	jal	a30 <set_wifi_uart_buffer>
F:\数据\嘉立创比赛\程序\IOT_tuya\obj/../TYIOT/system.c:154
    length = set_wifi_uart_buffer(length,(unsigned char *)MCU_VER,my_strlen((unsigned char *)MCU_VER));
     be2:	00005437          	lui	s0,0x5
F:\数据\嘉立创比赛\程序\IOT_tuya\obj/../TYIOT/system.c:153
    length = set_wifi_uart_buffer(length, "\",\"v\":\"", my_strlen("\",\"v\":\""));
     be6:	84aa                	mv	s1,a0
F:\数据\嘉立创比赛\程序\IOT_tuya\obj/../TYIOT/system.c:154
    length = set_wifi_uart_buffer(length,(unsigned char *)MCU_VER,my_strlen((unsigned char *)MCU_VER));
     be8:	6d040513          	addi	a0,s0,1744 # 56d0 <download_cmd+0x8c>
     bec:	a45ff0ef          	jal	ra,630 <my_strlen>
     bf0:	01051613          	slli	a2,a0,0x10
     bf4:	6d040593          	addi	a1,s0,1744
     bf8:	8241                	srli	a2,a2,0x10
     bfa:	0ff4f513          	andi	a0,s1,255
     bfe:	3d0d                	jal	a30 <set_wifi_uart_buffer>
F:\数据\嘉立创比赛\程序\IOT_tuya\obj/../TYIOT/system.c:155
    length = set_wifi_uart_buffer(length, "\",\"m\":", my_strlen("\",\"m\":"));
     c00:	00005437          	lui	s0,0x5
F:\数据\嘉立创比赛\程序\IOT_tuya\obj/../TYIOT/system.c:154
    length = set_wifi_uart_buffer(length,(unsigned char *)MCU_VER,my_strlen((unsigned char *)MCU_VER));
     c04:	84aa                	mv	s1,a0
F:\数据\嘉立创比赛\程序\IOT_tuya\obj/../TYIOT/system.c:155
    length = set_wifi_uart_buffer(length, "\",\"m\":", my_strlen("\",\"m\":"));
     c06:	6d840513          	addi	a0,s0,1752 # 56d8 <download_cmd+0x94>
     c0a:	a27ff0ef          	jal	ra,630 <my_strlen>
     c0e:	01051613          	slli	a2,a0,0x10
     c12:	6d840593          	addi	a1,s0,1752
     c16:	8241                	srli	a2,a2,0x10
     c18:	0ff4f513          	andi	a0,s1,255
     c1c:	3d11                	jal	a30 <set_wifi_uart_buffer>
F:\数据\嘉立创比赛\程序\IOT_tuya\obj/../TYIOT/system.c:156
    length = set_wifi_uart_buffer(length, (unsigned char *)CONFIG_MODE, my_strlen((unsigned char *)CONFIG_MODE));
     c1e:	00005437          	lui	s0,0x5
F:\数据\嘉立创比赛\程序\IOT_tuya\obj/../TYIOT/system.c:155
    length = set_wifi_uart_buffer(length, "\",\"m\":", my_strlen("\",\"m\":"));
     c22:	84aa                	mv	s1,a0
F:\数据\嘉立创比赛\程序\IOT_tuya\obj/../TYIOT/system.c:156
    length = set_wifi_uart_buffer(length, (unsigned char *)CONFIG_MODE, my_strlen((unsigned char *)CONFIG_MODE));
     c24:	6e040513          	addi	a0,s0,1760 # 56e0 <download_cmd+0x9c>
     c28:	a09ff0ef          	jal	ra,630 <my_strlen>
     c2c:	01051613          	slli	a2,a0,0x10
     c30:	6e040593          	addi	a1,s0,1760
     c34:	8241                	srli	a2,a2,0x10
     c36:	0ff4f513          	andi	a0,s1,255
     c3a:	3bdd                	jal	a30 <set_wifi_uart_buffer>
F:\数据\嘉立创比赛\程序\IOT_tuya\obj/../TYIOT/system.c:174
    length = set_wifi_uart_buffer(length, "}", my_strlen("}"));
     c3c:	00005437          	lui	s0,0x5
F:\数据\嘉立创比赛\程序\IOT_tuya\obj/../TYIOT/system.c:156
    length = set_wifi_uart_buffer(length, (unsigned char *)CONFIG_MODE, my_strlen((unsigned char *)CONFIG_MODE));
     c40:	84aa                	mv	s1,a0
F:\数据\嘉立创比赛\程序\IOT_tuya\obj/../TYIOT/system.c:174
    length = set_wifi_uart_buffer(length, "}", my_strlen("}"));
     c42:	6e440513          	addi	a0,s0,1764 # 56e4 <download_cmd+0xa0>
     c46:	9ebff0ef          	jal	ra,630 <my_strlen>
     c4a:	01051613          	slli	a2,a0,0x10
     c4e:	8241                	srli	a2,a2,0x10
     c50:	6e440593          	addi	a1,s0,1764
     c54:	0ff4f513          	andi	a0,s1,255
     c58:	3be1                	jal	a30 <set_wifi_uart_buffer>
F:\数据\嘉立创比赛\程序\IOT_tuya\obj/../TYIOT/system.c:176
    wifi_uart_write_frame(PRODUCT_INFO_CMD, MCU_TX_VER, length);
     c5a:	0ff57613          	andi	a2,a0,255
     c5e:	458d                	li	a1,3
     c60:	4505                	li	a0,1
     c62:	b701                	j	b62 <data_handle+0x66>
get_mcu_wifi_mode():
F:\数据\嘉立创比赛\程序\IOT_tuya\obj/../TYIOT/system.c:195
    wifi_uart_write_frame(WORK_MODE_CMD, MCU_TX_VER, length);
     c64:	4601                	li	a2,0
     c66:	458d                	li	a1,3
     c68:	4509                	li	a0,2
     c6a:	bde5                	j	b62 <data_handle+0x66>
data_handle():
F:\数据\嘉立创比赛\程序\IOT_tuya\obj/../TYIOT/system.c:439
            wifi_work_state = wifi_data_process_buf[offset + DATA_START];
     c6c:	00650793          	addi	a5,a0,6
     c70:	97a6                	add	a5,a5,s1
     c72:	0007c783          	lbu	a5,0(a5)
F:\数据\嘉立创比赛\程序\IOT_tuya\obj/../TYIOT/system.c:440
            wifi_uart_write_frame(WIFI_STATE_CMD, MCU_TX_VER, 0);
     c76:	4601                	li	a2,0
F:\数据\嘉立创比赛\程序\IOT_tuya\obj/../TYIOT/system.c:439
            wifi_work_state = wifi_data_process_buf[offset + DATA_START];
     c78:	0ff7f793          	andi	a5,a5,255
     c7c:	8cf188a3          	sb	a5,-1839(gp) # 20000141 <wifi_work_state>
F:\数据\嘉立创比赛\程序\IOT_tuya\obj/../TYIOT/system.c:440
            wifi_uart_write_frame(WIFI_STATE_CMD, MCU_TX_VER, 0);
     c80:	458d                	li	a1,3
     c82:	450d                	li	a0,3
     c84:	bdf9                	j	b62 <data_handle+0x66>
F:\数据\嘉立创比赛\程序\IOT_tuya\obj/../TYIOT/system.c:450
            reset_wifi_flag = RESET_WIFI_SUCCESS;
     c86:	4705                	li	a4,1
     c88:	8ce18923          	sb	a4,-1838(gp) # 20000142 <reset_wifi_flag>
F:\数据\嘉立创比赛\程序\IOT_tuya\obj/../TYIOT/system.c:726
}
     c8c:	40b6                	lw	ra,76(sp)
     c8e:	4426                	lw	s0,72(sp)
     c90:	4496                	lw	s1,68(sp)
     c92:	4906                	lw	s2,64(sp)
     c94:	59f2                	lw	s3,60(sp)
     c96:	5a62                	lw	s4,56(sp)
     c98:	5ad2                	lw	s5,52(sp)
     c9a:	5b42                	lw	s6,48(sp)
     c9c:	5bb2                	lw	s7,44(sp)
     c9e:	5c22                	lw	s8,40(sp)
     ca0:	5c92                	lw	s9,36(sp)
     ca2:	5d02                	lw	s10,32(sp)
     ca4:	4df2                	lw	s11,28(sp)
     ca6:	6161                	addi	sp,sp,80
     ca8:	8082                	ret
F:\数据\嘉立创比赛\程序\IOT_tuya\obj/../TYIOT/system.c:454
            set_wifimode_flag = SET_WIFICONFIG_SUCCESS;
     caa:	4705                	li	a4,1
     cac:	86e181a3          	sb	a4,-1949(gp) # 200000d3 <set_wifimode_flag>
F:\数据\嘉立创比赛\程序\IOT_tuya\obj/../TYIOT/system.c:455
        break;
     cb0:	bff1                	j	c8c <data_handle+0x190>
F:\数据\嘉立创比赛\程序\IOT_tuya\obj/../TYIOT/system.c:459
            total_len = (wifi_data_process_buf[offset + LENGTH_HIGH] << 8) | wifi_data_process_buf[offset + LENGTH_LOW];
     cb2:	00450713          	addi	a4,a0,4
     cb6:	9726                	add	a4,a4,s1
     cb8:	00074a03          	lbu	s4,0(a4)
     cbc:	00550713          	addi	a4,a0,5
     cc0:	9726                	add	a4,a4,s1
     cc2:	00074703          	lbu	a4,0(a4)
     cc6:	0a22                	slli	s4,s4,0x8
     cc8:	6b15                	lui	s6,0x5
     cca:	00ea6a33          	or	s4,s4,a4
F:\数据\嘉立创比赛\程序\IOT_tuya\obj/../TYIOT/system.c:461
            for(i = 0;i < total_len; ) {
     cce:	4c81                	li	s9,0
F:\数据\嘉立创比赛\程序\IOT_tuya\obj/../TYIOT/system.c:462
                dp_len = wifi_data_process_buf[offset + DATA_START + i + 2] * 0x100;
     cd0:	00650413          	addi	s0,a0,6
     cd4:	644b0b93          	addi	s7,s6,1604 # 5644 <download_cmd>
F:\数据\嘉立创比赛\程序\IOT_tuya\obj/../TYIOT/system.c:461 (discriminator 1)
            for(i = 0;i < total_len; ) {
     cd8:	fb4cfae3          	bgeu	s9,s4,c8c <data_handle+0x190>
F:\数据\嘉立创比赛\程序\IOT_tuya\obj/../TYIOT/system.c:462
                dp_len = wifi_data_process_buf[offset + DATA_START + i + 2] * 0x100;
     cdc:	01940933          	add	s2,s0,s9
     ce0:	00290793          	addi	a5,s2,2 # 10002 <_data_lma+0xa376>
     ce4:	97a6                	add	a5,a5,s1
     ce6:	0007c983          	lbu	s3,0(a5)
F:\数据\嘉立创比赛\程序\IOT_tuya\obj/../TYIOT/system.c:463
                dp_len += wifi_data_process_buf[offset + DATA_START + i + 3];
     cea:	00390793          	addi	a5,s2,3
F:\数据\嘉立创比赛\程序\IOT_tuya\obj/../TYIOT/system.c:465
                ret = data_point_handle((unsigned char *)wifi_data_process_buf + offset + DATA_START + i);
     cee:	9926                	add	s2,s2,s1
data_point_handle():
F:\数据\嘉立创比赛\程序\IOT_tuya\obj/../TYIOT/system.c:230
    dp_type = value[1];
     cf0:	00194603          	lbu	a2,1(s2)
data_handle():
F:\数据\嘉立创比赛\程序\IOT_tuya\obj/../TYIOT/system.c:463
                dp_len += wifi_data_process_buf[offset + DATA_START + i + 3];
     cf4:	97a6                	add	a5,a5,s1
F:\数据\嘉立创比赛\程序\IOT_tuya\obj/../TYIOT/system.c:462
                dp_len = wifi_data_process_buf[offset + DATA_START + i + 2] * 0x100;
     cf6:	00899c13          	slli	s8,s3,0x8
data_point_handle():
F:\数据\嘉立创比赛\程序\IOT_tuya\obj/../TYIOT/system.c:230
    dp_type = value[1];
     cfa:	c632                	sw	a2,12(sp)
data_handle():
F:\数据\嘉立创比赛\程序\IOT_tuya\obj/../TYIOT/system.c:463
                dp_len += wifi_data_process_buf[offset + DATA_START + i + 3];
     cfc:	0007c983          	lbu	s3,0(a5)
data_point_handle():
F:\数据\嘉立创比赛\程序\IOT_tuya\obj/../TYIOT/system.c:229
    dp_id = value[0];
     d00:	00094d03          	lbu	s10,0(s2)
F:\数据\嘉立创比赛\程序\IOT_tuya\obj/../TYIOT/system.c:231
    dp_len = value[2] * 0x100;
     d04:	00294a83          	lbu	s5,2(s2)
F:\数据\嘉立创比赛\程序\IOT_tuya\obj/../TYIOT/system.c:232
    dp_len += value[3];
     d08:	00394d83          	lbu	s11,3(s2)
get_dowmload_dpid_index():
F:\数据\嘉立创比赛\程序\IOT_tuya\obj/../TYIOT/system.c:206
    unsigned char total = get_download_cmd_total();
     d0c:	3331                	jal	a18 <get_download_cmd_total>
     d0e:	4632                	lw	a2,12(sp)
     d10:	0991                	addi	s3,s3,4
F:\数据\嘉立创比赛\程序\IOT_tuya\obj/../TYIOT/system.c:208
    for(index = 0; index < total; index ++) {
     d12:	644b0693          	addi	a3,s6,1604
F:\数据\嘉立创比赛\程序\IOT_tuya\obj/../TYIOT/system.c:206
    unsigned char total = get_download_cmd_total();
     d16:	4701                	li	a4,0
F:\数据\嘉立创比赛\程序\IOT_tuya\obj/../TYIOT/system.c:208
    for(index = 0; index < total; index ++) {
     d18:	0ff77593          	andi	a1,a4,255
     d1c:	87ba                	mv	a5,a4
     d1e:	00a5f863          	bgeu	a1,a0,d2e <data_handle+0x232>
F:\数据\嘉立创比赛\程序\IOT_tuya\obj/../TYIOT/system.c:209
        if(download_cmd[index].dp_id == dpid) {
     d22:	0006c583          	lbu	a1,0(a3)
     d26:	0705                	addi	a4,a4,1
     d28:	0689                	addi	a3,a3,2
     d2a:	febd17e3          	bne	s10,a1,d18 <data_handle+0x21c>
data_point_handle():
F:\数据\嘉立创比赛\程序\IOT_tuya\obj/../TYIOT/system.c:236
    if(dp_type != download_cmd[index].dp_type) {
     d2e:	0786                	slli	a5,a5,0x1
     d30:	97de                	add	a5,a5,s7
     d32:	0017c783          	lbu	a5,1(a5)
     d36:	00c79b63          	bne	a5,a2,d4c <data_handle+0x250>
F:\数据\嘉立创比赛\程序\IOT_tuya\obj/../TYIOT/system.c:231
    dp_len = value[2] * 0x100;
     d3a:	0aa2                	slli	s5,s5,0x8
F:\数据\嘉立创比赛\程序\IOT_tuya\obj/../TYIOT/system.c:232
    dp_len += value[3];
     d3c:	01ba8633          	add	a2,s5,s11
F:\数据\嘉立创比赛\程序\IOT_tuya\obj/../TYIOT/system.c:240
        ret = dp_download_handle(dp_id,value + 4,dp_len);
     d40:	0642                	slli	a2,a2,0x10
     d42:	8241                	srli	a2,a2,0x10
     d44:	00490593          	addi	a1,s2,4
     d48:	856a                	mv	a0,s10
     d4a:	310d                	jal	96c <dp_download_handle>
data_handle():
F:\数据\嘉立创比赛\程序\IOT_tuya\obj/../TYIOT/system.c:473
                i += (dp_len + 4);
     d4c:	99e6                	add	s3,s3,s9
     d4e:	99e2                	add	s3,s3,s8
     d50:	01099c93          	slli	s9,s3,0x10
     d54:	010cdc93          	srli	s9,s9,0x10
     d58:	b741                	j	cd8 <data_handle+0x1dc>
F:\数据\嘉立创比赛\程序\IOT_tuya\obj/../TYIOT/system.c:726
}
     d5a:	4426                	lw	s0,72(sp)
     d5c:	40b6                	lw	ra,76(sp)
     d5e:	4496                	lw	s1,68(sp)
     d60:	4906                	lw	s2,64(sp)
     d62:	59f2                	lw	s3,60(sp)
     d64:	5a62                	lw	s4,56(sp)
     d66:	5ad2                	lw	s5,52(sp)
     d68:	5b42                	lw	s6,48(sp)
     d6a:	5bb2                	lw	s7,44(sp)
     d6c:	5c22                	lw	s8,40(sp)
     d6e:	5c92                	lw	s9,36(sp)
     d70:	5d02                	lw	s10,32(sp)
     d72:	4df2                	lw	s11,28(sp)
     d74:	6161                	addi	sp,sp,80
F:\数据\嘉立创比赛\程序\IOT_tuya\obj/../TYIOT/system.c:478
            all_data_update();
     d76:	b6cd                	j	958 <all_data_update>
F:\数据\嘉立创比赛\程序\IOT_tuya\obj/../TYIOT/system.c:557
            result = wifi_data_process_buf[offset + DATA_START];
     d78:	00650713          	addi	a4,a0,6
F:\数据\嘉立创比赛\程序\IOT_tuya\obj/../TYIOT/system.c:558
            rssi = wifi_data_process_buf[offset + DATA_START + 1];
     d7c:	079d                	addi	a5,a5,7
F:\数据\嘉立创比赛\程序\IOT_tuya\obj/../TYIOT/system.c:557
            result = wifi_data_process_buf[offset + DATA_START];
     d7e:	9726                	add	a4,a4,s1
F:\数据\嘉立创比赛\程序\IOT_tuya\obj/../TYIOT/system.c:558
            rssi = wifi_data_process_buf[offset + DATA_START + 1];
     d80:	97a6                	add	a5,a5,s1
F:\数据\嘉立创比赛\程序\IOT_tuya\obj/../TYIOT/system.c:726
}
     d82:	4426                	lw	s0,72(sp)
F:\数据\嘉立创比赛\程序\IOT_tuya\obj/../TYIOT/system.c:557
            result = wifi_data_process_buf[offset + DATA_START];
     d84:	00074503          	lbu	a0,0(a4)
F:\数据\嘉立创比赛\程序\IOT_tuya\obj/../TYIOT/system.c:726
}
     d88:	40b6                	lw	ra,76(sp)
     d8a:	4496                	lw	s1,68(sp)
     d8c:	4906                	lw	s2,64(sp)
     d8e:	59f2                	lw	s3,60(sp)
     d90:	5a62                	lw	s4,56(sp)
     d92:	5ad2                	lw	s5,52(sp)
     d94:	5b42                	lw	s6,48(sp)
     d96:	5bb2                	lw	s7,44(sp)
     d98:	5c22                	lw	s8,40(sp)
     d9a:	5c92                	lw	s9,36(sp)
     d9c:	5d02                	lw	s10,32(sp)
     d9e:	4df2                	lw	s11,28(sp)
F:\数据\嘉立创比赛\程序\IOT_tuya\obj/../TYIOT/system.c:558
            rssi = wifi_data_process_buf[offset + DATA_START + 1];
     da0:	0007c583          	lbu	a1,0(a5)
F:\数据\嘉立创比赛\程序\IOT_tuya\obj/../TYIOT/system.c:726
}
     da4:	6161                	addi	sp,sp,80
F:\数据\嘉立创比赛\程序\IOT_tuya\obj/../TYIOT/system.c:559
            wifi_test_result(result, rssi);
     da6:	b99d                	j	a1c <wifi_test_result>
     da8:	8082                	ret

00000daa <with_data_rxbuff>:
with_data_rxbuff():
F:\数据\嘉立创比赛\程序\IOT_tuya\obj/../TYIOT/system.c:735
 * @param  Null
 * @return 版
 */
unsigned char with_data_rxbuff(void)
{
    if(rx_buf_in != rx_buf_out)
     daa:	8641a503          	lw	a0,-1948(gp) # 200000d4 <rx_buf_in>
     dae:	8801a783          	lw	a5,-1920(gp) # 200000f0 <rx_buf_out>
     db2:	8d1d                	sub	a0,a0,a5
F:\数据\嘉立创比赛\程序\IOT_tuya\obj/../TYIOT/system.c:739
        return 1;
    else
        return 0;
}
     db4:	00a03533          	snez	a0,a0
     db8:	8082                	ret

00000dba <take_byte_rxbuff>:
take_byte_rxbuff():
F:\数据\嘉立创比赛\程序\IOT_tuya\obj/../TYIOT/system.c:750
 */
unsigned char take_byte_rxbuff(void)
{
    unsigned char value=0;
    
    if(rx_buf_out != rx_buf_in) {
     dba:	8801a683          	lw	a3,-1920(gp) # 200000f0 <rx_buf_out>
     dbe:	8641a703          	lw	a4,-1948(gp) # 200000d4 <rx_buf_in>
F:\数据\嘉立创比赛\程序\IOT_tuya\obj/../TYIOT/system.c:748
    unsigned char value=0;
     dc2:	4501                	li	a0,0
F:\数据\嘉立创比赛\程序\IOT_tuya\obj/../TYIOT/system.c:750
    if(rx_buf_out != rx_buf_in) {
     dc4:	02e68463          	beq	a3,a4,dec <take_byte_rxbuff+0x32>
F:\数据\嘉立创比赛\程序\IOT_tuya\obj/../TYIOT/system.c:752
        //版
        if(rx_buf_out >= (unsigned char *)(wifi_uart_rx_buf + sizeof(wifi_uart_rx_buf))) {
     dc8:	87f18713          	addi	a4,gp,-1921 # 200000ef <wifi_uart_rx_buf+0x17>
     dcc:	00e6e663          	bltu	a3,a4,dd8 <take_byte_rxbuff+0x1e>
F:\数据\嘉立创比赛\程序\IOT_tuya\obj/../TYIOT/system.c:754
            //版宸茬版灏
            rx_buf_out = (unsigned char *)(wifi_uart_rx_buf);
     dd0:	86818713          	addi	a4,gp,-1944 # 200000d8 <wifi_uart_rx_buf>
     dd4:	88e1a023          	sw	a4,-1920(gp) # 200000f0 <rx_buf_out>
F:\数据\嘉立创比赛\程序\IOT_tuya\obj/../TYIOT/system.c:757
        }
        
        value = *rx_buf_out ++;
     dd8:	8801a703          	lw	a4,-1920(gp) # 200000f0 <rx_buf_out>
     ddc:	00170693          	addi	a3,a4,1
     de0:	88d1a023          	sw	a3,-1920(gp) # 200000f0 <rx_buf_out>
     de4:	00074503          	lbu	a0,0(a4)
     de8:	0ff57513          	andi	a0,a0,255
F:\数据\嘉立创比赛\程序\IOT_tuya\obj/../TYIOT/system.c:761
    }
    
    return value;
}
     dec:	8082                	ret

00000dee <handle_reset>:
handle_reset():
F:\数据\嘉立创比赛\程序\IOT_tuya\obj/../Libraries/wch_libraries/Startup/startup_ch32v10x.S:147
	.weak	handle_reset
	.align	1
handle_reset:
.option push 
.option	norelax 
	la gp, __global_pointer$
     dee:	20000197          	auipc	gp,0x20000
     df2:	a8218193          	addi	gp,gp,-1406 # 20000870 <__global_pointer$>
F:\数据\嘉立创比赛\程序\IOT_tuya\obj/../Libraries/wch_libraries/Startup/startup_ch32v10x.S:150
.option	pop 
1:
	la sp, _eusrstack 
     df6:	20004117          	auipc	sp,0x20004
     dfa:	20a10113          	addi	sp,sp,522 # 20005000 <_eusrstack>
F:\数据\嘉立创比赛\程序\IOT_tuya\obj/../Libraries/wch_libraries/Startup/startup_ch32v10x.S:153
2:
	/* Load data section from flash to RAM */
	la a0, _data_lma
     dfe:	00005517          	auipc	a0,0x5
     e02:	e8e50513          	addi	a0,a0,-370 # 5c8c <_data_lma>
F:\数据\嘉立创比赛\程序\IOT_tuya\obj/../Libraries/wch_libraries/Startup/startup_ch32v10x.S:154
	la a1, _data_vma
     e06:	1ffff597          	auipc	a1,0x1ffff
     e0a:	1fa58593          	addi	a1,a1,506 # 20000000 <_data_vma>
F:\数据\嘉立创比赛\程序\IOT_tuya\obj/../Libraries/wch_libraries/Startup/startup_ch32v10x.S:155
	la a2, _edata
     e0e:	81018613          	addi	a2,gp,-2032 # 20000080 <_edata>
F:\数据\嘉立创比赛\程序\IOT_tuya\obj/../Libraries/wch_libraries/Startup/startup_ch32v10x.S:156
	bgeu a1, a2, 2f
     e12:	00c5fa63          	bgeu	a1,a2,e26 <handle_reset+0x38>
F:\数据\嘉立创比赛\程序\IOT_tuya\obj/../Libraries/wch_libraries/Startup/startup_ch32v10x.S:158
1:
	lw t0, (a0)
     e16:	00052283          	lw	t0,0(a0)
F:\数据\嘉立创比赛\程序\IOT_tuya\obj/../Libraries/wch_libraries/Startup/startup_ch32v10x.S:159
	sw t0, (a1)
     e1a:	0055a023          	sw	t0,0(a1)
F:\数据\嘉立创比赛\程序\IOT_tuya\obj/../Libraries/wch_libraries/Startup/startup_ch32v10x.S:160
	addi a0, a0, 4
     e1e:	0511                	addi	a0,a0,4
F:\数据\嘉立创比赛\程序\IOT_tuya\obj/../Libraries/wch_libraries/Startup/startup_ch32v10x.S:161
	addi a1, a1, 4
     e20:	0591                	addi	a1,a1,4
F:\数据\嘉立创比赛\程序\IOT_tuya\obj/../Libraries/wch_libraries/Startup/startup_ch32v10x.S:162
	bltu a1, a2, 1b
     e22:	fec5eae3          	bltu	a1,a2,e16 <handle_reset+0x28>
F:\数据\嘉立创比赛\程序\IOT_tuya\obj/../Libraries/wch_libraries/Startup/startup_ch32v10x.S:165
2:
	/* clear bss section */
	la a0, _sbss
     e26:	81018513          	addi	a0,gp,-2032 # 20000080 <_edata>
F:\数据\嘉立创比赛\程序\IOT_tuya\obj/../Libraries/wch_libraries/Startup/startup_ch32v10x.S:166
	la a1, _ebss
     e2a:	20002597          	auipc	a1,0x20002
     e2e:	24e58593          	addi	a1,a1,590 # 20003078 <_ebss>
F:\数据\嘉立创比赛\程序\IOT_tuya\obj/../Libraries/wch_libraries/Startup/startup_ch32v10x.S:167
	bgeu a0, a1, 2f
     e32:	00b57763          	bgeu	a0,a1,e40 <handle_reset+0x52>
F:\数据\嘉立创比赛\程序\IOT_tuya\obj/../Libraries/wch_libraries/Startup/startup_ch32v10x.S:169
1:
	sw zero, (a0)
     e36:	00052023          	sw	zero,0(a0)
F:\数据\嘉立创比赛\程序\IOT_tuya\obj/../Libraries/wch_libraries/Startup/startup_ch32v10x.S:170
	addi a0, a0, 4
     e3a:	0511                	addi	a0,a0,4
F:\数据\嘉立创比赛\程序\IOT_tuya\obj/../Libraries/wch_libraries/Startup/startup_ch32v10x.S:171
	bltu a0, a1, 1b
     e3c:	feb56de3          	bltu	a0,a1,e36 <handle_reset+0x48>
F:\数据\嘉立创比赛\程序\IOT_tuya\obj/../Libraries/wch_libraries/Startup/startup_ch32v10x.S:174
2:
	/* enable all interrupt */
  li t0, 0x88
     e40:	08800293          	li	t0,136
F:\数据\嘉立创比赛\程序\IOT_tuya\obj/../Libraries/wch_libraries/Startup/startup_ch32v10x.S:175
  csrs mstatus, t0
     e44:	3002a073          	csrs	mstatus,t0
F:\数据\嘉立创比赛\程序\IOT_tuya\obj/../Libraries/wch_libraries/Startup/startup_ch32v10x.S:176
	la t0, _vector_base
     e48:	fffff297          	auipc	t0,0xfffff
     e4c:	1f028293          	addi	t0,t0,496 # 38 <_einit>
F:\数据\嘉立创比赛\程序\IOT_tuya\obj/../Libraries/wch_libraries/Startup/startup_ch32v10x.S:177
  ori t0, t0, 1
     e50:	0012e293          	ori	t0,t0,1
F:\数据\嘉立创比赛\程序\IOT_tuya\obj/../Libraries/wch_libraries/Startup/startup_ch32v10x.S:178
	csrw mtvec, t0
     e54:	30529073          	csrw	mtvec,t0
F:\数据\嘉立创比赛\程序\IOT_tuya\obj/../Libraries/wch_libraries/Startup/startup_ch32v10x.S:180

  jal  SystemInit
     e58:	480010ef          	jal	ra,22d8 <SystemInit>
F:\数据\嘉立创比赛\程序\IOT_tuya\obj/../Libraries/wch_libraries/Startup/startup_ch32v10x.S:181
	la t0, main
     e5c:	fffff297          	auipc	t0,0xfffff
     e60:	62228293          	addi	t0,t0,1570 # 47e <main>
F:\数据\嘉立创比赛\程序\IOT_tuya\obj/../Libraries/wch_libraries/Startup/startup_ch32v10x.S:182
	csrw mepc, t0
     e64:	34129073          	csrw	mepc,t0
F:\数据\嘉立创比赛\程序\IOT_tuya\obj/../Libraries/wch_libraries/Startup/startup_ch32v10x.S:183
	mret
     e68:	30200073          	mret

00000e6c <ADC_DeInit>:
ADC_DeInit():
F:\数据\嘉立创比赛\程序\IOT_tuya\obj/../Libraries/wch_libraries/Peripheral/ch32v10x_adc.c:116
*                    where x can be 1 to select the ADC peripheral.
* Return         : None
*******************************************************************************/
void ADC_DeInit(ADC_TypeDef* ADCx)
{
  if (ADCx == ADC1)
     e6c:	400127b7          	lui	a5,0x40012
     e70:	40078793          	addi	a5,a5,1024 # 40012400 <_eusrstack+0x2000d400>
     e74:	00f51e63          	bne	a0,a5,e90 <ADC_DeInit+0x24>
F:\数据\嘉立创比赛\程序\IOT_tuya\obj/../Libraries/wch_libraries/Peripheral/ch32v10x_adc.c:115
{
     e78:	1141                	addi	sp,sp,-16
F:\数据\嘉立创比赛\程序\IOT_tuya\obj/../Libraries/wch_libraries/Peripheral/ch32v10x_adc.c:118
  {
    RCC_APB2PeriphResetCmd(RCC_APB2Periph_ADC1, ENABLE);
     e7a:	4585                	li	a1,1
     e7c:	20000513          	li	a0,512
F:\数据\嘉立创比赛\程序\IOT_tuya\obj/../Libraries/wch_libraries/Peripheral/ch32v10x_adc.c:115
{
     e80:	c606                	sw	ra,12(sp)
F:\数据\嘉立创比赛\程序\IOT_tuya\obj/../Libraries/wch_libraries/Peripheral/ch32v10x_adc.c:118
    RCC_APB2PeriphResetCmd(RCC_APB2Periph_ADC1, ENABLE);
     e82:	2915                	jal	12b6 <RCC_APB2PeriphResetCmd>
F:\数据\嘉立创比赛\程序\IOT_tuya\obj/../Libraries/wch_libraries/Peripheral/ch32v10x_adc.c:121
    RCC_APB2PeriphResetCmd(RCC_APB2Periph_ADC1, DISABLE);
  }
}
     e84:	40b2                	lw	ra,12(sp)
F:\数据\嘉立创比赛\程序\IOT_tuya\obj/../Libraries/wch_libraries/Peripheral/ch32v10x_adc.c:119
    RCC_APB2PeriphResetCmd(RCC_APB2Periph_ADC1, DISABLE);
     e86:	4581                	li	a1,0
     e88:	20000513          	li	a0,512
F:\数据\嘉立创比赛\程序\IOT_tuya\obj/../Libraries/wch_libraries/Peripheral/ch32v10x_adc.c:121
}
     e8c:	0141                	addi	sp,sp,16
F:\数据\嘉立创比赛\程序\IOT_tuya\obj/../Libraries/wch_libraries/Peripheral/ch32v10x_adc.c:119
    RCC_APB2PeriphResetCmd(RCC_APB2Periph_ADC1, DISABLE);
     e8e:	a125                	j	12b6 <RCC_APB2PeriphResetCmd>
     e90:	8082                	ret

00000e92 <ADC_Init>:
ADC_Init():
F:\数据\嘉立创比赛\程序\IOT_tuya\obj/../Libraries/wch_libraries/Peripheral/ch32v10x_adc.c:138
void ADC_Init(ADC_TypeDef* ADCx, ADC_InitTypeDef* ADC_InitStruct)
{
  uint32_t tmpreg1 = 0;
  uint8_t tmpreg2 = 0;

  tmpreg1 = ADCx->CTLR1;
     e92:	415c                	lw	a5,4(a0)
F:\数据\嘉立创比赛\程序\IOT_tuya\obj/../Libraries/wch_libraries/Peripheral/ch32v10x_adc.c:139
  tmpreg1 &= CTLR1_CLEAR_Mask;
     e94:	fff10737          	lui	a4,0xfff10
     e98:	eff70713          	addi	a4,a4,-257 # fff0feff <_eusrstack+0xdff0aeff>
     e9c:	8f7d                	and	a4,a4,a5
F:\数据\嘉立创比赛\程序\IOT_tuya\obj/../Libraries/wch_libraries/Peripheral/ch32v10x_adc.c:140
  tmpreg1 |= (uint32_t)(ADC_InitStruct->ADC_Mode | ((uint32_t)ADC_InitStruct->ADC_ScanConvMode << 8));
     e9e:	41dc                	lw	a5,4(a1)
     ea0:	4194                	lw	a3,0(a1)
     ea2:	07a2                	slli	a5,a5,0x8
     ea4:	8fd5                	or	a5,a5,a3
     ea6:	8fd9                	or	a5,a5,a4
F:\数据\嘉立创比赛\程序\IOT_tuya\obj/../Libraries/wch_libraries/Peripheral/ch32v10x_adc.c:141
  ADCx->CTLR1 = tmpreg1;
     ea8:	c15c                	sw	a5,4(a0)
F:\数据\嘉立创比赛\程序\IOT_tuya\obj/../Libraries/wch_libraries/Peripheral/ch32v10x_adc.c:143

  tmpreg1 = ADCx->CTLR2;
     eaa:	451c                	lw	a5,8(a0)
F:\数据\嘉立创比赛\程序\IOT_tuya\obj/../Libraries/wch_libraries/Peripheral/ch32v10x_adc.c:144
  tmpreg1 &= CTLR2_CLEAR_Mask;
     eac:	fff1f737          	lui	a4,0xfff1f
     eb0:	7fd70713          	addi	a4,a4,2045 # fff1f7fd <_eusrstack+0xdff1a7fd>
F:\数据\嘉立创比赛\程序\IOT_tuya\obj/../Libraries/wch_libraries/Peripheral/ch32v10x_adc.c:145
  tmpreg1 |= (uint32_t)(ADC_InitStruct->ADC_DataAlign | ADC_InitStruct->ADC_ExternalTrigConv |
     eb4:	45d4                	lw	a3,12(a1)
F:\数据\嘉立创比赛\程序\IOT_tuya\obj/../Libraries/wch_libraries/Peripheral/ch32v10x_adc.c:144
  tmpreg1 &= CTLR2_CLEAR_Mask;
     eb6:	8f7d                	and	a4,a4,a5
F:\数据\嘉立创比赛\程序\IOT_tuya\obj/../Libraries/wch_libraries/Peripheral/ch32v10x_adc.c:145
  tmpreg1 |= (uint32_t)(ADC_InitStruct->ADC_DataAlign | ADC_InitStruct->ADC_ExternalTrigConv |
     eb8:	499c                	lw	a5,16(a1)
     eba:	8fd5                	or	a5,a5,a3
F:\数据\嘉立创比赛\程序\IOT_tuya\obj/../Libraries/wch_libraries/Peripheral/ch32v10x_adc.c:146
            ((uint32_t)ADC_InitStruct->ADC_ContinuousConvMode << 1));
     ebc:	4594                	lw	a3,8(a1)
     ebe:	0686                	slli	a3,a3,0x1
F:\数据\嘉立创比赛\程序\IOT_tuya\obj/../Libraries/wch_libraries/Peripheral/ch32v10x_adc.c:145
  tmpreg1 |= (uint32_t)(ADC_InitStruct->ADC_DataAlign | ADC_InitStruct->ADC_ExternalTrigConv |
     ec0:	8fd5                	or	a5,a5,a3
     ec2:	8fd9                	or	a5,a5,a4
F:\数据\嘉立创比赛\程序\IOT_tuya\obj/../Libraries/wch_libraries/Peripheral/ch32v10x_adc.c:147
  ADCx->CTLR2 = tmpreg1;
     ec4:	c51c                	sw	a5,8(a0)
F:\数据\嘉立创比赛\程序\IOT_tuya\obj/../Libraries/wch_libraries/Peripheral/ch32v10x_adc.c:149

  tmpreg1 = ADCx->RSQR1;
     ec6:	555c                	lw	a5,44(a0)
F:\数据\嘉立创比赛\程序\IOT_tuya\obj/../Libraries/wch_libraries/Peripheral/ch32v10x_adc.c:150
  tmpreg1 &= RSQR1_CLEAR_Mask;
     ec8:	ff100737          	lui	a4,0xff100
     ecc:	177d                	addi	a4,a4,-1
     ece:	8f7d                	and	a4,a4,a5
F:\数据\嘉立创比赛\程序\IOT_tuya\obj/../Libraries/wch_libraries/Peripheral/ch32v10x_adc.c:151
  tmpreg2 |= (uint8_t) (ADC_InitStruct->ADC_NbrOfChannel - (uint8_t)1);
     ed0:	0145c783          	lbu	a5,20(a1)
     ed4:	17fd                	addi	a5,a5,-1
F:\数据\嘉立创比赛\程序\IOT_tuya\obj/../Libraries/wch_libraries/Peripheral/ch32v10x_adc.c:152
  tmpreg1 |= (uint32_t)tmpreg2 << 20;
     ed6:	0ff7f793          	andi	a5,a5,255
     eda:	07d2                	slli	a5,a5,0x14
     edc:	8fd9                	or	a5,a5,a4
F:\数据\嘉立创比赛\程序\IOT_tuya\obj/../Libraries/wch_libraries/Peripheral/ch32v10x_adc.c:153
  ADCx->RSQR1 = tmpreg1;
     ede:	d55c                	sw	a5,44(a0)
F:\数据\嘉立创比赛\程序\IOT_tuya\obj/../Libraries/wch_libraries/Peripheral/ch32v10x_adc.c:154
}
     ee0:	8082                	ret

00000ee2 <ADC_Cmd>:
ADC_Cmd():
F:\数据\嘉立创比赛\程序\IOT_tuya\obj/../Libraries/wch_libraries/Peripheral/ch32v10x_adc.c:185
*******************************************************************************/
void ADC_Cmd(ADC_TypeDef* ADCx, FunctionalState NewState)
{
  if (NewState != DISABLE)
  {
    ADCx->CTLR2 |= CTLR2_ADON_Set;
     ee2:	451c                	lw	a5,8(a0)
F:\数据\嘉立创比赛\程序\IOT_tuya\obj/../Libraries/wch_libraries/Peripheral/ch32v10x_adc.c:183
  if (NewState != DISABLE)
     ee4:	c589                	beqz	a1,eee <ADC_Cmd+0xc>
F:\数据\嘉立创比赛\程序\IOT_tuya\obj/../Libraries/wch_libraries/Peripheral/ch32v10x_adc.c:185
    ADCx->CTLR2 |= CTLR2_ADON_Set;
     ee6:	0017e793          	ori	a5,a5,1
F:\数据\嘉立创比赛\程序\IOT_tuya\obj/../Libraries/wch_libraries/Peripheral/ch32v10x_adc.c:189
  }
  else
  {
    ADCx->CTLR2 &= CTLR2_ADON_Reset;
     eea:	c51c                	sw	a5,8(a0)
F:\数据\嘉立创比赛\程序\IOT_tuya\obj/../Libraries/wch_libraries/Peripheral/ch32v10x_adc.c:191
  }
}
     eec:	8082                	ret
F:\数据\嘉立创比赛\程序\IOT_tuya\obj/../Libraries/wch_libraries/Peripheral/ch32v10x_adc.c:189
    ADCx->CTLR2 &= CTLR2_ADON_Reset;
     eee:	9bf9                	andi	a5,a5,-2
     ef0:	bfed                	j	eea <ADC_Cmd+0x8>

00000ef2 <ADC_ResetCalibration>:
ADC_ResetCalibration():
F:\数据\嘉立创比赛\程序\IOT_tuya\obj/../Libraries/wch_libraries/Peripheral/ch32v10x_adc.c:250
*                    where x can be 1 to select the ADC peripheral.
* Return         : None
*******************************************************************************/
void ADC_ResetCalibration(ADC_TypeDef* ADCx)
{
  ADCx->CTLR2 |= CTLR2_RSTCAL_Set;
     ef2:	451c                	lw	a5,8(a0)
     ef4:	0087e793          	ori	a5,a5,8
     ef8:	c51c                	sw	a5,8(a0)
F:\数据\嘉立创比赛\程序\IOT_tuya\obj/../Libraries/wch_libraries/Peripheral/ch32v10x_adc.c:251
}
     efa:	8082                	ret

00000efc <ADC_GetResetCalibrationStatus>:
ADC_GetResetCalibrationStatus():
F:\数据\嘉立创比赛\程序\IOT_tuya\obj/../Libraries/wch_libraries/Peripheral/ch32v10x_adc.c:264
*******************************************************************************/
FlagStatus ADC_GetResetCalibrationStatus(ADC_TypeDef* ADCx)
{
  FlagStatus bitstatus = RESET;

  if ((ADCx->CTLR2 & CTLR2_RSTCAL_Set) != (uint32_t)RESET)
     efc:	4508                	lw	a0,8(a0)
     efe:	810d                	srli	a0,a0,0x3
F:\数据\嘉立创比赛\程序\IOT_tuya\obj/../Libraries/wch_libraries/Peripheral/ch32v10x_adc.c:274
  {
    bitstatus = RESET;
  }
	
  return  bitstatus;
}
     f00:	8905                	andi	a0,a0,1
     f02:	8082                	ret

00000f04 <ADC_StartCalibration>:
ADC_StartCalibration():
F:\数据\嘉立创比赛\程序\IOT_tuya\obj/../Libraries/wch_libraries/Peripheral/ch32v10x_adc.c:285
*                    where x can be 1 to select the ADC peripheral.
* Return         : None
*******************************************************************************/
void ADC_StartCalibration(ADC_TypeDef* ADCx)
{ 
  ADCx->CTLR2 |= CTLR2_CAL_Set;
     f04:	451c                	lw	a5,8(a0)
     f06:	0047e793          	ori	a5,a5,4
     f0a:	c51c                	sw	a5,8(a0)
F:\数据\嘉立创比赛\程序\IOT_tuya\obj/../Libraries/wch_libraries/Peripheral/ch32v10x_adc.c:286
}
     f0c:	8082                	ret

00000f0e <ADC_GetCalibrationStatus>:
ADC_GetCalibrationStatus():
F:\数据\嘉立创比赛\程序\IOT_tuya\obj/../Libraries/wch_libraries/Peripheral/ch32v10x_adc.c:299
*******************************************************************************/
FlagStatus ADC_GetCalibrationStatus(ADC_TypeDef* ADCx)
{
  FlagStatus bitstatus = RESET;

  if ((ADCx->CTLR2 & CTLR2_CAL_Set) != (uint32_t)RESET)
     f0e:	4508                	lw	a0,8(a0)
     f10:	8109                	srli	a0,a0,0x2
F:\数据\嘉立创比赛\程序\IOT_tuya\obj/../Libraries/wch_libraries/Peripheral/ch32v10x_adc.c:309
  {
    bitstatus = RESET;
  }

  return  bitstatus;
}
     f12:	8905                	andi	a0,a0,1
     f14:	8082                	ret

00000f16 <ADC_RegularChannelConfig>:
ADC_RegularChannelConfig():
F:\数据\嘉立创比赛\程序\IOT_tuya\obj/../Libraries/wch_libraries/Peripheral/ch32v10x_adc.c:440
*******************************************************************************/
void ADC_RegularChannelConfig(ADC_TypeDef* ADCx, uint8_t ADC_Channel, uint8_t Rank, uint8_t ADC_SampleTime)
{
  uint32_t tmpreg1 = 0, tmpreg2 = 0;

  if (ADC_Channel > ADC_Channel_9)
     f16:	47a5                	li	a5,9
     f18:	04b7f763          	bgeu	a5,a1,f66 <ADC_RegularChannelConfig+0x50>
F:\数据\嘉立创比赛\程序\IOT_tuya\obj/../Libraries/wch_libraries/Peripheral/ch32v10x_adc.c:443
  {
    tmpreg1 = ADCx->SAMPTR1;
    tmpreg2 = SAMPTR1_SMP_Set << (3 * (ADC_Channel - 10));
     f1c:	478d                	li	a5,3
     f1e:	ff658713          	addi	a4,a1,-10
     f22:	02f70733          	mul	a4,a4,a5
F:\数据\嘉立创比赛\程序\IOT_tuya\obj/../Libraries/wch_libraries/Peripheral/ch32v10x_adc.c:442
    tmpreg1 = ADCx->SAMPTR1;
     f26:	00c52803          	lw	a6,12(a0)
F:\数据\嘉立创比赛\程序\IOT_tuya\obj/../Libraries/wch_libraries/Peripheral/ch32v10x_adc.c:443
    tmpreg2 = SAMPTR1_SMP_Set << (3 * (ADC_Channel - 10));
     f2a:	479d                	li	a5,7
     f2c:	00e797b3          	sll	a5,a5,a4
F:\数据\嘉立创比赛\程序\IOT_tuya\obj/../Libraries/wch_libraries/Peripheral/ch32v10x_adc.c:444
    tmpreg1 &= ~tmpreg2;
     f30:	fff7c793          	not	a5,a5
     f34:	0107f7b3          	and	a5,a5,a6
F:\数据\嘉立创比赛\程序\IOT_tuya\obj/../Libraries/wch_libraries/Peripheral/ch32v10x_adc.c:445
    tmpreg2 = (uint32_t)ADC_SampleTime << (3 * (ADC_Channel - 10));
     f38:	00e696b3          	sll	a3,a3,a4
F:\数据\嘉立创比赛\程序\IOT_tuya\obj/../Libraries/wch_libraries/Peripheral/ch32v10x_adc.c:446
    tmpreg1 |= tmpreg2;
     f3c:	8edd                	or	a3,a3,a5
F:\数据\嘉立创比赛\程序\IOT_tuya\obj/../Libraries/wch_libraries/Peripheral/ch32v10x_adc.c:447
    ADCx->SAMPTR1 = tmpreg1;
     f3e:	c554                	sw	a3,12(a0)
F:\数据\嘉立创比赛\程序\IOT_tuya\obj/../Libraries/wch_libraries/Peripheral/ch32v10x_adc.c:459
    tmpreg2 = (uint32_t)ADC_SampleTime << (3 * ADC_Channel);
    tmpreg1 |= tmpreg2;
    ADCx->SAMPTR2 = tmpreg1;
  }

  if (Rank < 7)
     f40:	4799                	li	a5,6
     f42:	04c7e363          	bltu	a5,a2,f88 <ADC_RegularChannelConfig+0x72>
F:\数据\嘉立创比赛\程序\IOT_tuya\obj/../Libraries/wch_libraries/Peripheral/ch32v10x_adc.c:462
  {
    tmpreg1 = ADCx->RSQR3;
    tmpreg2 = RSQR3_SQ_Set << (5 * (Rank - 1));
     f46:	4795                	li	a5,5
     f48:	167d                	addi	a2,a2,-1
     f4a:	02f60633          	mul	a2,a2,a5
F:\数据\嘉立创比赛\程序\IOT_tuya\obj/../Libraries/wch_libraries/Peripheral/ch32v10x_adc.c:461
    tmpreg1 = ADCx->RSQR3;
     f4e:	5958                	lw	a4,52(a0)
F:\数据\嘉立创比赛\程序\IOT_tuya\obj/../Libraries/wch_libraries/Peripheral/ch32v10x_adc.c:462
    tmpreg2 = RSQR3_SQ_Set << (5 * (Rank - 1));
     f50:	47fd                	li	a5,31
     f52:	00c797b3          	sll	a5,a5,a2
F:\数据\嘉立创比赛\程序\IOT_tuya\obj/../Libraries/wch_libraries/Peripheral/ch32v10x_adc.c:463
    tmpreg1 &= ~tmpreg2;
     f56:	fff7c793          	not	a5,a5
     f5a:	8ff9                	and	a5,a5,a4
F:\数据\嘉立创比赛\程序\IOT_tuya\obj/../Libraries/wch_libraries/Peripheral/ch32v10x_adc.c:464
    tmpreg2 = (uint32_t)ADC_Channel << (5 * (Rank - 1));
     f5c:	00c59633          	sll	a2,a1,a2
F:\数据\嘉立创比赛\程序\IOT_tuya\obj/../Libraries/wch_libraries/Peripheral/ch32v10x_adc.c:465
    tmpreg1 |= tmpreg2;
     f60:	8e5d                	or	a2,a2,a5
F:\数据\嘉立创比赛\程序\IOT_tuya\obj/../Libraries/wch_libraries/Peripheral/ch32v10x_adc.c:466
    ADCx->RSQR3 = tmpreg1;
     f62:	d950                	sw	a2,52(a0)
     f64:	8082                	ret
F:\数据\嘉立创比赛\程序\IOT_tuya\obj/../Libraries/wch_libraries/Peripheral/ch32v10x_adc.c:452
    tmpreg2 = SAMPTR2_SMP_Set << (3 * ADC_Channel);
     f66:	470d                	li	a4,3
     f68:	02e58733          	mul	a4,a1,a4
F:\数据\嘉立创比赛\程序\IOT_tuya\obj/../Libraries/wch_libraries/Peripheral/ch32v10x_adc.c:451
    tmpreg1 = ADCx->SAMPTR2;
     f6c:	01052803          	lw	a6,16(a0)
F:\数据\嘉立创比赛\程序\IOT_tuya\obj/../Libraries/wch_libraries/Peripheral/ch32v10x_adc.c:452
    tmpreg2 = SAMPTR2_SMP_Set << (3 * ADC_Channel);
     f70:	479d                	li	a5,7
     f72:	00e797b3          	sll	a5,a5,a4
F:\数据\嘉立创比赛\程序\IOT_tuya\obj/../Libraries/wch_libraries/Peripheral/ch32v10x_adc.c:453
    tmpreg1 &= ~tmpreg2;
     f76:	fff7c793          	not	a5,a5
     f7a:	0107f7b3          	and	a5,a5,a6
F:\数据\嘉立创比赛\程序\IOT_tuya\obj/../Libraries/wch_libraries/Peripheral/ch32v10x_adc.c:454
    tmpreg2 = (uint32_t)ADC_SampleTime << (3 * ADC_Channel);
     f7e:	00e696b3          	sll	a3,a3,a4
F:\数据\嘉立创比赛\程序\IOT_tuya\obj/../Libraries/wch_libraries/Peripheral/ch32v10x_adc.c:455
    tmpreg1 |= tmpreg2;
     f82:	8edd                	or	a3,a3,a5
F:\数据\嘉立创比赛\程序\IOT_tuya\obj/../Libraries/wch_libraries/Peripheral/ch32v10x_adc.c:456
    ADCx->SAMPTR2 = tmpreg1;
     f84:	c914                	sw	a3,16(a0)
     f86:	bf6d                	j	f40 <ADC_RegularChannelConfig+0x2a>
F:\数据\嘉立创比赛\程序\IOT_tuya\obj/../Libraries/wch_libraries/Peripheral/ch32v10x_adc.c:468
  }
  else if (Rank < 13)
     f88:	47b1                	li	a5,12
     f8a:	02c7e263          	bltu	a5,a2,fae <ADC_RegularChannelConfig+0x98>
F:\数据\嘉立创比赛\程序\IOT_tuya\obj/../Libraries/wch_libraries/Peripheral/ch32v10x_adc.c:471
  {
    tmpreg1 = ADCx->RSQR2;
    tmpreg2 = RSQR2_SQ_Set << (5 * (Rank - 7));
     f8e:	4795                	li	a5,5
     f90:	1665                	addi	a2,a2,-7
     f92:	02f60633          	mul	a2,a2,a5
F:\数据\嘉立创比赛\程序\IOT_tuya\obj/../Libraries/wch_libraries/Peripheral/ch32v10x_adc.c:470
    tmpreg1 = ADCx->RSQR2;
     f96:	5918                	lw	a4,48(a0)
F:\数据\嘉立创比赛\程序\IOT_tuya\obj/../Libraries/wch_libraries/Peripheral/ch32v10x_adc.c:471
    tmpreg2 = RSQR2_SQ_Set << (5 * (Rank - 7));
     f98:	47fd                	li	a5,31
     f9a:	00c797b3          	sll	a5,a5,a2
F:\数据\嘉立创比赛\程序\IOT_tuya\obj/../Libraries/wch_libraries/Peripheral/ch32v10x_adc.c:472
    tmpreg1 &= ~tmpreg2;
     f9e:	fff7c793          	not	a5,a5
     fa2:	8ff9                	and	a5,a5,a4
F:\数据\嘉立创比赛\程序\IOT_tuya\obj/../Libraries/wch_libraries/Peripheral/ch32v10x_adc.c:473
    tmpreg2 = (uint32_t)ADC_Channel << (5 * (Rank - 7));
     fa4:	00c59633          	sll	a2,a1,a2
F:\数据\嘉立创比赛\程序\IOT_tuya\obj/../Libraries/wch_libraries/Peripheral/ch32v10x_adc.c:474
    tmpreg1 |= tmpreg2;
     fa8:	8e5d                	or	a2,a2,a5
F:\数据\嘉立创比赛\程序\IOT_tuya\obj/../Libraries/wch_libraries/Peripheral/ch32v10x_adc.c:475
    ADCx->RSQR2 = tmpreg1;
     faa:	d910                	sw	a2,48(a0)
     fac:	8082                	ret
F:\数据\嘉立创比赛\程序\IOT_tuya\obj/../Libraries/wch_libraries/Peripheral/ch32v10x_adc.c:480
  }
  else
  {
    tmpreg1 = ADCx->RSQR1;
    tmpreg2 = RSQR1_SQ_Set << (5 * (Rank - 13));
     fae:	4795                	li	a5,5
     fb0:	164d                	addi	a2,a2,-13
     fb2:	02f60633          	mul	a2,a2,a5
F:\数据\嘉立创比赛\程序\IOT_tuya\obj/../Libraries/wch_libraries/Peripheral/ch32v10x_adc.c:479
    tmpreg1 = ADCx->RSQR1;
     fb6:	5558                	lw	a4,44(a0)
F:\数据\嘉立创比赛\程序\IOT_tuya\obj/../Libraries/wch_libraries/Peripheral/ch32v10x_adc.c:480
    tmpreg2 = RSQR1_SQ_Set << (5 * (Rank - 13));
     fb8:	47fd                	li	a5,31
     fba:	00c797b3          	sll	a5,a5,a2
F:\数据\嘉立创比赛\程序\IOT_tuya\obj/../Libraries/wch_libraries/Peripheral/ch32v10x_adc.c:481
    tmpreg1 &= ~tmpreg2;
     fbe:	fff7c793          	not	a5,a5
     fc2:	8ff9                	and	a5,a5,a4
F:\数据\嘉立创比赛\程序\IOT_tuya\obj/../Libraries/wch_libraries/Peripheral/ch32v10x_adc.c:482
    tmpreg2 = (uint32_t)ADC_Channel << (5 * (Rank - 13));
     fc4:	00c595b3          	sll	a1,a1,a2
F:\数据\嘉立创比赛\程序\IOT_tuya\obj/../Libraries/wch_libraries/Peripheral/ch32v10x_adc.c:483
    tmpreg1 |= tmpreg2;
     fc8:	8ddd                	or	a1,a1,a5
F:\数据\嘉立创比赛\程序\IOT_tuya\obj/../Libraries/wch_libraries/Peripheral/ch32v10x_adc.c:484
    ADCx->RSQR1 = tmpreg1;
     fca:	d54c                	sw	a1,44(a0)
F:\数据\嘉立创比赛\程序\IOT_tuya\obj/../Libraries/wch_libraries/Peripheral/ch32v10x_adc.c:486
  }
}
     fcc:	8082                	ret

00000fce <DMA_GetFlagStatus>:
DMA_GetFlagStatus():
F:\数据\嘉立创比赛\程序\IOT_tuya\obj/../Libraries/wch_libraries/Peripheral/ch32v10x_dma.c:294
FlagStatus DMA_GetFlagStatus(uint32_t DMAy_FLAG)
{
  FlagStatus bitstatus = RESET;
  uint32_t tmpreg = 0;
  
  if ((DMAy_FLAG & FLAG_Mask) != (uint32_t)RESET)
     fce:	00351793          	slli	a5,a0,0x3
     fd2:	0007da63          	bgez	a5,fe6 <DMA_GetFlagStatus+0x18>
F:\数据\嘉立创比赛\程序\IOT_tuya\obj/../Libraries/wch_libraries/Peripheral/ch32v10x_dma.c:296
  {
    tmpreg = DMA2->INTFR ;
     fd6:	400207b7          	lui	a5,0x40020
     fda:	4007a783          	lw	a5,1024(a5) # 40020400 <_eusrstack+0x2001b400>
F:\数据\嘉立创比赛\程序\IOT_tuya\obj/../Libraries/wch_libraries/Peripheral/ch32v10x_dma.c:303
  else
  {
    tmpreg = DMA1->INTFR ;
  }

  if ((tmpreg & DMAy_FLAG) != (uint32_t)RESET)
     fde:	8d7d                	and	a0,a0,a5
F:\数据\嘉立创比赛\程序\IOT_tuya\obj/../Libraries/wch_libraries/Peripheral/ch32v10x_dma.c:313
  {
    bitstatus = RESET;
  }
  
  return  bitstatus;
}
     fe0:	00a03533          	snez	a0,a0
     fe4:	8082                	ret
F:\数据\嘉立创比赛\程序\IOT_tuya\obj/../Libraries/wch_libraries/Peripheral/ch32v10x_dma.c:300
    tmpreg = DMA1->INTFR ;
     fe6:	400207b7          	lui	a5,0x40020
     fea:	439c                	lw	a5,0(a5)
     fec:	bfcd                	j	fde <DMA_GetFlagStatus+0x10>

00000fee <DMA_ClearFlag>:
DMA_ClearFlag():
F:\数据\嘉立创比赛\程序\IOT_tuya\obj/../Libraries/wch_libraries/Peripheral/ch32v10x_dma.c:372
*                      DMA2_FLAG_TE5: DMA2 Channel5 transfer error flag.
* Return         : None 
*********************************************************************************/
void DMA_ClearFlag(uint32_t DMAy_FLAG)
{
  if ((DMAy_FLAG & FLAG_Mask) != (uint32_t)RESET)
     fee:	00351793          	slli	a5,a0,0x3
     ff2:	0007d763          	bgez	a5,1000 <DMA_ClearFlag+0x12>
F:\数据\嘉立创比赛\程序\IOT_tuya\obj/../Libraries/wch_libraries/Peripheral/ch32v10x_dma.c:374
  {
    DMA2->INTFCR = DMAy_FLAG;
     ff6:	400207b7          	lui	a5,0x40020
     ffa:	40a7a223          	sw	a0,1028(a5) # 40020404 <_eusrstack+0x2001b404>
     ffe:	8082                	ret
F:\数据\嘉立创比赛\程序\IOT_tuya\obj/../Libraries/wch_libraries/Peripheral/ch32v10x_dma.c:378
  }
  else
  {
    DMA1->INTFCR = DMAy_FLAG;
    1000:	400207b7          	lui	a5,0x40020
    1004:	c3c8                	sw	a0,4(a5)
F:\数据\嘉立创比赛\程序\IOT_tuya\obj/../Libraries/wch_libraries/Peripheral/ch32v10x_dma.c:380
  }
}
    1006:	8082                	ret

00001008 <EXTI_GetITStatus>:
EXTI_GetITStatus():
F:\数据\嘉立创比赛\程序\IOT_tuya\obj/../Libraries/wch_libraries/Peripheral/ch32v10x_exti.c:135
ITStatus EXTI_GetITStatus(uint32_t EXTI_Line)
{
  ITStatus bitstatus = RESET;
  uint32_t enablestatus = 0;
  
  enablestatus =  EXTI->INTENR & EXTI_Line;
    1008:	400107b7          	lui	a5,0x40010
    100c:	40078713          	addi	a4,a5,1024 # 40010400 <_eusrstack+0x2000b400>
    1010:	4007a783          	lw	a5,1024(a5)
F:\数据\嘉立创比赛\程序\IOT_tuya\obj/../Libraries/wch_libraries/Peripheral/ch32v10x_exti.c:136
  if (((EXTI->INTFR & EXTI_Line) != (uint32_t)RESET) && (enablestatus != (uint32_t)RESET))
    1014:	4b58                	lw	a4,20(a4)
    1016:	8f69                	and	a4,a4,a0
    1018:	c709                	beqz	a4,1022 <EXTI_GetITStatus+0x1a>
F:\数据\嘉立创比赛\程序\IOT_tuya\obj/../Libraries/wch_libraries/Peripheral/ch32v10x_exti.c:135 (discriminator 1)
  enablestatus =  EXTI->INTENR & EXTI_Line;
    101a:	8d7d                	and	a0,a0,a5
F:\数据\嘉立创比赛\程序\IOT_tuya\obj/../Libraries/wch_libraries/Peripheral/ch32v10x_exti.c:136 (discriminator 1)
  if (((EXTI->INTFR & EXTI_Line) != (uint32_t)RESET) && (enablestatus != (uint32_t)RESET))
    101c:	00a03533          	snez	a0,a0
    1020:	8082                	ret
F:\数据\嘉立创比赛\程序\IOT_tuya\obj/../Libraries/wch_libraries/Peripheral/ch32v10x_exti.c:142
  {
    bitstatus = SET;
  }
  else
  {
    bitstatus = RESET;
    1022:	4501                	li	a0,0
F:\数据\嘉立创比赛\程序\IOT_tuya\obj/../Libraries/wch_libraries/Peripheral/ch32v10x_exti.c:145
  }
  return bitstatus;
}
    1024:	8082                	ret

00001026 <EXTI_ClearITPendingBit>:
EXTI_ClearITPendingBit():
    1026:	400107b7          	lui	a5,0x40010
    102a:	40a7aa23          	sw	a0,1044(a5) # 40010414 <_eusrstack+0x2000b414>
    102e:	8082                	ret

00001030 <GPIO_Init>:
GPIO_Init():
F:\数据\嘉立创比赛\程序\IOT_tuya\obj/../Libraries/wch_libraries/Peripheral/ch32v10x_gpio.c:92
void GPIO_Init(GPIO_TypeDef* GPIOx, GPIO_InitTypeDef* GPIO_InitStruct)
{
  uint32_t currentmode = 0x00, currentpin = 0x00, pinpos = 0x00, pos = 0x00;
  uint32_t tmpreg = 0x00, pinmask = 0x00;

  currentmode = ((uint32_t)GPIO_InitStruct->GPIO_Mode) & ((uint32_t)0x0F);
    1030:	459c                	lw	a5,8(a1)
F:\数据\嘉立创比赛\程序\IOT_tuya\obj/../Libraries/wch_libraries/Peripheral/ch32v10x_gpio.c:94
	
  if ((((uint32_t)GPIO_InitStruct->GPIO_Mode) & ((uint32_t)0x10)) != 0x00)
    1032:	0107f713          	andi	a4,a5,16
F:\数据\嘉立创比赛\程序\IOT_tuya\obj/../Libraries/wch_libraries/Peripheral/ch32v10x_gpio.c:92
  currentmode = ((uint32_t)GPIO_InitStruct->GPIO_Mode) & ((uint32_t)0x0F);
    1036:	00f7f813          	andi	a6,a5,15
F:\数据\嘉立创比赛\程序\IOT_tuya\obj/../Libraries/wch_libraries/Peripheral/ch32v10x_gpio.c:94
  if ((((uint32_t)GPIO_InitStruct->GPIO_Mode) & ((uint32_t)0x10)) != 0x00)
    103a:	c701                	beqz	a4,1042 <GPIO_Init+0x12>
F:\数据\嘉立创比赛\程序\IOT_tuya\obj/../Libraries/wch_libraries/Peripheral/ch32v10x_gpio.c:96
  { 
    currentmode |= (uint32_t)GPIO_InitStruct->GPIO_Speed;
    103c:	41d8                	lw	a4,4(a1)
    103e:	00e86833          	or	a6,a6,a4
F:\数据\嘉立创比赛\程序\IOT_tuya\obj/../Libraries/wch_libraries/Peripheral/ch32v10x_gpio.c:99
  }

  if (((uint32_t)GPIO_InitStruct->GPIO_Pin & ((uint32_t)0x00FF)) != 0x00)
    1042:	0005d583          	lhu	a1,0(a1)
    1046:	0ff5f713          	andi	a4,a1,255
    104a:	c339                	beqz	a4,1090 <GPIO_Init+0x60>
F:\数据\嘉立创比赛\程序\IOT_tuya\obj/../Libraries/wch_libraries/Peripheral/ch32v10x_gpio.c:101
  {
    tmpreg = GPIOx->CFGLR;
    104c:	4118                	lw	a4,0(a0)
F:\数据\嘉立创比赛\程序\IOT_tuya\obj/../Libraries/wch_libraries/Peripheral/ch32v10x_gpio.c:103
		
    for (pinpos = 0x00; pinpos < 0x08; pinpos++)
    104e:	4681                	li	a3,0
F:\数据\嘉立创比赛\程序\IOT_tuya\obj/../Libraries/wch_libraries/Peripheral/ch32v10x_gpio.c:105
    {
      pos = ((uint32_t)0x01) << pinpos;
    1050:	4e85                	li	t4,1
F:\数据\嘉立创比赛\程序\IOT_tuya\obj/../Libraries/wch_libraries/Peripheral/ch32v10x_gpio.c:111
      currentpin = (GPIO_InitStruct->GPIO_Pin) & pos;
			
      if (currentpin == pos)
      {
        pos = pinpos << 2;
        pinmask = ((uint32_t)0x0F) << pos;
    1052:	4f3d                	li	t5,15
F:\数据\嘉立创比赛\程序\IOT_tuya\obj/../Libraries/wch_libraries/Peripheral/ch32v10x_gpio.c:115
        tmpreg &= ~pinmask;
        tmpreg |= (currentmode << pos);

        if (GPIO_InitStruct->GPIO_Mode == GPIO_Mode_IPD)
    1054:	02800f93          	li	t6,40
F:\数据\嘉立创比赛\程序\IOT_tuya\obj/../Libraries/wch_libraries/Peripheral/ch32v10x_gpio.c:121
        {
          GPIOx->BCR = (((uint32_t)0x01) << pinpos);
        }
        else
        {
          if (GPIO_InitStruct->GPIO_Mode == GPIO_Mode_IPU)
    1058:	04800293          	li	t0,72
F:\数据\嘉立创比赛\程序\IOT_tuya\obj/../Libraries/wch_libraries/Peripheral/ch32v10x_gpio.c:103
    for (pinpos = 0x00; pinpos < 0x08; pinpos++)
    105c:	4e21                	li	t3,8
F:\数据\嘉立创比赛\程序\IOT_tuya\obj/../Libraries/wch_libraries/Peripheral/ch32v10x_gpio.c:105
      pos = ((uint32_t)0x01) << pinpos;
    105e:	00de9633          	sll	a2,t4,a3
F:\数据\嘉立创比赛\程序\IOT_tuya\obj/../Libraries/wch_libraries/Peripheral/ch32v10x_gpio.c:106
      currentpin = (GPIO_InitStruct->GPIO_Pin) & pos;
    1062:	00c5f8b3          	and	a7,a1,a2
F:\数据\嘉立创比赛\程序\IOT_tuya\obj/../Libraries/wch_libraries/Peripheral/ch32v10x_gpio.c:108
      if (currentpin == pos)
    1066:	03161163          	bne	a2,a7,1088 <GPIO_Init+0x58>
F:\数据\嘉立创比赛\程序\IOT_tuya\obj/../Libraries/wch_libraries/Peripheral/ch32v10x_gpio.c:110
        pos = pinpos << 2;
    106a:	00269893          	slli	a7,a3,0x2
F:\数据\嘉立创比赛\程序\IOT_tuya\obj/../Libraries/wch_libraries/Peripheral/ch32v10x_gpio.c:111
        pinmask = ((uint32_t)0x0F) << pos;
    106e:	011f1333          	sll	t1,t5,a7
F:\数据\嘉立创比赛\程序\IOT_tuya\obj/../Libraries/wch_libraries/Peripheral/ch32v10x_gpio.c:112
        tmpreg &= ~pinmask;
    1072:	fff34313          	not	t1,t1
    1076:	00e37733          	and	a4,t1,a4
F:\数据\嘉立创比赛\程序\IOT_tuya\obj/../Libraries/wch_libraries/Peripheral/ch32v10x_gpio.c:113
        tmpreg |= (currentmode << pos);
    107a:	011818b3          	sll	a7,a6,a7
    107e:	00e8e733          	or	a4,a7,a4
F:\数据\嘉立创比赛\程序\IOT_tuya\obj/../Libraries/wch_libraries/Peripheral/ch32v10x_gpio.c:115
        if (GPIO_InitStruct->GPIO_Mode == GPIO_Mode_IPD)
    1082:	05f79f63          	bne	a5,t6,10e0 <GPIO_Init+0xb0>
F:\数据\嘉立创比赛\程序\IOT_tuya\obj/../Libraries/wch_libraries/Peripheral/ch32v10x_gpio.c:117
          GPIOx->BCR = (((uint32_t)0x01) << pinpos);
    1086:	c950                	sw	a2,20(a0)
F:\数据\嘉立创比赛\程序\IOT_tuya\obj/../Libraries/wch_libraries/Peripheral/ch32v10x_gpio.c:103 (discriminator 2)
    for (pinpos = 0x00; pinpos < 0x08; pinpos++)
    1088:	0685                	addi	a3,a3,1
    108a:	fdc69ae3          	bne	a3,t3,105e <GPIO_Init+0x2e>
F:\数据\嘉立创比赛\程序\IOT_tuya\obj/../Libraries/wch_libraries/Peripheral/ch32v10x_gpio.c:128
            GPIOx->BSHR = (((uint32_t)0x01) << pinpos);
          }
        }
      }
    }
    GPIOx->CFGLR = tmpreg;
    108e:	c118                	sw	a4,0(a0)
F:\数据\嘉立创比赛\程序\IOT_tuya\obj/../Libraries/wch_libraries/Peripheral/ch32v10x_gpio.c:131
  }

  if (GPIO_InitStruct->GPIO_Pin > 0x00FF)
    1090:	0ff00713          	li	a4,255
    1094:	04b77563          	bgeu	a4,a1,10de <GPIO_Init+0xae>
F:\数据\嘉立创比赛\程序\IOT_tuya\obj/../Libraries/wch_libraries/Peripheral/ch32v10x_gpio.c:133
  {
    tmpreg = GPIOx->CFGHR;
    1098:	4154                	lw	a3,4(a0)
    109a:	4621                	li	a2,8
F:\数据\嘉立创比赛\程序\IOT_tuya\obj/../Libraries/wch_libraries/Peripheral/ch32v10x_gpio.c:137
		
    for (pinpos = 0x00; pinpos < 0x08; pinpos++)
    {
      pos = (((uint32_t)0x01) << (pinpos + 0x08));
    109c:	4e85                	li	t4,1
F:\数据\嘉立创比赛\程序\IOT_tuya\obj/../Libraries/wch_libraries/Peripheral/ch32v10x_gpio.c:143
      currentpin = ((GPIO_InitStruct->GPIO_Pin) & pos);
			
      if (currentpin == pos)
      {
        pos = pinpos << 2;
        pinmask = ((uint32_t)0x0F) << pos;
    109e:	4f3d                	li	t5,15
F:\数据\嘉立创比赛\程序\IOT_tuya\obj/../Libraries/wch_libraries/Peripheral/ch32v10x_gpio.c:147
        tmpreg &= ~pinmask;
        tmpreg |= (currentmode << pos);

        if (GPIO_InitStruct->GPIO_Mode == GPIO_Mode_IPD)
    10a0:	02800f93          	li	t6,40
F:\数据\嘉立创比赛\程序\IOT_tuya\obj/../Libraries/wch_libraries/Peripheral/ch32v10x_gpio.c:152
        {
          GPIOx->BCR = (((uint32_t)0x01) << (pinpos + 0x08));
        }

        if (GPIO_InitStruct->GPIO_Mode == GPIO_Mode_IPU)
    10a4:	04800293          	li	t0,72
F:\数据\嘉立创比赛\程序\IOT_tuya\obj/../Libraries/wch_libraries/Peripheral/ch32v10x_gpio.c:135
    for (pinpos = 0x00; pinpos < 0x08; pinpos++)
    10a8:	4e41                	li	t3,16
F:\数据\嘉立创比赛\程序\IOT_tuya\obj/../Libraries/wch_libraries/Peripheral/ch32v10x_gpio.c:137
      pos = (((uint32_t)0x01) << (pinpos + 0x08));
    10aa:	00ce98b3          	sll	a7,t4,a2
F:\数据\嘉立创比赛\程序\IOT_tuya\obj/../Libraries/wch_libraries/Peripheral/ch32v10x_gpio.c:138
      currentpin = ((GPIO_InitStruct->GPIO_Pin) & pos);
    10ae:	0115f733          	and	a4,a1,a7
F:\数据\嘉立创比赛\程序\IOT_tuya\obj/../Libraries/wch_libraries/Peripheral/ch32v10x_gpio.c:140
      if (currentpin == pos)
    10b2:	02e89263          	bne	a7,a4,10d6 <GPIO_Init+0xa6>
F:\数据\嘉立创比赛\程序\IOT_tuya\obj/../Libraries/wch_libraries/Peripheral/ch32v10x_gpio.c:142
        pos = pinpos << 2;
    10b6:	00261713          	slli	a4,a2,0x2
    10ba:	1701                	addi	a4,a4,-32
F:\数据\嘉立创比赛\程序\IOT_tuya\obj/../Libraries/wch_libraries/Peripheral/ch32v10x_gpio.c:143
        pinmask = ((uint32_t)0x0F) << pos;
    10bc:	00ef1333          	sll	t1,t5,a4
F:\数据\嘉立创比赛\程序\IOT_tuya\obj/../Libraries/wch_libraries/Peripheral/ch32v10x_gpio.c:144
        tmpreg &= ~pinmask;
    10c0:	fff34313          	not	t1,t1
    10c4:	00d376b3          	and	a3,t1,a3
F:\数据\嘉立创比赛\程序\IOT_tuya\obj/../Libraries/wch_libraries/Peripheral/ch32v10x_gpio.c:145
        tmpreg |= (currentmode << pos);
    10c8:	00e81733          	sll	a4,a6,a4
    10cc:	8ed9                	or	a3,a3,a4
F:\数据\嘉立创比赛\程序\IOT_tuya\obj/../Libraries/wch_libraries/Peripheral/ch32v10x_gpio.c:147
        if (GPIO_InitStruct->GPIO_Mode == GPIO_Mode_IPD)
    10ce:	01f79d63          	bne	a5,t6,10e8 <GPIO_Init+0xb8>
F:\数据\嘉立创比赛\程序\IOT_tuya\obj/../Libraries/wch_libraries/Peripheral/ch32v10x_gpio.c:149
          GPIOx->BCR = (((uint32_t)0x01) << (pinpos + 0x08));
    10d2:	01152a23          	sw	a7,20(a0)
F:\数据\嘉立创比赛\程序\IOT_tuya\obj/../Libraries/wch_libraries/Peripheral/ch32v10x_gpio.c:152
        if (GPIO_InitStruct->GPIO_Mode == GPIO_Mode_IPU)
    10d6:	0605                	addi	a2,a2,1
F:\数据\嘉立创比赛\程序\IOT_tuya\obj/../Libraries/wch_libraries/Peripheral/ch32v10x_gpio.c:135 (discriminator 2)
    for (pinpos = 0x00; pinpos < 0x08; pinpos++)
    10d8:	fdc619e3          	bne	a2,t3,10aa <GPIO_Init+0x7a>
F:\数据\嘉立创比赛\程序\IOT_tuya\obj/../Libraries/wch_libraries/Peripheral/ch32v10x_gpio.c:158
        {
          GPIOx->BSHR = (((uint32_t)0x01) << (pinpos + 0x08));
        }
      }
    }
    GPIOx->CFGHR = tmpreg;
    10dc:	c154                	sw	a3,4(a0)
F:\数据\嘉立创比赛\程序\IOT_tuya\obj/../Libraries/wch_libraries/Peripheral/ch32v10x_gpio.c:160
  }
}
    10de:	8082                	ret
F:\数据\嘉立创比赛\程序\IOT_tuya\obj/../Libraries/wch_libraries/Peripheral/ch32v10x_gpio.c:121
          if (GPIO_InitStruct->GPIO_Mode == GPIO_Mode_IPU)
    10e0:	fa5794e3          	bne	a5,t0,1088 <GPIO_Init+0x58>
F:\数据\嘉立创比赛\程序\IOT_tuya\obj/../Libraries/wch_libraries/Peripheral/ch32v10x_gpio.c:123
            GPIOx->BSHR = (((uint32_t)0x01) << pinpos);
    10e4:	c910                	sw	a2,16(a0)
    10e6:	b74d                	j	1088 <GPIO_Init+0x58>
F:\数据\嘉立创比赛\程序\IOT_tuya\obj/../Libraries/wch_libraries/Peripheral/ch32v10x_gpio.c:152
        if (GPIO_InitStruct->GPIO_Mode == GPIO_Mode_IPU)
    10e8:	fe5797e3          	bne	a5,t0,10d6 <GPIO_Init+0xa6>
F:\数据\嘉立创比赛\程序\IOT_tuya\obj/../Libraries/wch_libraries/Peripheral/ch32v10x_gpio.c:154
          GPIOx->BSHR = (((uint32_t)0x01) << (pinpos + 0x08));
    10ec:	01152823          	sw	a7,16(a0)
    10f0:	b7dd                	j	10d6 <GPIO_Init+0xa6>

000010f2 <GPIO_WriteBit>:
GPIO_WriteBit():
F:\数据\嘉立创比赛\程序\IOT_tuya\obj/../Libraries/wch_libraries/Peripheral/ch32v10x_gpio.c:283
*                    Bit_SetH: to set the port pin.                  
* Return         : None
*******************************************************************************/
void GPIO_WriteBit(GPIO_TypeDef* GPIOx, uint16_t GPIO_Pin, BitAction BitVal)
{
  if (BitVal != Bit_RESET)
    10f2:	c219                	beqz	a2,10f8 <GPIO_WriteBit+0x6>
F:\数据\嘉立创比赛\程序\IOT_tuya\obj/../Libraries/wch_libraries/Peripheral/ch32v10x_gpio.c:285
  {
    GPIOx->BSHR = GPIO_Pin;
    10f4:	c90c                	sw	a1,16(a0)
    10f6:	8082                	ret
F:\数据\嘉立创比赛\程序\IOT_tuya\obj/../Libraries/wch_libraries/Peripheral/ch32v10x_gpio.c:289
  }
  else
  {
    GPIOx->BCR = GPIO_Pin;
    10f8:	c94c                	sw	a1,20(a0)
F:\数据\嘉立创比赛\程序\IOT_tuya\obj/../Libraries/wch_libraries/Peripheral/ch32v10x_gpio.c:291
  }
}
    10fa:	8082                	ret

000010fc <NVIC_Init>:
NVIC_Init():
F:\数据\嘉立创比赛\程序\IOT_tuya\obj/../Libraries/wch_libraries/Peripheral/ch32v10x_misc.c:45
*******************************************************************************************/
void NVIC_Init(NVIC_InitTypeDef* NVIC_InitStruct)
{
	uint8_t tmppre = 0;

	if(NVIC_Priority_Group == NVIC_PriorityGroup_0)
    10fc:	81418793          	addi	a5,gp,-2028 # 20000084 <NVIC_Priority_Group>
    1100:	4394                	lw	a3,0(a5)
    1102:	00054703          	lbu	a4,0(a0)
    1106:	e689                	bnez	a3,1110 <NVIC_Init+0x14>
F:\数据\嘉立创比赛\程序\IOT_tuya\obj/../Libraries/wch_libraries/Peripheral/ch32v10x_misc.c:47
	{
		NVIC_SetPriority( NVIC_InitStruct->NVIC_IRQChannel, NVIC_InitStruct->NVIC_IRQChannelSubPriority<<4);
    1108:	00254783          	lbu	a5,2(a0)
F:\数据\嘉立创比赛\程序\IOT_tuya\obj/../Libraries/wch_libraries/Peripheral/ch32v10x_misc.c:88
    	NVIC_SetPriority( NVIC_InitStruct->NVIC_IRQChannel, (1<<7)|(tmppre<<4));
    }
	}
	else if(NVIC_Priority_Group == NVIC_PriorityGroup_4)
	{
		NVIC_SetPriority( NVIC_InitStruct->NVIC_IRQChannel, NVIC_InitStruct->NVIC_IRQChannelPreemptionPriority<<4);
    110c:	0792                	slli	a5,a5,0x4
    110e:	a831                	j	112a <NVIC_Init+0x2e>
F:\数据\嘉立创比赛\程序\IOT_tuya\obj/../Libraries/wch_libraries/Peripheral/ch32v10x_misc.c:49
	else if(NVIC_Priority_Group == NVIC_PriorityGroup_1)
    1110:	4394                	lw	a3,0(a5)
    1112:	4605                	li	a2,1
    1114:	04c69163          	bne	a3,a2,1156 <NVIC_Init+0x5a>
F:\数据\嘉立创比赛\程序\IOT_tuya\obj/../Libraries/wch_libraries/Peripheral/ch32v10x_misc.c:51
    if(NVIC_InitStruct->NVIC_IRQChannelPreemptionPriority == 1)
    1118:	00254783          	lbu	a5,2(a0)
    111c:	00154603          	lbu	a2,1(a0)
    1120:	0792                	slli	a5,a5,0x4
    1122:	00d61463          	bne	a2,a3,112a <NVIC_Init+0x2e>
F:\数据\嘉立创比赛\程序\IOT_tuya\obj/../Libraries/wch_libraries/Peripheral/ch32v10x_misc.c:83
    	NVIC_SetPriority( NVIC_InitStruct->NVIC_IRQChannel, (1<<7)|(tmppre<<4));
    1126:	f807e793          	ori	a5,a5,-128
NVIC_SetPriority():
F:\数据\嘉立创比赛\程序\IOT_tuya\obj/../Libraries/wch_libraries/Core/core_riscv.h:209
*                            bit6-bit4: subpriority
* Return         : None
*******************************************************************************/
RV_STATIC_INLINE void NVIC_SetPriority(IRQn_Type IRQn, uint8_t priority)
{
  NVIC->IPRIOR[(uint32_t)(IRQn)] = priority;
    112a:	e000e6b7          	lui	a3,0xe000e
NVIC_Init():
F:\数据\嘉立创比赛\程序\IOT_tuya\obj/../Libraries/wch_libraries/Peripheral/ch32v10x_misc.c:88
		NVIC_SetPriority( NVIC_InitStruct->NVIC_IRQChannel, NVIC_InitStruct->NVIC_IRQChannelPreemptionPriority<<4);
    112e:	0ff7f793          	andi	a5,a5,255
NVIC_SetPriority():
F:\数据\嘉立创比赛\程序\IOT_tuya\obj/../Libraries/wch_libraries/Core/core_riscv.h:209
    1132:	96ba                	add	a3,a3,a4
    1134:	40f68023          	sb	a5,1024(a3) # e000e400 <_eusrstack+0xc0009400>
NVIC_Init():
F:\数据\嘉立创比赛\程序\IOT_tuya\obj/../Libraries/wch_libraries/Peripheral/ch32v10x_misc.c:91
	}

  if (NVIC_InitStruct->NVIC_IRQChannelCmd != DISABLE)
    1138:	4685                	li	a3,1
    113a:	00575793          	srli	a5,a4,0x5
    113e:	00e69733          	sll	a4,a3,a4
    1142:	4154                	lw	a3,4(a0)
    1144:	c6ad                	beqz	a3,11ae <NVIC_Init+0xb2>
NVIC_EnableIRQ():
F:\数据\嘉立创比赛\程序\IOT_tuya\obj/../Libraries/wch_libraries/Core/core_riscv.h:127
  NVIC->IENR[((uint32_t)(IRQn) >> 5)] = (1 << ((uint32_t)(IRQn) & 0x1F));
    1146:	04078793          	addi	a5,a5,64
NVIC_DisableIRQ():
F:\数据\嘉立创比赛\程序\IOT_tuya\obj/../Libraries/wch_libraries/Core/core_riscv.h:138
  NVIC->IRER[((uint32_t)(IRQn) >> 5)] = (1 << ((uint32_t)(IRQn) & 0x1F));
    114a:	078a                	slli	a5,a5,0x2
    114c:	e000e6b7          	lui	a3,0xe000e
    1150:	97b6                	add	a5,a5,a3
    1152:	c398                	sw	a4,0(a5)
NVIC_Init():
F:\数据\嘉立创比赛\程序\IOT_tuya\obj/../Libraries/wch_libraries/Peripheral/ch32v10x_misc.c:99
  }
  else
  {
  	NVIC_DisableIRQ(NVIC_InitStruct->NVIC_IRQChannel);
  }
}
    1154:	8082                	ret
F:\数据\嘉立创比赛\程序\IOT_tuya\obj/../Libraries/wch_libraries/Peripheral/ch32v10x_misc.c:60
	else if(NVIC_Priority_Group == NVIC_PriorityGroup_2)
    1156:	438c                	lw	a1,0(a5)
    1158:	4689                	li	a3,2
    115a:	02d59363          	bne	a1,a3,1180 <NVIC_Init+0x84>
F:\数据\嘉立创比赛\程序\IOT_tuya\obj/../Libraries/wch_libraries/Peripheral/ch32v10x_misc.c:62
    if(NVIC_InitStruct->NVIC_IRQChannelPreemptionPriority <= 1)
    115e:	00154683          	lbu	a3,1(a0)
    1162:	00254783          	lbu	a5,2(a0)
    1166:	00d66563          	bltu	a2,a3,1170 <NVIC_Init+0x74>
F:\数据\嘉立创比赛\程序\IOT_tuya\obj/../Libraries/wch_libraries/Peripheral/ch32v10x_misc.c:64
      tmppre = NVIC_InitStruct->NVIC_IRQChannelSubPriority + (4*NVIC_InitStruct->NVIC_IRQChannelPreemptionPriority);
    116a:	068a                	slli	a3,a3,0x2
F:\数据\嘉立创比赛\程序\IOT_tuya\obj/../Libraries/wch_libraries/Peripheral/ch32v10x_misc.c:77
      tmppre = NVIC_InitStruct->NVIC_IRQChannelSubPriority + (2*NVIC_InitStruct->NVIC_IRQChannelPreemptionPriority);
    116c:	97b6                	add	a5,a5,a3
    116e:	bf79                	j	110c <NVIC_Init+0x10>
F:\数据\嘉立创比赛\程序\IOT_tuya\obj/../Libraries/wch_libraries/Peripheral/ch32v10x_misc.c:69
      tmppre = NVIC_InitStruct->NVIC_IRQChannelSubPriority + (4*(NVIC_InitStruct->NVIC_IRQChannelPreemptionPriority-2));
    1170:	03e68693          	addi	a3,a3,62 # e000e03e <_eusrstack+0xc000903e>
    1174:	068a                	slli	a3,a3,0x2
F:\数据\嘉立创比赛\程序\IOT_tuya\obj/../Libraries/wch_libraries/Peripheral/ch32v10x_misc.c:82
      tmppre = NVIC_InitStruct->NVIC_IRQChannelSubPriority + (2*(NVIC_InitStruct->NVIC_IRQChannelPreemptionPriority-4));
    1176:	97b6                	add	a5,a5,a3
F:\数据\嘉立创比赛\程序\IOT_tuya\obj/../Libraries/wch_libraries/Peripheral/ch32v10x_misc.c:83
    	NVIC_SetPriority( NVIC_InitStruct->NVIC_IRQChannel, (1<<7)|(tmppre<<4));
    1178:	0ff7f793          	andi	a5,a5,255
    117c:	0792                	slli	a5,a5,0x4
    117e:	b765                	j	1126 <NVIC_Init+0x2a>
F:\数据\嘉立创比赛\程序\IOT_tuya\obj/../Libraries/wch_libraries/Peripheral/ch32v10x_misc.c:73
	else if(NVIC_Priority_Group == NVIC_PriorityGroup_3)
    1180:	4390                	lw	a2,0(a5)
    1182:	468d                	li	a3,3
    1184:	00d61e63          	bne	a2,a3,11a0 <NVIC_Init+0xa4>
F:\数据\嘉立创比赛\程序\IOT_tuya\obj/../Libraries/wch_libraries/Peripheral/ch32v10x_misc.c:75
    if(NVIC_InitStruct->NVIC_IRQChannelPreemptionPriority <= 3)
    1188:	00154683          	lbu	a3,1(a0)
    118c:	00254783          	lbu	a5,2(a0)
    1190:	00d66463          	bltu	a2,a3,1198 <NVIC_Init+0x9c>
F:\数据\嘉立创比赛\程序\IOT_tuya\obj/../Libraries/wch_libraries/Peripheral/ch32v10x_misc.c:77
      tmppre = NVIC_InitStruct->NVIC_IRQChannelSubPriority + (2*NVIC_InitStruct->NVIC_IRQChannelPreemptionPriority);
    1194:	0686                	slli	a3,a3,0x1
    1196:	bfd9                	j	116c <NVIC_Init+0x70>
F:\数据\嘉立创比赛\程序\IOT_tuya\obj/../Libraries/wch_libraries/Peripheral/ch32v10x_misc.c:82
      tmppre = NVIC_InitStruct->NVIC_IRQChannelSubPriority + (2*(NVIC_InitStruct->NVIC_IRQChannelPreemptionPriority-4));
    1198:	07c68693          	addi	a3,a3,124
    119c:	0686                	slli	a3,a3,0x1
    119e:	bfe1                	j	1176 <NVIC_Init+0x7a>
F:\数据\嘉立创比赛\程序\IOT_tuya\obj/../Libraries/wch_libraries/Peripheral/ch32v10x_misc.c:86
	else if(NVIC_Priority_Group == NVIC_PriorityGroup_4)
    11a0:	4394                	lw	a3,0(a5)
    11a2:	4791                	li	a5,4
    11a4:	f8f69ae3          	bne	a3,a5,1138 <NVIC_Init+0x3c>
F:\数据\嘉立创比赛\程序\IOT_tuya\obj/../Libraries/wch_libraries/Peripheral/ch32v10x_misc.c:88
		NVIC_SetPriority( NVIC_InitStruct->NVIC_IRQChannel, NVIC_InitStruct->NVIC_IRQChannelPreemptionPriority<<4);
    11a8:	00154783          	lbu	a5,1(a0)
    11ac:	b785                	j	110c <NVIC_Init+0x10>
NVIC_DisableIRQ():
F:\数据\嘉立创比赛\程序\IOT_tuya\obj/../Libraries/wch_libraries/Core/core_riscv.h:138
    11ae:	06078793          	addi	a5,a5,96
    11b2:	bf61                	j	114a <NVIC_Init+0x4e>

000011b4 <RCC_ADCCLKConfig>:
RCC_ADCCLKConfig():
F:\数据\嘉立创比赛\程序\IOT_tuya\obj/../Libraries/wch_libraries/Peripheral/ch32v10x_rcc.c:376
********************************************************************************/
void RCC_ADCCLKConfig(uint32_t RCC_PCLK2)
{
  uint32_t tmpreg = 0;

  tmpreg = RCC->CFGR0;
    11b4:	400216b7          	lui	a3,0x40021
    11b8:	42dc                	lw	a5,4(a3)
F:\数据\嘉立创比赛\程序\IOT_tuya\obj/../Libraries/wch_libraries/Peripheral/ch32v10x_rcc.c:377
  tmpreg &= CFGR0_ADCPRE_Reset_Mask;
    11ba:	7751                	lui	a4,0xffff4
    11bc:	177d                	addi	a4,a4,-1
    11be:	8ff9                	and	a5,a5,a4
F:\数据\嘉立创比赛\程序\IOT_tuya\obj/../Libraries/wch_libraries/Peripheral/ch32v10x_rcc.c:378
  tmpreg |= RCC_PCLK2;
    11c0:	8d5d                	or	a0,a0,a5
F:\数据\嘉立创比赛\程序\IOT_tuya\obj/../Libraries/wch_libraries/Peripheral/ch32v10x_rcc.c:379
  RCC->CFGR0 = tmpreg;
    11c2:	c2c8                	sw	a0,4(a3)
F:\数据\嘉立创比赛\程序\IOT_tuya\obj/../Libraries/wch_libraries/Peripheral/ch32v10x_rcc.c:380
}
    11c4:	8082                	ret

000011c6 <RCC_GetClocksFreq>:
RCC_GetClocksFreq():
F:\数据\嘉立创比赛\程序\IOT_tuya\obj/../Libraries/wch_libraries/Peripheral/ch32v10x_rcc.c:472
********************************************************************************/
void RCC_GetClocksFreq(RCC_ClocksTypeDef* RCC_Clocks)
{
  uint32_t tmp = 0, pllmull = 0, pllsource = 0, presc = 0;
  
  tmp = RCC->CFGR0 & CFGR0_SWS_Mask;
    11c6:	40021737          	lui	a4,0x40021
    11ca:	435c                	lw	a5,4(a4)
    11cc:	4691                	li	a3,4
    11ce:	8bb1                	andi	a5,a5,12
F:\数据\嘉立创比赛\程序\IOT_tuya\obj/../Libraries/wch_libraries/Peripheral/ch32v10x_rcc.c:474
  
  switch (tmp)
    11d0:	00d78563          	beq	a5,a3,11da <RCC_GetClocksFreq+0x14>
    11d4:	46a1                	li	a3,8
    11d6:	06d78863          	beq	a5,a3,1246 <RCC_GetClocksFreq+0x80>
F:\数据\嘉立创比赛\程序\IOT_tuya\obj/../Libraries/wch_libraries/Peripheral/ch32v10x_rcc.c:477
  {
    case 0x00: 
      RCC_Clocks->SYSCLK_Frequency = HSI_VALUE;
    11da:	007a17b7          	lui	a5,0x7a1
    11de:	20078793          	addi	a5,a5,512 # 7a1200 <_data_lma+0x79b574>
F:\数据\嘉立创比赛\程序\IOT_tuya\obj/../Libraries/wch_libraries/Peripheral/ch32v10x_rcc.c:501
        {
          RCC_Clocks->SYSCLK_Frequency = (HSE_VALUE >> 1) * pllmull;
        }
        else
        {
          RCC_Clocks->SYSCLK_Frequency = HSE_VALUE * pllmull;
    11e2:	c11c                	sw	a5,0(a0)
F:\数据\嘉立创比赛\程序\IOT_tuya\obj/../Libraries/wch_libraries/Peripheral/ch32v10x_rcc.c:511
    default:
      RCC_Clocks->SYSCLK_Frequency = HSI_VALUE;
      break;
  }

  tmp = RCC->CFGR0 & CFGR0_HPRE_Set_Mask;
    11e4:	40021637          	lui	a2,0x40021
    11e8:	425c                	lw	a5,4(a2)
F:\数据\嘉立创比赛\程序\IOT_tuya\obj/../Libraries/wch_libraries/Peripheral/ch32v10x_rcc.c:513
  tmp = tmp >> 4;
  presc = APBAHBPrescTable[tmp];
    11ea:	20000737          	lui	a4,0x20000
    11ee:	00070713          	mv	a4,a4
F:\数据\嘉立创比赛\程序\IOT_tuya\obj/../Libraries/wch_libraries/Peripheral/ch32v10x_rcc.c:512
  tmp = tmp >> 4;
    11f2:	8391                	srli	a5,a5,0x4
    11f4:	8bbd                	andi	a5,a5,15
F:\数据\嘉立创比赛\程序\IOT_tuya\obj/../Libraries/wch_libraries/Peripheral/ch32v10x_rcc.c:513
  presc = APBAHBPrescTable[tmp];
    11f6:	97ba                	add	a5,a5,a4
    11f8:	0007c683          	lbu	a3,0(a5)
F:\数据\嘉立创比赛\程序\IOT_tuya\obj/../Libraries/wch_libraries/Peripheral/ch32v10x_rcc.c:514
  RCC_Clocks->HCLK_Frequency = RCC_Clocks->SYSCLK_Frequency >> presc;
    11fc:	411c                	lw	a5,0(a0)
    11fe:	00d7d7b3          	srl	a5,a5,a3
    1202:	c15c                	sw	a5,4(a0)
F:\数据\嘉立创比赛\程序\IOT_tuya\obj/../Libraries/wch_libraries/Peripheral/ch32v10x_rcc.c:515
  tmp = RCC->CFGR0 & CFGR0_PPRE1_Set_Mask;
    1204:	4254                	lw	a3,4(a2)
F:\数据\嘉立创比赛\程序\IOT_tuya\obj/../Libraries/wch_libraries/Peripheral/ch32v10x_rcc.c:516
  tmp = tmp >> 8;
    1206:	82a1                	srli	a3,a3,0x8
    1208:	8a9d                	andi	a3,a3,7
F:\数据\嘉立创比赛\程序\IOT_tuya\obj/../Libraries/wch_libraries/Peripheral/ch32v10x_rcc.c:517
  presc = APBAHBPrescTable[tmp];
    120a:	96ba                	add	a3,a3,a4
    120c:	0006c683          	lbu	a3,0(a3) # 40021000 <_eusrstack+0x2001c000>
F:\数据\嘉立创比赛\程序\IOT_tuya\obj/../Libraries/wch_libraries/Peripheral/ch32v10x_rcc.c:518
  RCC_Clocks->PCLK1_Frequency = RCC_Clocks->HCLK_Frequency >> presc;
    1210:	00d7d6b3          	srl	a3,a5,a3
    1214:	c514                	sw	a3,8(a0)
F:\数据\嘉立创比赛\程序\IOT_tuya\obj/../Libraries/wch_libraries/Peripheral/ch32v10x_rcc.c:519
  tmp = RCC->CFGR0 & CFGR0_PPRE2_Set_Mask;
    1216:	4254                	lw	a3,4(a2)
F:\数据\嘉立创比赛\程序\IOT_tuya\obj/../Libraries/wch_libraries/Peripheral/ch32v10x_rcc.c:520
  tmp = tmp >> 11;
    1218:	82ad                	srli	a3,a3,0xb
    121a:	8a9d                	andi	a3,a3,7
F:\数据\嘉立创比赛\程序\IOT_tuya\obj/../Libraries/wch_libraries/Peripheral/ch32v10x_rcc.c:521
  presc = APBAHBPrescTable[tmp];
    121c:	9736                	add	a4,a4,a3
    121e:	00074703          	lbu	a4,0(a4) # 20000000 <_data_vma>
F:\数据\嘉立创比赛\程序\IOT_tuya\obj/../Libraries/wch_libraries/Peripheral/ch32v10x_rcc.c:522
  RCC_Clocks->PCLK2_Frequency = RCC_Clocks->HCLK_Frequency >> presc;
    1222:	00e7d7b3          	srl	a5,a5,a4
    1226:	c55c                	sw	a5,12(a0)
F:\数据\嘉立创比赛\程序\IOT_tuya\obj/../Libraries/wch_libraries/Peripheral/ch32v10x_rcc.c:523
  tmp = RCC->CFGR0 & CFGR0_ADCPRE_Set_Mask;
    1228:	4258                	lw	a4,4(a2)
F:\数据\嘉立创比赛\程序\IOT_tuya\obj/../Libraries/wch_libraries/Peripheral/ch32v10x_rcc.c:524
  tmp = tmp >> 14;
    122a:	8339                	srli	a4,a4,0xe
    122c:	00377693          	andi	a3,a4,3
F:\数据\嘉立创比赛\程序\IOT_tuya\obj/../Libraries/wch_libraries/Peripheral/ch32v10x_rcc.c:525
  presc = ADCPrescTable[tmp];
    1230:	20000737          	lui	a4,0x20000
    1234:	07070713          	addi	a4,a4,112 # 20000070 <ADCPrescTable>
    1238:	9736                	add	a4,a4,a3
    123a:	00074703          	lbu	a4,0(a4)
F:\数据\嘉立创比赛\程序\IOT_tuya\obj/../Libraries/wch_libraries/Peripheral/ch32v10x_rcc.c:526
  RCC_Clocks->ADCCLK_Frequency = RCC_Clocks->PCLK2_Frequency / presc;
    123e:	02e7d7b3          	divu	a5,a5,a4
    1242:	c91c                	sw	a5,16(a0)
F:\数据\嘉立创比赛\程序\IOT_tuya\obj/../Libraries/wch_libraries/Peripheral/ch32v10x_rcc.c:527
}
    1244:	8082                	ret
F:\数据\嘉立创比赛\程序\IOT_tuya\obj/../Libraries/wch_libraries/Peripheral/ch32v10x_rcc.c:485
      pllmull = RCC->CFGR0 & CFGR0_PLLMull_Mask;
    1246:	435c                	lw	a5,4(a4)
F:\数据\嘉立创比赛\程序\IOT_tuya\obj/../Libraries/wch_libraries/Peripheral/ch32v10x_rcc.c:486
      pllsource = RCC->CFGR0 & CFGR0_PLLSRC_Mask;    
    1248:	4354                	lw	a3,4(a4)
F:\数据\嘉立创比赛\程序\IOT_tuya\obj/../Libraries/wch_libraries/Peripheral/ch32v10x_rcc.c:487
      pllmull = ( pllmull >> 18) + 2;
    124a:	83c9                	srli	a5,a5,0x12
    124c:	8bbd                	andi	a5,a5,15
F:\数据\嘉立创比赛\程序\IOT_tuya\obj/../Libraries/wch_libraries/Peripheral/ch32v10x_rcc.c:489
      if (pllsource == 0x00)
    124e:	00f69613          	slli	a2,a3,0xf
F:\数据\嘉立创比赛\程序\IOT_tuya\obj/../Libraries/wch_libraries/Peripheral/ch32v10x_rcc.c:487
      pllmull = ( pllmull >> 18) + 2;
    1252:	0789                	addi	a5,a5,2
F:\数据\嘉立创比赛\程序\IOT_tuya\obj/../Libraries/wch_libraries/Peripheral/ch32v10x_rcc.c:489
      if (pllsource == 0x00)
    1254:	00064963          	bltz	a2,1266 <RCC_GetClocksFreq+0xa0>
F:\数据\嘉立创比赛\程序\IOT_tuya\obj/../Libraries/wch_libraries/Peripheral/ch32v10x_rcc.c:497
          RCC_Clocks->SYSCLK_Frequency = (HSE_VALUE >> 1) * pllmull;
    1258:	003d1737          	lui	a4,0x3d1
    125c:	90070713          	addi	a4,a4,-1792 # 3d0900 <_data_lma+0x3cac74>
F:\数据\嘉立创比赛\程序\IOT_tuya\obj/../Libraries/wch_libraries/Peripheral/ch32v10x_rcc.c:501
          RCC_Clocks->SYSCLK_Frequency = HSE_VALUE * pllmull;
    1260:	02e787b3          	mul	a5,a5,a4
    1264:	bfbd                	j	11e2 <RCC_GetClocksFreq+0x1c>
F:\数据\嘉立创比赛\程序\IOT_tuya\obj/../Libraries/wch_libraries/Peripheral/ch32v10x_rcc.c:495
        if ((RCC->CFGR0 & CFGR0_PLLXTPRE_Mask) != (uint32_t)RESET)
    1266:	4358                	lw	a4,4(a4)
    1268:	00e71693          	slli	a3,a4,0xe
    126c:	fe06c6e3          	bltz	a3,1258 <RCC_GetClocksFreq+0x92>
F:\数据\嘉立创比赛\程序\IOT_tuya\obj/../Libraries/wch_libraries/Peripheral/ch32v10x_rcc.c:501
          RCC_Clocks->SYSCLK_Frequency = HSE_VALUE * pllmull;
    1270:	007a1737          	lui	a4,0x7a1
    1274:	20070713          	addi	a4,a4,512 # 7a1200 <_data_lma+0x79b574>
    1278:	b7e5                	j	1260 <RCC_GetClocksFreq+0x9a>

0000127a <RCC_APB2PeriphClockCmd>:
RCC_APB2PeriphClockCmd():
F:\数据\嘉立创比赛\程序\IOT_tuya\obj/../Libraries/wch_libraries/Peripheral/ch32v10x_rcc.c:571
*                  NewState: ENABLE or DISABLE
* Return         : None
*******************************************************************************/	
void RCC_APB2PeriphClockCmd(uint32_t RCC_APB2Periph, FunctionalState NewState)
{
  if (NewState != DISABLE)
    127a:	c599                	beqz	a1,1288 <RCC_APB2PeriphClockCmd+0xe>
F:\数据\嘉立创比赛\程序\IOT_tuya\obj/../Libraries/wch_libraries/Peripheral/ch32v10x_rcc.c:573
  {
    RCC->APB2PCENR |= RCC_APB2Periph;
    127c:	40021737          	lui	a4,0x40021
    1280:	4f1c                	lw	a5,24(a4)
    1282:	8d5d                	or	a0,a0,a5
    1284:	cf08                	sw	a0,24(a4)
    1286:	8082                	ret
F:\数据\嘉立创比赛\程序\IOT_tuya\obj/../Libraries/wch_libraries/Peripheral/ch32v10x_rcc.c:577
  }
  else
  {
    RCC->APB2PCENR &= ~RCC_APB2Periph;
    1288:	400217b7          	lui	a5,0x40021
    128c:	4f98                	lw	a4,24(a5)
    128e:	fff54513          	not	a0,a0
    1292:	8d79                	and	a0,a0,a4
    1294:	cf88                	sw	a0,24(a5)
F:\数据\嘉立创比赛\程序\IOT_tuya\obj/../Libraries/wch_libraries/Peripheral/ch32v10x_rcc.c:579
  }
}
    1296:	8082                	ret

00001298 <RCC_APB1PeriphClockCmd>:
RCC_APB1PeriphClockCmd():
F:\数据\嘉立创比赛\程序\IOT_tuya\obj/../Libraries/wch_libraries/Peripheral/ch32v10x_rcc.c:604
*                  NewState: ENABLE or DISABLE.
* Return         : None
*******************************************************************************/	
void RCC_APB1PeriphClockCmd(uint32_t RCC_APB1Periph, FunctionalState NewState)
{
  if (NewState != DISABLE)
    1298:	c599                	beqz	a1,12a6 <RCC_APB1PeriphClockCmd+0xe>
F:\数据\嘉立创比赛\程序\IOT_tuya\obj/../Libraries/wch_libraries/Peripheral/ch32v10x_rcc.c:606
  {
    RCC->APB1PCENR |= RCC_APB1Periph;
    129a:	40021737          	lui	a4,0x40021
    129e:	4f5c                	lw	a5,28(a4)
    12a0:	8d5d                	or	a0,a0,a5
    12a2:	cf48                	sw	a0,28(a4)
    12a4:	8082                	ret
F:\数据\嘉立创比赛\程序\IOT_tuya\obj/../Libraries/wch_libraries/Peripheral/ch32v10x_rcc.c:610
  }
  else
  {
    RCC->APB1PCENR &= ~RCC_APB1Periph;
    12a6:	400217b7          	lui	a5,0x40021
    12aa:	4fd8                	lw	a4,28(a5)
    12ac:	fff54513          	not	a0,a0
    12b0:	8d79                	and	a0,a0,a4
    12b2:	cfc8                	sw	a0,28(a5)
F:\数据\嘉立创比赛\程序\IOT_tuya\obj/../Libraries/wch_libraries/Peripheral/ch32v10x_rcc.c:612
  }
}
    12b4:	8082                	ret

000012b6 <RCC_APB2PeriphResetCmd>:
RCC_APB2PeriphResetCmd():
F:\数据\嘉立创比赛\程序\IOT_tuya\obj/../Libraries/wch_libraries/Peripheral/ch32v10x_rcc.c:632
*                  NewState: ENABLE or DISABLE.
* Return         : None
*******************************************************************************/	
void RCC_APB2PeriphResetCmd(uint32_t RCC_APB2Periph, FunctionalState NewState)
{
  if (NewState != DISABLE)
    12b6:	c599                	beqz	a1,12c4 <RCC_APB2PeriphResetCmd+0xe>
F:\数据\嘉立创比赛\程序\IOT_tuya\obj/../Libraries/wch_libraries/Peripheral/ch32v10x_rcc.c:634
  {
    RCC->APB2PRSTR |= RCC_APB2Periph;
    12b8:	40021737          	lui	a4,0x40021
    12bc:	475c                	lw	a5,12(a4)
    12be:	8d5d                	or	a0,a0,a5
    12c0:	c748                	sw	a0,12(a4)
    12c2:	8082                	ret
F:\数据\嘉立创比赛\程序\IOT_tuya\obj/../Libraries/wch_libraries/Peripheral/ch32v10x_rcc.c:638
  }
  else
  {
    RCC->APB2PRSTR &= ~RCC_APB2Periph;
    12c4:	400217b7          	lui	a5,0x40021
    12c8:	47d8                	lw	a4,12(a5)
    12ca:	fff54513          	not	a0,a0
    12ce:	8d79                	and	a0,a0,a4
    12d0:	c7c8                	sw	a0,12(a5)
F:\数据\嘉立创比赛\程序\IOT_tuya\obj/../Libraries/wch_libraries/Peripheral/ch32v10x_rcc.c:640
  }
}
    12d2:	8082                	ret

000012d4 <TIM_GetITStatus>:
TIM_GetITStatus():
F:\数据\嘉立创比赛\程序\IOT_tuya\obj/../Libraries/wch_libraries/Peripheral/ch32v10x_tim.c:1857
ITStatus TIM_GetITStatus(TIM_TypeDef* TIMx, uint16_t TIM_IT)
{
  ITStatus bitstatus = RESET;  
  uint16_t itstatus = 0x0, itenable = 0x0;
   
  itstatus = TIMx->INTFR & TIM_IT;
    12d4:	01055783          	lhu	a5,16(a0)
F:\数据\嘉立创比赛\程序\IOT_tuya\obj/../Libraries/wch_libraries/Peripheral/ch32v10x_tim.c:1859
  
  itenable = TIMx->DMAINTENR & TIM_IT;
    12d8:	00c55503          	lhu	a0,12(a0)
F:\数据\嘉立创比赛\程序\IOT_tuya\obj/../Libraries/wch_libraries/Peripheral/ch32v10x_tim.c:1860
  if ((itstatus != (uint16_t)RESET) && (itenable != (uint16_t)RESET))
    12dc:	8fed                	and	a5,a5,a1
F:\数据\嘉立创比赛\程序\IOT_tuya\obj/../Libraries/wch_libraries/Peripheral/ch32v10x_tim.c:1859
  itenable = TIMx->DMAINTENR & TIM_IT;
    12de:	0542                	slli	a0,a0,0x10
    12e0:	8141                	srli	a0,a0,0x10
F:\数据\嘉立创比赛\程序\IOT_tuya\obj/../Libraries/wch_libraries/Peripheral/ch32v10x_tim.c:1860
  if ((itstatus != (uint16_t)RESET) && (itenable != (uint16_t)RESET))
    12e2:	c789                	beqz	a5,12ec <TIM_GetITStatus+0x18>
F:\数据\嘉立创比赛\程序\IOT_tuya\obj/../Libraries/wch_libraries/Peripheral/ch32v10x_tim.c:1860 (discriminator 1)
    12e4:	8d6d                	and	a0,a0,a1
    12e6:	00a03533          	snez	a0,a0
    12ea:	8082                	ret
F:\数据\嘉立创比赛\程序\IOT_tuya\obj/../Libraries/wch_libraries/Peripheral/ch32v10x_tim.c:1866
  {
    bitstatus = SET;
  }
  else
  {
    bitstatus = RESET;
    12ec:	4501                	li	a0,0
F:\数据\嘉立创比赛\程序\IOT_tuya\obj/../Libraries/wch_libraries/Peripheral/ch32v10x_tim.c:1870
  }
	
  return bitstatus;
}
    12ee:	8082                	ret

000012f0 <TIM_ClearITPendingBit>:
TIM_ClearITPendingBit():
    12f0:	fff5c593          	not	a1,a1
    12f4:	05c2                	slli	a1,a1,0x10
    12f6:	81c1                	srli	a1,a1,0x10
    12f8:	00b51823          	sh	a1,16(a0)
    12fc:	8082                	ret

000012fe <USART_Init>:
USART_Init():
F:\数据\嘉立创比赛\程序\IOT_tuya\obj/../Libraries/wch_libraries/Peripheral/ch32v10x_usart.c:117
  if (USART_InitStruct->USART_HardwareFlowControl != USART_HardwareFlowControl_None)
  {
  }

  usartxbase = (uint32_t)USARTx;
  tmpreg = USARTx->CTLR2;
    12fe:	01055683          	lhu	a3,16(a0)
    1302:	77f5                	lui	a5,0xffffd
    1304:	17fd                	addi	a5,a5,-1
    1306:	8ff5                	and	a5,a5,a3
    1308:	0065d683          	lhu	a3,6(a1)
F:\数据\嘉立创比赛\程序\IOT_tuya\obj/../Libraries/wch_libraries/Peripheral/ch32v10x_usart.c:105
{
    130c:	7139                	addi	sp,sp,-64
    130e:	dc22                	sw	s0,56(sp)
    1310:	de06                	sw	ra,60(sp)
    1312:	8fd5                	or	a5,a5,a3
F:\数据\嘉立创比赛\程序\IOT_tuya\obj/../Libraries/wch_libraries/Peripheral/ch32v10x_usart.c:112
  if (USART_InitStruct->USART_HardwareFlowControl != USART_HardwareFlowControl_None)
    1314:	00c5d703          	lhu	a4,12(a1)
F:\数据\嘉立创比赛\程序\IOT_tuya\obj/../Libraries/wch_libraries/Peripheral/ch32v10x_usart.c:121
  tmpreg &= CTLR2_STOP_CLEAR_Mask;
  tmpreg |= (uint32_t)USART_InitStruct->USART_StopBits;  
	
  USARTx->CTLR2 = (uint16_t)tmpreg;
    1318:	00f51823          	sh	a5,16(a0)
F:\数据\嘉立创比赛\程序\IOT_tuya\obj/../Libraries/wch_libraries/Peripheral/ch32v10x_usart.c:122
  tmpreg = USARTx->CTLR1;
    131c:	00c55683          	lhu	a3,12(a0)
F:\数据\嘉立创比赛\程序\IOT_tuya\obj/../Libraries/wch_libraries/Peripheral/ch32v10x_usart.c:124
  tmpreg &= CTLR1_CLEAR_Mask;
  tmpreg |= (uint32_t)USART_InitStruct->USART_WordLength | USART_InitStruct->USART_Parity |
    1320:	77fd                	lui	a5,0xfffff
    1322:	9f378793          	addi	a5,a5,-1549 # ffffe9f3 <_eusrstack+0xdfff99f3>
    1326:	8ff5                	and	a5,a5,a3
    1328:	0045d683          	lhu	a3,4(a1)
F:\数据\嘉立创比赛\程序\IOT_tuya\obj/../Libraries/wch_libraries/Peripheral/ch32v10x_usart.c:105
{
    132c:	842a                	mv	s0,a0
    132e:	c62e                	sw	a1,12(sp)
    1330:	8fd5                	or	a5,a5,a3
    1332:	0085d683          	lhu	a3,8(a1)
    1336:	8fd5                	or	a5,a5,a3
    1338:	00a5d683          	lhu	a3,10(a1)
    133c:	8fd5                	or	a5,a5,a3
F:\数据\嘉立创比赛\程序\IOT_tuya\obj/../Libraries/wch_libraries/Peripheral/ch32v10x_usart.c:126
            USART_InitStruct->USART_Mode;
  USARTx->CTLR1 = (uint16_t)tmpreg;
    133e:	00f51623          	sh	a5,12(a0)
F:\数据\嘉立创比赛\程序\IOT_tuya\obj/../Libraries/wch_libraries/Peripheral/ch32v10x_usart.c:128
 
  tmpreg = USARTx->CTLR3;
    1342:	01455783          	lhu	a5,20(a0)
    1346:	07c2                	slli	a5,a5,0x10
    1348:	83c1                	srli	a5,a5,0x10
F:\数据\嘉立创比赛\程序\IOT_tuya\obj/../Libraries/wch_libraries/Peripheral/ch32v10x_usart.c:130
  tmpreg &= CTLR3_CLEAR_Mask;
  tmpreg |= USART_InitStruct->USART_HardwareFlowControl;
    134a:	cff7f793          	andi	a5,a5,-769
    134e:	8fd9                	or	a5,a5,a4
F:\数据\嘉立创比赛\程序\IOT_tuya\obj/../Libraries/wch_libraries/Peripheral/ch32v10x_usart.c:131
  USARTx->CTLR3 = (uint16_t)tmpreg;
    1350:	00f51a23          	sh	a5,20(a0)
F:\数据\嘉立创比赛\程序\IOT_tuya\obj/../Libraries/wch_libraries/Peripheral/ch32v10x_usart.c:133

  RCC_GetClocksFreq(&RCC_ClocksStatus);
    1354:	0868                	addi	a0,sp,28
    1356:	3d85                	jal	11c6 <RCC_GetClocksFreq>
F:\数据\嘉立创比赛\程序\IOT_tuya\obj/../Libraries/wch_libraries/Peripheral/ch32v10x_usart.c:135
	
  if (usartxbase == USART1_BASE)
    1358:	400147b7          	lui	a5,0x40014
    135c:	80078793          	addi	a5,a5,-2048 # 40013800 <_eusrstack+0x2000e800>
    1360:	45b2                	lw	a1,12(sp)
    1362:	04f41e63          	bne	s0,a5,13be <USART_Init+0xc0>
F:\数据\嘉立创比赛\程序\IOT_tuya\obj/../Libraries/wch_libraries/Peripheral/ch32v10x_usart.c:137
  {
    apbclock = RCC_ClocksStatus.PCLK2_Frequency;
    1366:	57a2                	lw	a5,40(sp)
F:\数据\嘉立创比赛\程序\IOT_tuya\obj/../Libraries/wch_libraries/Peripheral/ch32v10x_usart.c:144
  else
  {
    apbclock = RCC_ClocksStatus.PCLK1_Frequency;
  }
  
  if ((USARTx->CTLR1 & CTLR1_OVER8_Set) != 0)
    1368:	00c45683          	lhu	a3,12(s0)
    136c:	4765                	li	a4,25
    136e:	02e787b3          	mul	a5,a5,a4
    1372:	06c2                	slli	a3,a3,0x10
    1374:	86c1                	srai	a3,a3,0x10
    1376:	4198                	lw	a4,0(a1)
    1378:	0406d563          	bgez	a3,13c2 <USART_Init+0xc4>
F:\数据\嘉立创比赛\程序\IOT_tuya\obj/../Libraries/wch_libraries/Peripheral/ch32v10x_usart.c:146
  {
    integerdivider = ((25 * apbclock) / (2 * (USART_InitStruct->USART_BaudRate)));    
    137c:	0706                	slli	a4,a4,0x1
F:\数据\嘉立创比赛\程序\IOT_tuya\obj/../Libraries/wch_libraries/Peripheral/ch32v10x_usart.c:156
  }
  tmpreg = (integerdivider / 100) << 4;

  fractionaldivider = integerdivider - (100 * (tmpreg >> 4));

  if ((USARTx->CTLR1 & CTLR1_OVER8_Set) != 0)
    137e:	00c45603          	lhu	a2,12(s0)
    1382:	0642                	slli	a2,a2,0x10
F:\数据\嘉立创比赛\程序\IOT_tuya\obj/../Libraries/wch_libraries/Peripheral/ch32v10x_usart.c:150
    integerdivider = ((25 * apbclock) / (4 * (USART_InitStruct->USART_BaudRate)));    
    1384:	02e7d7b3          	divu	a5,a5,a4
F:\数据\嘉立创比赛\程序\IOT_tuya\obj/../Libraries/wch_libraries/Peripheral/ch32v10x_usart.c:152
  tmpreg = (integerdivider / 100) << 4;
    1388:	06400713          	li	a4,100
F:\数据\嘉立创比赛\程序\IOT_tuya\obj/../Libraries/wch_libraries/Peripheral/ch32v10x_usart.c:156
  if ((USARTx->CTLR1 & CTLR1_OVER8_Set) != 0)
    138c:	8641                	srai	a2,a2,0x10
F:\数据\嘉立创比赛\程序\IOT_tuya\obj/../Libraries/wch_libraries/Peripheral/ch32v10x_usart.c:152
  tmpreg = (integerdivider / 100) << 4;
    138e:	02e7d6b3          	divu	a3,a5,a4
    1392:	02e7f7b3          	remu	a5,a5,a4
    1396:	0692                	slli	a3,a3,0x4
F:\数据\嘉立创比赛\程序\IOT_tuya\obj/../Libraries/wch_libraries/Peripheral/ch32v10x_usart.c:156
  if ((USARTx->CTLR1 & CTLR1_OVER8_Set) != 0)
    1398:	02065763          	bgez	a2,13c6 <USART_Init+0xc8>
F:\数据\嘉立创比赛\程序\IOT_tuya\obj/../Libraries/wch_libraries/Peripheral/ch32v10x_usart.c:158
  {
    tmpreg |= ((((fractionaldivider * 8) + 50) / 100)) & ((uint8_t)0x07);
    139c:	078e                	slli	a5,a5,0x3
    139e:	03278793          	addi	a5,a5,50
    13a2:	02e7d7b3          	divu	a5,a5,a4
    13a6:	0077f713          	andi	a4,a5,7
    13aa:	00d767b3          	or	a5,a4,a3
F:\数据\嘉立创比赛\程序\IOT_tuya\obj/../Libraries/wch_libraries/Peripheral/ch32v10x_usart.c:165
  else 
  {
    tmpreg |= ((((fractionaldivider * 16) + 50) / 100)) & ((uint8_t)0x0F);
  }
  
  USARTx->BRR = (uint16_t)tmpreg;
    13ae:	07c2                	slli	a5,a5,0x10
    13b0:	83c1                	srli	a5,a5,0x10
    13b2:	00f41423          	sh	a5,8(s0)
F:\数据\嘉立创比赛\程序\IOT_tuya\obj/../Libraries/wch_libraries/Peripheral/ch32v10x_usart.c:166
}
    13b6:	50f2                	lw	ra,60(sp)
    13b8:	5462                	lw	s0,56(sp)
    13ba:	6121                	addi	sp,sp,64
    13bc:	8082                	ret
F:\数据\嘉立创比赛\程序\IOT_tuya\obj/../Libraries/wch_libraries/Peripheral/ch32v10x_usart.c:141
    apbclock = RCC_ClocksStatus.PCLK1_Frequency;
    13be:	5792                	lw	a5,36(sp)
    13c0:	b765                	j	1368 <USART_Init+0x6a>
F:\数据\嘉立创比赛\程序\IOT_tuya\obj/../Libraries/wch_libraries/Peripheral/ch32v10x_usart.c:150
    integerdivider = ((25 * apbclock) / (4 * (USART_InitStruct->USART_BaudRate)));    
    13c2:	070a                	slli	a4,a4,0x2
    13c4:	bf6d                	j	137e <USART_Init+0x80>
F:\数据\嘉立创比赛\程序\IOT_tuya\obj/../Libraries/wch_libraries/Peripheral/ch32v10x_usart.c:162
    tmpreg |= ((((fractionaldivider * 16) + 50) / 100)) & ((uint8_t)0x0F);
    13c6:	0792                	slli	a5,a5,0x4
    13c8:	03278793          	addi	a5,a5,50
    13cc:	02e7d7b3          	divu	a5,a5,a4
    13d0:	8bbd                	andi	a5,a5,15
    13d2:	8fd5                	or	a5,a5,a3
    13d4:	bfe9                	j	13ae <USART_Init+0xb0>

000013d6 <USART_Cmd>:
USART_Cmd():
F:\数据\嘉立创比赛\程序\IOT_tuya\obj/../Libraries/wch_libraries/Peripheral/ch32v10x_usart.c:230
*                  NewState: ENABLE or DISABLE.
* Return         : None
*******************************************************************************/
void USART_Cmd(USART_TypeDef* USARTx, FunctionalState NewState)
{
  if (NewState != DISABLE)
    13d6:	c981                	beqz	a1,13e6 <USART_Cmd+0x10>
F:\数据\嘉立创比赛\程序\IOT_tuya\obj/../Libraries/wch_libraries/Peripheral/ch32v10x_usart.c:232
  {
    USARTx->CTLR1 |= CTLR1_UE_Set;
    13d8:	00c55783          	lhu	a5,12(a0)
    13dc:	6709                	lui	a4,0x2
    13de:	8fd9                	or	a5,a5,a4
F:\数据\嘉立创比赛\程序\IOT_tuya\obj/../Libraries/wch_libraries/Peripheral/ch32v10x_usart.c:236
  }
  else
  {
    USARTx->CTLR1 &= CTLR1_UE_Reset;
    13e0:	00f51623          	sh	a5,12(a0)
F:\数据\嘉立创比赛\程序\IOT_tuya\obj/../Libraries/wch_libraries/Peripheral/ch32v10x_usart.c:238
  }
}
    13e4:	8082                	ret
F:\数据\嘉立创比赛\程序\IOT_tuya\obj/../Libraries/wch_libraries/Peripheral/ch32v10x_usart.c:236
    USARTx->CTLR1 &= CTLR1_UE_Reset;
    13e6:	00c55703          	lhu	a4,12(a0)
    13ea:	77f9                	lui	a5,0xffffe
    13ec:	17fd                	addi	a5,a5,-1
    13ee:	8ff9                	and	a5,a5,a4
    13f0:	bfc5                	j	13e0 <USART_Cmd+0xa>

000013f2 <USART_ITConfig>:
USART_ITConfig():
F:\数据\嘉立创比赛\程序\IOT_tuya\obj/../Libraries/wch_libraries/Peripheral/ch32v10x_usart.c:266
  if (USART_IT == USART_IT_CTS)
  {
  }   
  
  usartxbase = (uint32_t)USARTx;
  usartreg = (((uint8_t)USART_IT) >> 0x05);
    13f2:	0ff5f713          	andi	a4,a1,255
F:\数据\嘉立创比赛\程序\IOT_tuya\obj/../Libraries/wch_libraries/Peripheral/ch32v10x_usart.c:268
  itpos = USART_IT & IT_Mask;
  itmask = (((uint32_t)0x01) << itpos);
    13f6:	4785                	li	a5,1
F:\数据\嘉立创比赛\程序\IOT_tuya\obj/../Libraries/wch_libraries/Peripheral/ch32v10x_usart.c:266
  usartreg = (((uint8_t)USART_IT) >> 0x05);
    13f8:	8315                	srli	a4,a4,0x5
F:\数据\嘉立创比赛\程序\IOT_tuya\obj/../Libraries/wch_libraries/Peripheral/ch32v10x_usart.c:268
  itmask = (((uint32_t)0x01) << itpos);
    13fa:	00b795b3          	sll	a1,a5,a1
F:\数据\嘉立创比赛\程序\IOT_tuya\obj/../Libraries/wch_libraries/Peripheral/ch32v10x_usart.c:270
    
  if (usartreg == 0x01) 
    13fe:	00f71963          	bne	a4,a5,1410 <USART_ITConfig+0x1e>
F:\数据\嘉立创比赛\程序\IOT_tuya\obj/../Libraries/wch_libraries/Peripheral/ch32v10x_usart.c:272
  {
    usartxbase += 0x0C;
    1402:	00c50793          	addi	a5,a0,12
F:\数据\嘉立创比赛\程序\IOT_tuya\obj/../Libraries/wch_libraries/Peripheral/ch32v10x_usart.c:285
    usartxbase += 0x14; 
  }
	
  if (NewState != DISABLE)
  {
    *(__IO uint32_t*)usartxbase  |= itmask;
    1406:	4398                	lw	a4,0(a5)
F:\数据\嘉立创比赛\程序\IOT_tuya\obj/../Libraries/wch_libraries/Peripheral/ch32v10x_usart.c:283
  if (NewState != DISABLE)
    1408:	ce01                	beqz	a2,1420 <USART_ITConfig+0x2e>
F:\数据\嘉立创比赛\程序\IOT_tuya\obj/../Libraries/wch_libraries/Peripheral/ch32v10x_usart.c:285
    *(__IO uint32_t*)usartxbase  |= itmask;
    140a:	8dd9                	or	a1,a1,a4
F:\数据\嘉立创比赛\程序\IOT_tuya\obj/../Libraries/wch_libraries/Peripheral/ch32v10x_usart.c:289
  }
  else
  {
    *(__IO uint32_t*)usartxbase &= ~itmask;
    140c:	c38c                	sw	a1,0(a5)
F:\数据\嘉立创比赛\程序\IOT_tuya\obj/../Libraries/wch_libraries/Peripheral/ch32v10x_usart.c:291
  }
}
    140e:	8082                	ret
F:\数据\嘉立创比赛\程序\IOT_tuya\obj/../Libraries/wch_libraries/Peripheral/ch32v10x_usart.c:274
  else if (usartreg == 0x02) 
    1410:	4689                	li	a3,2
F:\数据\嘉立创比赛\程序\IOT_tuya\obj/../Libraries/wch_libraries/Peripheral/ch32v10x_usart.c:280
    usartxbase += 0x14; 
    1412:	01450793          	addi	a5,a0,20
F:\数据\嘉立创比赛\程序\IOT_tuya\obj/../Libraries/wch_libraries/Peripheral/ch32v10x_usart.c:274
  else if (usartreg == 0x02) 
    1416:	fed718e3          	bne	a4,a3,1406 <USART_ITConfig+0x14>
F:\数据\嘉立创比赛\程序\IOT_tuya\obj/../Libraries/wch_libraries/Peripheral/ch32v10x_usart.c:276
    usartxbase += 0x10;
    141a:	01050793          	addi	a5,a0,16
    141e:	b7e5                	j	1406 <USART_ITConfig+0x14>
F:\数据\嘉立创比赛\程序\IOT_tuya\obj/../Libraries/wch_libraries/Peripheral/ch32v10x_usart.c:289
    *(__IO uint32_t*)usartxbase &= ~itmask;
    1420:	fff5c593          	not	a1,a1
    1424:	8df9                	and	a1,a1,a4
    1426:	b7dd                	j	140c <USART_ITConfig+0x1a>

00001428 <USART_SendData>:
USART_SendData():
F:\数据\嘉立创比赛\程序\IOT_tuya\obj/../Libraries/wch_libraries/Peripheral/ch32v10x_usart.c:405
*                  Data: the data to transmit..
* Return         : None
*******************************************************************************/
void USART_SendData(USART_TypeDef* USARTx, uint16_t Data)
{
  USARTx->DATAR = (Data & (uint16_t)0x01FF);
    1428:	1ff5f593          	andi	a1,a1,511
    142c:	00b51223          	sh	a1,4(a0)
F:\数据\嘉立创比赛\程序\IOT_tuya\obj/../Libraries/wch_libraries/Peripheral/ch32v10x_usart.c:406
}
    1430:	8082                	ret

00001432 <USART_ReceiveData>:
USART_ReceiveData():
F:\数据\嘉立创比赛\程序\IOT_tuya\obj/../Libraries/wch_libraries/Peripheral/ch32v10x_usart.c:416
* Input          : USARTx: where x can be 1, 2, 3 to select the USART peripheral.
* Return         : The received data.
*******************************************************************************/
uint16_t USART_ReceiveData(USART_TypeDef* USARTx)
{
  return (uint16_t)(USARTx->DATAR & (uint16_t)0x01FF);
    1432:	00455503          	lhu	a0,4(a0)
F:\数据\嘉立创比赛\程序\IOT_tuya\obj/../Libraries/wch_libraries/Peripheral/ch32v10x_usart.c:417
}
    1436:	1ff57513          	andi	a0,a0,511
    143a:	8082                	ret

0000143c <USART_GetFlagStatus>:
USART_GetFlagStatus():
F:\数据\嘉立创比赛\程序\IOT_tuya\obj/../Libraries/wch_libraries/Peripheral/ch32v10x_usart.c:610

  if (USART_FLAG == USART_FLAG_CTS)
  {
  }  
  
  if ((USARTx->STATR & USART_FLAG) != (uint16_t)RESET)
    143c:	00055503          	lhu	a0,0(a0)
    1440:	8d6d                	and	a0,a0,a1
F:\数据\嘉立创比赛\程序\IOT_tuya\obj/../Libraries/wch_libraries/Peripheral/ch32v10x_usart.c:619
  else
  {
    bitstatus = RESET;
  }
  return bitstatus;
}
    1442:	00a03533          	snez	a0,a0
    1446:	8082                	ret

00001448 <USART_GetITStatus>:
USART_GetITStatus():
F:\数据\嘉立创比赛\程序\IOT_tuya\obj/../Libraries/wch_libraries/Peripheral/ch32v10x_usart.c:668

  if (USART_IT == USART_IT_CTS)
  {
  }   
  
  usartreg = (((uint8_t)USART_IT) >> 0x05);
    1448:	0ff5f713          	andi	a4,a1,255
F:\数据\嘉立创比赛\程序\IOT_tuya\obj/../Libraries/wch_libraries/Peripheral/ch32v10x_usart.c:670
  itmask = USART_IT & IT_Mask;
  itmask = (uint32_t)0x01 << itmask;
    144c:	4685                	li	a3,1
F:\数据\嘉立创比赛\程序\IOT_tuya\obj/../Libraries/wch_libraries/Peripheral/ch32v10x_usart.c:668
  usartreg = (((uint8_t)USART_IT) >> 0x05);
    144e:	8315                	srli	a4,a4,0x5
F:\数据\嘉立创比赛\程序\IOT_tuya\obj/../Libraries/wch_libraries/Peripheral/ch32v10x_usart.c:670
  itmask = (uint32_t)0x01 << itmask;
    1450:	00b697b3          	sll	a5,a3,a1
F:\数据\嘉立创比赛\程序\IOT_tuya\obj/../Libraries/wch_libraries/Peripheral/ch32v10x_usart.c:672
  
  if (usartreg == 0x01) 
    1454:	02d71363          	bne	a4,a3,147a <USART_GetITStatus+0x32>
F:\数据\嘉立创比赛\程序\IOT_tuya\obj/../Libraries/wch_libraries/Peripheral/ch32v10x_usart.c:674
  {
    itmask &= USARTx->CTLR1;
    1458:	00c55703          	lhu	a4,12(a0)
F:\数据\嘉立创比赛\程序\IOT_tuya\obj/../Libraries/wch_libraries/Peripheral/ch32v10x_usart.c:682
  {
    itmask &= USARTx->CTLR2;
  }
  else 
  {
    itmask &= USARTx->CTLR3;
    145c:	8ff9                	and	a5,a5,a4
F:\数据\嘉立创比赛\程序\IOT_tuya\obj/../Libraries/wch_libraries/Peripheral/ch32v10x_usart.c:687
  }
  
  bitpos = USART_IT >> 0x08;
  bitpos = (uint32_t)0x01 << bitpos;
  bitpos &= USARTx->STATR;
    145e:	00055703          	lhu	a4,0(a0)
F:\数据\嘉立创比赛\程序\IOT_tuya\obj/../Libraries/wch_libraries/Peripheral/ch32v10x_usart.c:695
  {
    bitstatus = SET;
  }
  else
  {
    bitstatus = RESET;
    1462:	4501                	li	a0,0
F:\数据\嘉立创比赛\程序\IOT_tuya\obj/../Libraries/wch_libraries/Peripheral/ch32v10x_usart.c:687
  bitpos &= USARTx->STATR;
    1464:	0742                	slli	a4,a4,0x10
    1466:	8341                	srli	a4,a4,0x10
F:\数据\嘉立创比赛\程序\IOT_tuya\obj/../Libraries/wch_libraries/Peripheral/ch32v10x_usart.c:689
  if ((itmask != (uint16_t)RESET)&&(bitpos != (uint16_t)RESET))
    1468:	cb81                	beqz	a5,1478 <USART_GetITStatus+0x30>
F:\数据\嘉立创比赛\程序\IOT_tuya\obj/../Libraries/wch_libraries/Peripheral/ch32v10x_usart.c:686 (discriminator 1)
  bitpos = (uint32_t)0x01 << bitpos;
    146a:	4505                	li	a0,1
F:\数据\嘉立创比赛\程序\IOT_tuya\obj/../Libraries/wch_libraries/Peripheral/ch32v10x_usart.c:685 (discriminator 1)
  bitpos = USART_IT >> 0x08;
    146c:	81a1                	srli	a1,a1,0x8
F:\数据\嘉立创比赛\程序\IOT_tuya\obj/../Libraries/wch_libraries/Peripheral/ch32v10x_usart.c:686 (discriminator 1)
  bitpos = (uint32_t)0x01 << bitpos;
    146e:	00b515b3          	sll	a1,a0,a1
F:\数据\嘉立创比赛\程序\IOT_tuya\obj/../Libraries/wch_libraries/Peripheral/ch32v10x_usart.c:687 (discriminator 1)
  bitpos &= USARTx->STATR;
    1472:	8f6d                	and	a4,a4,a1
F:\数据\嘉立创比赛\程序\IOT_tuya\obj/../Libraries/wch_libraries/Peripheral/ch32v10x_usart.c:689 (discriminator 1)
  if ((itmask != (uint16_t)RESET)&&(bitpos != (uint16_t)RESET))
    1474:	00e03533          	snez	a0,a4
F:\数据\嘉立创比赛\程序\IOT_tuya\obj/../Libraries/wch_libraries/Peripheral/ch32v10x_usart.c:699
  }
  
  return bitstatus;  
}
    1478:	8082                	ret
F:\数据\嘉立创比赛\程序\IOT_tuya\obj/../Libraries/wch_libraries/Peripheral/ch32v10x_usart.c:676
  else if (usartreg == 0x02) 
    147a:	4689                	li	a3,2
    147c:	00d71563          	bne	a4,a3,1486 <USART_GetITStatus+0x3e>
F:\数据\嘉立创比赛\程序\IOT_tuya\obj/../Libraries/wch_libraries/Peripheral/ch32v10x_usart.c:678
    itmask &= USARTx->CTLR2;
    1480:	01055703          	lhu	a4,16(a0)
    1484:	bfe1                	j	145c <USART_GetITStatus+0x14>
F:\数据\嘉立创比赛\程序\IOT_tuya\obj/../Libraries/wch_libraries/Peripheral/ch32v10x_usart.c:682
    itmask &= USARTx->CTLR3;
    1486:	01455703          	lhu	a4,20(a0)
    148a:	bfc9                	j	145c <USART_GetITStatus+0x14>

0000148c <USART_ClearITPendingBit>:
USART_ClearITPendingBit():
F:\数据\嘉立创比赛\程序\IOT_tuya\obj/../Libraries/wch_libraries/Peripheral/ch32v10x_usart.c:721
  if (USART_IT == USART_IT_CTS)
  {
  }   
  
  bitpos = USART_IT >> 0x08;
  itmask = ((uint16_t)0x01 << (uint16_t)bitpos);
    148c:	81a1                	srli	a1,a1,0x8
    148e:	4785                	li	a5,1
    1490:	00b797b3          	sll	a5,a5,a1
F:\数据\嘉立创比赛\程序\IOT_tuya\obj/../Libraries/wch_libraries/Peripheral/ch32v10x_usart.c:722
  USARTx->STATR = (uint16_t)~itmask;
    1494:	fff7c793          	not	a5,a5
    1498:	07c2                	slli	a5,a5,0x10
    149a:	83c1                	srli	a5,a5,0x10
    149c:	00f51023          	sh	a5,0(a0)
F:\数据\嘉立创比赛\程序\IOT_tuya\obj/../Libraries/wch_libraries/Peripheral/ch32v10x_usart.c:723
}
    14a0:	8082                	ret

000014a2 <simiic_init>:
simiic_init():
F:\数据\嘉立创比赛\程序\IOT_tuya\obj/../Libraries/seekfree_peripheral/SEEKFREE_IIC.c:277
//  @return     void
//  @since      v1.0
//  Sample usage:
//-------------------------------------------------------------------------------------------------------------------
void simiic_init(void)
{
    14a2:	1141                	addi	sp,sp,-16
F:\数据\嘉立创比赛\程序\IOT_tuya\obj/../Libraries/seekfree_peripheral/SEEKFREE_IIC.c:278
    gpio_init (SEEKFREE_SCL, GPO, 1, SPEED_50MHZ | OUT_OD);
    14a4:	31400693          	li	a3,788
    14a8:	4605                	li	a2,1
    14aa:	4585                	li	a1,1
    14ac:	02f00513          	li	a0,47
F:\数据\嘉立创比赛\程序\IOT_tuya\obj/../Libraries/seekfree_peripheral/SEEKFREE_IIC.c:277
{
    14b0:	c606                	sw	ra,12(sp)
F:\数据\嘉立创比赛\程序\IOT_tuya\obj/../Libraries/seekfree_peripheral/SEEKFREE_IIC.c:278
    gpio_init (SEEKFREE_SCL, GPO, 1, SPEED_50MHZ | OUT_OD);
    14b2:	24d000ef          	jal	ra,1efe <gpio_init>
F:\数据\嘉立创比赛\程序\IOT_tuya\obj/../Libraries/seekfree_peripheral/SEEKFREE_IIC.c:280
    gpio_init (SEEKFREE_SDA, GPO, 1, SPEED_50MHZ | OUT_OD);
}
    14b6:	40b2                	lw	ra,12(sp)
F:\数据\嘉立创比赛\程序\IOT_tuya\obj/../Libraries/seekfree_peripheral/SEEKFREE_IIC.c:279
    gpio_init (SEEKFREE_SDA, GPO, 1, SPEED_50MHZ | OUT_OD);
    14b8:	31400693          	li	a3,788
    14bc:	4605                	li	a2,1
    14be:	4585                	li	a1,1
    14c0:	02d00513          	li	a0,45
F:\数据\嘉立创比赛\程序\IOT_tuya\obj/../Libraries/seekfree_peripheral/SEEKFREE_IIC.c:280
}
    14c4:	0141                	addi	sp,sp,16
F:\数据\嘉立创比赛\程序\IOT_tuya\obj/../Libraries/seekfree_peripheral/SEEKFREE_IIC.c:279
    gpio_init (SEEKFREE_SDA, GPO, 1, SPEED_50MHZ | OUT_OD);
    14c6:	2390006f          	j	1efe <gpio_init>

000014ca <mt9v03x_uart_callback>:
mt9v03x_uart_callback():
F:\数据\嘉立创比赛\程序\IOT_tuya\obj/../Libraries/seekfree_peripheral/SEEKFREE_MT9V03X.c:92
//  Sample usage:
//  @note       
//-------------------------------------------------------------------------------------------------------------------
void mt9v03x_uart_callback(void)
{
    receive[receive_num] = ((USART_TypeDef*)UARTN[MT9V03X_COF_UART])->DATAR & 0x01FF;;
    14ca:	6799                	lui	a5,0x6
    14cc:	9947a783          	lw	a5,-1644(a5) # 5994 <UARTN+0x4>
    14d0:	81918713          	addi	a4,gp,-2023 # 20000089 <receive_num>
    14d4:	0047d583          	lhu	a1,4(a5)
    14d8:	00074783          	lbu	a5,0(a4) # 2000 <gpio_get>
    14dc:	20002637          	lui	a2,0x20002
    14e0:	60060693          	addi	a3,a2,1536 # 20002600 <receive>
    14e4:	96be                	add	a3,a3,a5
F:\数据\嘉立创比赛\程序\IOT_tuya\obj/../Libraries/seekfree_peripheral/SEEKFREE_MT9V03X.c:93
    receive_num++;
    14e6:	0785                	addi	a5,a5,1
    14e8:	0ff7f793          	andi	a5,a5,255
F:\数据\嘉立创比赛\程序\IOT_tuya\obj/../Libraries/seekfree_peripheral/SEEKFREE_MT9V03X.c:92
    receive[receive_num] = ((USART_TypeDef*)UARTN[MT9V03X_COF_UART])->DATAR & 0x01FF;;
    14ec:	00b68023          	sb	a1,0(a3)
F:\数据\嘉立创比赛\程序\IOT_tuya\obj/../Libraries/seekfree_peripheral/SEEKFREE_MT9V03X.c:93
    receive_num++;
    14f0:	00f70023          	sb	a5,0(a4)
F:\数据\嘉立创比赛\程序\IOT_tuya\obj/../Libraries/seekfree_peripheral/SEEKFREE_MT9V03X.c:95

    if(1==receive_num && 0XA5!=receive[0])  receive_num = 0;
    14f4:	4685                	li	a3,1
    14f6:	00d79b63          	bne	a5,a3,150c <mt9v03x_uart_callback+0x42>
F:\数据\嘉立创比赛\程序\IOT_tuya\obj/../Libraries/seekfree_peripheral/SEEKFREE_MT9V03X.c:95 (discriminator 1)
    14fa:	60064683          	lbu	a3,1536(a2)
    14fe:	0a500793          	li	a5,165
    1502:	00f68e63          	beq	a3,a5,151e <mt9v03x_uart_callback+0x54>
F:\数据\嘉立创比赛\程序\IOT_tuya\obj/../Libraries/seekfree_peripheral/SEEKFREE_MT9V03X.c:95 (discriminator 2)
    1506:	00070023          	sb	zero,0(a4)
    150a:	8082                	ret
F:\数据\嘉立创比赛\程序\IOT_tuya\obj/../Libraries/seekfree_peripheral/SEEKFREE_MT9V03X.c:96
    if(3 == receive_num)
    150c:	460d                	li	a2,3
    150e:	00c79863          	bne	a5,a2,151e <mt9v03x_uart_callback+0x54>
F:\数据\嘉立创比赛\程序\IOT_tuya\obj/../Libraries/seekfree_peripheral/SEEKFREE_MT9V03X.c:99
    {
        receive_num = 0;
        uart_receive_flag = 1;
    1512:	200027b7          	lui	a5,0x20002
F:\数据\嘉立创比赛\程序\IOT_tuya\obj/../Libraries/seekfree_peripheral/SEEKFREE_MT9V03X.c:98
        receive_num = 0;
    1516:	00070023          	sb	zero,0(a4)
F:\数据\嘉立创比赛\程序\IOT_tuya\obj/../Libraries/seekfree_peripheral/SEEKFREE_MT9V03X.c:99
        uart_receive_flag = 1;
    151a:	60d781a3          	sb	a3,1539(a5) # 20002603 <uart_receive_flag>
F:\数据\嘉立创比赛\程序\IOT_tuya\obj/../Libraries/seekfree_peripheral/SEEKFREE_MT9V03X.c:102
    }
    
}
    151e:	8082                	ret

00001520 <mt9v03x_vsync>:
mt9v03x_vsync():
F:\数据\嘉立创比赛\程序\IOT_tuya\obj/../Libraries/seekfree_peripheral/SEEKFREE_MT9V03X.c:378
//  @since      v1.0
//  Sample usage:               在isr.c里面先创建对应的中断函数，然后调用该函数(之后别忘记清除中断标志位)
//-------------------------------------------------------------------------------------------------------------------
void mt9v03x_vsync(void)
{
    MT9V03X_DMA_CH->CNTR = MT9V03X_H*MT9V03X_W;             //设置当前DMA传输的剩余数量，向下递减，该寄存器只能在DMA不工作时更改。
    1520:	6709                	lui	a4,0x2
    1522:	400207b7          	lui	a5,0x40020
    1526:	4b870713          	addi	a4,a4,1208 # 24b8 <SHT_GetValue+0x10>
    152a:	c7b8                	sw	a4,72(a5)
F:\数据\嘉立创比赛\程序\IOT_tuya\obj/../Libraries/seekfree_peripheral/SEEKFREE_MT9V03X.c:379
    MT9V03X_DMA_CH->CFGR |= DMA_CFGR1_EN;
    152c:	43f8                	lw	a4,68(a5)
    152e:	00176713          	ori	a4,a4,1
    1532:	c3f8                	sw	a4,68(a5)
F:\数据\嘉立创比赛\程序\IOT_tuya\obj/../Libraries/seekfree_peripheral/SEEKFREE_MT9V03X.c:380
}
    1534:	8082                	ret

00001536 <mt9v03x_dma>:
mt9v03x_dma():
F:\数据\嘉立创比赛\程序\IOT_tuya\obj/../Libraries/seekfree_peripheral/SEEKFREE_MT9V03X.c:391
//  @since      v1.0
//  Sample usage:
//-------------------------------------------------------------------------------------------------------------------
void mt9v03x_dma(void)
{
    mt9v03x_finish_flag = 1;//一副图像从采集开始到采集结束耗时3.8MS左右(50FPS、188*120分辨率)
    1536:	4705                	li	a4,1
    1538:	80e18c23          	sb	a4,-2024(gp) # 20000088 <mt9v03x_finish_flag>
F:\数据\嘉立创比赛\程序\IOT_tuya\obj/../Libraries/seekfree_peripheral/SEEKFREE_MT9V03X.c:392
    MT9V03X_DMA_CH->CFGR &= (uint16)(~DMA_CFGR1_EN);   //关闭DMA1
    153c:	400206b7          	lui	a3,0x40020
    1540:	42fc                	lw	a5,68(a3)
    1542:	6741                	lui	a4,0x10
    1544:	1779                	addi	a4,a4,-2
    1546:	8ff9                	and	a5,a5,a4
    1548:	c2fc                	sw	a5,68(a3)
F:\数据\嘉立创比赛\程序\IOT_tuya\obj/../Libraries/seekfree_peripheral/SEEKFREE_MT9V03X.c:393
}
    154a:	8082                	ret

0000154c <oled_wrdat>:
oled_wrdat():
F:\数据\嘉立创比赛\程序\IOT_tuya\obj/../Libraries/seekfree_peripheral/SEEKFREE_OLED.c:58
//-------------------------------------------------------------------------------------------------------------------
void oled_wrdat(uint8 data)
{
	uint8 i=8;
	
    OLED_CS(0); //使能信号端，拉低时正常使用
    154c:	6799                	lui	a5,0x6
    154e:	98078713          	addi	a4,a5,-1664 # 5980 <GPION>
    1552:	4718                	lw	a4,8(a4)
    1554:	66a1                	lui	a3,0x8
F:\数据\嘉立创比赛\程序\IOT_tuya\obj/../Libraries/seekfree_peripheral/SEEKFREE_OLED.c:64
	OLED_DC(1);
	OLED_SCL(0);
	while(i--)
	{
	  	if(data&0x80){OLED_SDA(1);}
	  	else{OLED_SDA(0);}
    1556:	08000613          	li	a2,128
F:\数据\嘉立创比赛\程序\IOT_tuya\obj/../Libraries/seekfree_peripheral/SEEKFREE_OLED.c:58
    OLED_CS(0); //使能信号端，拉低时正常使用
    155a:	cb54                	sw	a3,20(a4)
F:\数据\嘉立创比赛\程序\IOT_tuya\obj/../Libraries/seekfree_peripheral/SEEKFREE_OLED.c:59
	OLED_DC(1);
    155c:	6691                	lui	a3,0x4
    155e:	cb14                	sw	a3,16(a4)
F:\数据\嘉立创比赛\程序\IOT_tuya\obj/../Libraries/seekfree_peripheral/SEEKFREE_OLED.c:60
	OLED_SCL(0);
    1560:	9807a683          	lw	a3,-1664(a5)
    1564:	02000713          	li	a4,32
    1568:	98078793          	addi	a5,a5,-1664
    156c:	cad8                	sw	a4,20(a3)
F:\数据\嘉立创比赛\程序\IOT_tuya\obj/../Libraries/seekfree_peripheral/SEEKFREE_OLED.c:65
	  	OLED_SCL(1);
    156e:	02000593          	li	a1,32
F:\数据\嘉立创比赛\程序\IOT_tuya\obj/../Libraries/seekfree_peripheral/SEEKFREE_OLED.c:61
	while(i--)
    1572:	4725                	li	a4,9
    1574:	177d                	addi	a4,a4,-1
    1576:	0ff77713          	andi	a4,a4,255
    157a:	e709                	bnez	a4,1584 <oled_wrdat+0x38>
F:\数据\嘉立创比赛\程序\IOT_tuya\obj/../Libraries/seekfree_peripheral/SEEKFREE_OLED.c:70
		
	  	OLED_SCL(0);
	  	data<<=1;
	}
    OLED_CS(1); //使能信号端，拉低时正常使用
    157c:	479c                	lw	a5,8(a5)
    157e:	6721                	lui	a4,0x8
    1580:	cb98                	sw	a4,16(a5)
F:\数据\嘉立创比赛\程序\IOT_tuya\obj/../Libraries/seekfree_peripheral/SEEKFREE_OLED.c:71
}
    1582:	8082                	ret
F:\数据\嘉立创比赛\程序\IOT_tuya\obj/../Libraries/seekfree_peripheral/SEEKFREE_OLED.c:63
	  	if(data&0x80){OLED_SDA(1);}
    1584:	01851813          	slli	a6,a0,0x18
    1588:	41885813          	srai	a6,a6,0x18
    158c:	00085963          	bgez	a6,159e <oled_wrdat+0x52>
F:\数据\嘉立创比赛\程序\IOT_tuya\obj/../Libraries/seekfree_peripheral/SEEKFREE_OLED.c:63 (discriminator 1)
    1590:	ca90                	sw	a2,16(a3)
F:\数据\嘉立创比赛\程序\IOT_tuya\obj/../Libraries/seekfree_peripheral/SEEKFREE_OLED.c:65
	  	OLED_SCL(1);
    1592:	ca8c                	sw	a1,16(a3)
F:\数据\嘉立创比赛\程序\IOT_tuya\obj/../Libraries/seekfree_peripheral/SEEKFREE_OLED.c:68
	  	data<<=1;
    1594:	0506                	slli	a0,a0,0x1
F:\数据\嘉立创比赛\程序\IOT_tuya\obj/../Libraries/seekfree_peripheral/SEEKFREE_OLED.c:67
	  	OLED_SCL(0);
    1596:	cacc                	sw	a1,20(a3)
F:\数据\嘉立创比赛\程序\IOT_tuya\obj/../Libraries/seekfree_peripheral/SEEKFREE_OLED.c:68
	  	data<<=1;
    1598:	0ff57513          	andi	a0,a0,255
    159c:	bfe1                	j	1574 <oled_wrdat+0x28>
F:\数据\嘉立创比赛\程序\IOT_tuya\obj/../Libraries/seekfree_peripheral/SEEKFREE_OLED.c:64
	  	else{OLED_SDA(0);}
    159e:	cad0                	sw	a2,20(a3)
    15a0:	bfcd                	j	1592 <oled_wrdat+0x46>

000015a2 <oled_wrcmd>:
oled_wrcmd():
F:\数据\嘉立创比赛\程序\IOT_tuya\obj/../Libraries/seekfree_peripheral/SEEKFREE_OLED.c:109
//-------------------------------------------------------------------------------------------------------------------
void oled_wrcmd(uint8 cmd)
{
	uint8 i=8;
    
	OLED_CS(0); //使能信号端，拉低时正常使用
    15a2:	6799                	lui	a5,0x6
    15a4:	98078713          	addi	a4,a5,-1664 # 5980 <GPION>
    15a8:	4718                	lw	a4,8(a4)
    15aa:	66a1                	lui	a3,0x8
F:\数据\嘉立创比赛\程序\IOT_tuya\obj/../Libraries/seekfree_peripheral/SEEKFREE_OLED.c:116
	OLED_SCL(0);;
	
	while(i--)
	{
		if(cmd&0x80){OLED_SDA(1);}
		else{OLED_SDA(0);}
    15ac:	08000613          	li	a2,128
F:\数据\嘉立创比赛\程序\IOT_tuya\obj/../Libraries/seekfree_peripheral/SEEKFREE_OLED.c:109
	OLED_CS(0); //使能信号端，拉低时正常使用
    15b0:	cb54                	sw	a3,20(a4)
F:\数据\嘉立创比赛\程序\IOT_tuya\obj/../Libraries/seekfree_peripheral/SEEKFREE_OLED.c:110
	OLED_DC(0);
    15b2:	6691                	lui	a3,0x4
    15b4:	cb54                	sw	a3,20(a4)
F:\数据\嘉立创比赛\程序\IOT_tuya\obj/../Libraries/seekfree_peripheral/SEEKFREE_OLED.c:111
	OLED_SCL(0);;
    15b6:	9807a683          	lw	a3,-1664(a5)
    15ba:	02000713          	li	a4,32
    15be:	98078793          	addi	a5,a5,-1664
    15c2:	cad8                	sw	a4,20(a3)
F:\数据\嘉立创比赛\程序\IOT_tuya\obj/../Libraries/seekfree_peripheral/SEEKFREE_OLED.c:117
		OLED_SCL(1);
    15c4:	02000593          	li	a1,32
F:\数据\嘉立创比赛\程序\IOT_tuya\obj/../Libraries/seekfree_peripheral/SEEKFREE_OLED.c:113
	while(i--)
    15c8:	4725                	li	a4,9
    15ca:	177d                	addi	a4,a4,-1
    15cc:	0ff77713          	andi	a4,a4,255
    15d0:	e709                	bnez	a4,15da <oled_wrcmd+0x38>
F:\数据\嘉立创比赛\程序\IOT_tuya\obj/../Libraries/seekfree_peripheral/SEEKFREE_OLED.c:122
		
		OLED_SCL(0);
		cmd<<=1;
	}
    OLED_CS(1); //使能信号端，拉低时正常使用
    15d2:	479c                	lw	a5,8(a5)
    15d4:	6721                	lui	a4,0x8
    15d6:	cb98                	sw	a4,16(a5)
F:\数据\嘉立创比赛\程序\IOT_tuya\obj/../Libraries/seekfree_peripheral/SEEKFREE_OLED.c:123
}
    15d8:	8082                	ret
F:\数据\嘉立创比赛\程序\IOT_tuya\obj/../Libraries/seekfree_peripheral/SEEKFREE_OLED.c:115
		if(cmd&0x80){OLED_SDA(1);}
    15da:	01851813          	slli	a6,a0,0x18
    15de:	41885813          	srai	a6,a6,0x18
    15e2:	00085963          	bgez	a6,15f4 <oled_wrcmd+0x52>
F:\数据\嘉立创比赛\程序\IOT_tuya\obj/../Libraries/seekfree_peripheral/SEEKFREE_OLED.c:115 (discriminator 1)
    15e6:	ca90                	sw	a2,16(a3)
F:\数据\嘉立创比赛\程序\IOT_tuya\obj/../Libraries/seekfree_peripheral/SEEKFREE_OLED.c:117
		OLED_SCL(1);
    15e8:	ca8c                	sw	a1,16(a3)
F:\数据\嘉立创比赛\程序\IOT_tuya\obj/../Libraries/seekfree_peripheral/SEEKFREE_OLED.c:120
		cmd<<=1;
    15ea:	0506                	slli	a0,a0,0x1
F:\数据\嘉立创比赛\程序\IOT_tuya\obj/../Libraries/seekfree_peripheral/SEEKFREE_OLED.c:119
		OLED_SCL(0);
    15ec:	cacc                	sw	a1,20(a3)
F:\数据\嘉立创比赛\程序\IOT_tuya\obj/../Libraries/seekfree_peripheral/SEEKFREE_OLED.c:120
		cmd<<=1;
    15ee:	0ff57513          	andi	a0,a0,255
    15f2:	bfe1                	j	15ca <oled_wrcmd+0x28>
F:\数据\嘉立创比赛\程序\IOT_tuya\obj/../Libraries/seekfree_peripheral/SEEKFREE_OLED.c:116
		else{OLED_SDA(0);}
    15f4:	cad0                	sw	a2,20(a3)
    15f6:	bfcd                	j	15e8 <oled_wrcmd+0x46>

000015f8 <oled_set_pos>:
oled_set_pos():
F:\数据\嘉立创比赛\程序\IOT_tuya\obj/../Libraries/seekfree_peripheral/SEEKFREE_OLED.c:216
//  @return     void
//  @since      v1.0
//  Sample usage:			
//-------------------------------------------------------------------------------------------------------------------
void oled_set_pos(uint8 x, uint8 y)
{
    15f8:	1141                	addi	sp,sp,-16
F:\数据\嘉立创比赛\程序\IOT_tuya\obj/../Libraries/seekfree_peripheral/SEEKFREE_OLED.c:217
    assert(X_WIDTH>x);      //参数断言，进入断言标志参数超出范围
    15fa:	01851793          	slli	a5,a0,0x18
F:\数据\嘉立创比赛\程序\IOT_tuya\obj/../Libraries/seekfree_peripheral/SEEKFREE_OLED.c:216
{
    15fe:	c606                	sw	ra,12(sp)
    1600:	c422                	sw	s0,8(sp)
F:\数据\嘉立创比赛\程序\IOT_tuya\obj/../Libraries/seekfree_peripheral/SEEKFREE_OLED.c:217
    assert(X_WIDTH>x);      //参数断言，进入断言标志参数超出范围
    1602:	87e1                	srai	a5,a5,0x18
    1604:	0207d163          	bgez	a5,1626 <oled_set_pos+0x2e>
F:\数据\嘉立创比赛\程序\IOT_tuya\obj/../Libraries/seekfree_peripheral/SEEKFREE_OLED.c:217 (discriminator 1)
    1608:	000066b7          	lui	a3,0x6
    160c:	6619                	lui	a2,0x6
    160e:	92468693          	addi	a3,a3,-1756 # 5924 <__func__.3170+0x14>
    1612:	91060613          	addi	a2,a2,-1776 # 5910 <__func__.3170>
    1616:	0d900593          	li	a1,217
F:\数据\嘉立创比赛\程序\IOT_tuya\obj/../Libraries/seekfree_peripheral/SEEKFREE_OLED.c:218
    assert((Y_WIDTH/8)>y);
    161a:	00006537          	lui	a0,0x6
    161e:	93050513          	addi	a0,a0,-1744 # 5930 <__func__.3170+0x20>
    1622:	439020ef          	jal	ra,425a <__assert_func>
    1626:	479d                	li	a5,7
    1628:	00b7fc63          	bgeu	a5,a1,1640 <oled_set_pos+0x48>
    162c:	000066b7          	lui	a3,0x6
    1630:	6619                	lui	a2,0x6
    1632:	96468693          	addi	a3,a3,-1692 # 5964 <__func__.3170+0x54>
    1636:	91060613          	addi	a2,a2,-1776 # 5910 <__func__.3170>
    163a:	0da00593          	li	a1,218
    163e:	bff1                	j	161a <oled_set_pos+0x22>
F:\数据\嘉立创比赛\程序\IOT_tuya\obj/../Libraries/seekfree_peripheral/SEEKFREE_OLED.c:220
    
    oled_wrcmd(0xb0+y);
    1640:	fb058593          	addi	a1,a1,-80
    1644:	842a                	mv	s0,a0
    1646:	0ff5f513          	andi	a0,a1,255
    164a:	3fa1                	jal	15a2 <oled_wrcmd>
F:\数据\嘉立创比赛\程序\IOT_tuya\obj/../Libraries/seekfree_peripheral/SEEKFREE_OLED.c:221
    oled_wrcmd(((x&0xf0)>>4)|0x10);
    164c:	00445513          	srli	a0,s0,0x4
    1650:	01056513          	ori	a0,a0,16
    1654:	37b9                	jal	15a2 <oled_wrcmd>
F:\数据\嘉立创比赛\程序\IOT_tuya\obj/../Libraries/seekfree_peripheral/SEEKFREE_OLED.c:222
    oled_wrcmd((x&0x0f)|0x00);
    1656:	00f47513          	andi	a0,s0,15
F:\数据\嘉立创比赛\程序\IOT_tuya\obj/../Libraries/seekfree_peripheral/SEEKFREE_OLED.c:223
}
    165a:	4422                	lw	s0,8(sp)
    165c:	40b2                	lw	ra,12(sp)
    165e:	0141                	addi	sp,sp,16
F:\数据\嘉立创比赛\程序\IOT_tuya\obj/../Libraries/seekfree_peripheral/SEEKFREE_OLED.c:222
    oled_wrcmd((x&0x0f)|0x00);
    1660:	b789                	j	15a2 <oled_wrcmd>

00001662 <oled_fill>:
oled_fill():
F:\数据\嘉立创比赛\程序\IOT_tuya\obj/../Libraries/seekfree_peripheral/SEEKFREE_OLED.c:233
//  @return     void
//  @since      v1.0
//  Sample usage:			
//-------------------------------------------------------------------------------------------------------------------
void oled_fill(uint8 bmp_data)
{
    1662:	1101                	addi	sp,sp,-32
    1664:	cc22                	sw	s0,24(sp)
    1666:	c84a                	sw	s2,16(sp)
    1668:	c64e                	sw	s3,12(sp)
    166a:	ce06                	sw	ra,28(sp)
    166c:	ca26                	sw	s1,20(sp)
    166e:	89aa                	mv	s3,a0
    1670:	0b000413          	li	s0,176
F:\数据\嘉立创比赛\程序\IOT_tuya\obj/../Libraries/seekfree_peripheral/SEEKFREE_OLED.c:236
	uint8 y,x;
	
	for(y=0;y<8;y++)
    1674:	0b800913          	li	s2,184
F:\数据\嘉立创比赛\程序\IOT_tuya\obj/../Libraries/seekfree_peripheral/SEEKFREE_OLED.c:238
	{
		oled_wrcmd(0xb0+y);
    1678:	8522                	mv	a0,s0
    167a:	3725                	jal	15a2 <oled_wrcmd>
F:\数据\嘉立创比赛\程序\IOT_tuya\obj/../Libraries/seekfree_peripheral/SEEKFREE_OLED.c:239
		oled_wrcmd(0x01);
    167c:	4505                	li	a0,1
    167e:	3715                	jal	15a2 <oled_wrcmd>
F:\数据\嘉立创比赛\程序\IOT_tuya\obj/../Libraries/seekfree_peripheral/SEEKFREE_OLED.c:240
		oled_wrcmd(0x10);
    1680:	4541                	li	a0,16
    1682:	3705                	jal	15a2 <oled_wrcmd>
    1684:	08000493          	li	s1,128
F:\数据\嘉立创比赛\程序\IOT_tuya\obj/../Libraries/seekfree_peripheral/SEEKFREE_OLED.c:241 (discriminator 3)
		for(x=0;x<X_WIDTH;x++)	oled_wrdat(bmp_data); 
    1688:	854e                	mv	a0,s3
    168a:	14fd                	addi	s1,s1,-1
    168c:	35c1                	jal	154c <oled_wrdat>
    168e:	fced                	bnez	s1,1688 <oled_fill+0x26>
    1690:	0405                	addi	s0,s0,1
    1692:	0ff47413          	andi	s0,s0,255
F:\数据\嘉立创比赛\程序\IOT_tuya\obj/../Libraries/seekfree_peripheral/SEEKFREE_OLED.c:236 (discriminator 2)
	for(y=0;y<8;y++)
    1696:	ff2411e3          	bne	s0,s2,1678 <oled_fill+0x16>
F:\数据\嘉立创比赛\程序\IOT_tuya\obj/../Libraries/seekfree_peripheral/SEEKFREE_OLED.c:243
	}
}
    169a:	40f2                	lw	ra,28(sp)
    169c:	4462                	lw	s0,24(sp)
    169e:	44d2                	lw	s1,20(sp)
    16a0:	4942                	lw	s2,16(sp)
    16a2:	49b2                	lw	s3,12(sp)
    16a4:	6105                	addi	sp,sp,32
    16a6:	8082                	ret

000016a8 <oled_init>:
oled_init():
F:\数据\嘉立创比赛\程序\IOT_tuya\obj/../Libraries/seekfree_peripheral/SEEKFREE_OLED.c:156
{
    16a8:	1141                	addi	sp,sp,-16
F:\数据\嘉立创比赛\程序\IOT_tuya\obj/../Libraries/seekfree_peripheral/SEEKFREE_OLED.c:157
	gpio_init (OLED_SCL_PIN, GPO,1,GPIO_PIN_CONFIG);
    16aa:	31000693          	li	a3,784
    16ae:	4605                	li	a2,1
    16b0:	4585                	li	a1,1
    16b2:	4515                	li	a0,5
F:\数据\嘉立创比赛\程序\IOT_tuya\obj/../Libraries/seekfree_peripheral/SEEKFREE_OLED.c:156
{
    16b4:	c606                	sw	ra,12(sp)
    16b6:	c422                	sw	s0,8(sp)
    16b8:	c226                	sw	s1,4(sp)
F:\数据\嘉立创比赛\程序\IOT_tuya\obj/../Libraries/seekfree_peripheral/SEEKFREE_OLED.c:157
	gpio_init (OLED_SCL_PIN, GPO,1,GPIO_PIN_CONFIG);
    16ba:	045000ef          	jal	ra,1efe <gpio_init>
F:\数据\嘉立创比赛\程序\IOT_tuya\obj/../Libraries/seekfree_peripheral/SEEKFREE_OLED.c:158
    gpio_init (OLED_SDA_PIN, GPO,0,GPIO_PIN_CONFIG);
    16be:	31000693          	li	a3,784
    16c2:	4601                	li	a2,0
    16c4:	4585                	li	a1,1
    16c6:	451d                	li	a0,7
    16c8:	037000ef          	jal	ra,1efe <gpio_init>
F:\数据\嘉立创比赛\程序\IOT_tuya\obj/../Libraries/seekfree_peripheral/SEEKFREE_OLED.c:159
    gpio_init (OLED_RST_PIN, GPO,1,GPIO_PIN_CONFIG);
    16cc:	31000693          	li	a3,784
    16d0:	4605                	li	a2,1
    16d2:	4585                	li	a1,1
    16d4:	04d00513          	li	a0,77
    16d8:	027000ef          	jal	ra,1efe <gpio_init>
F:\数据\嘉立创比赛\程序\IOT_tuya\obj/../Libraries/seekfree_peripheral/SEEKFREE_OLED.c:160
    gpio_init (OLED_DC_PIN , GPO,1,GPIO_PIN_CONFIG);
    16dc:	31000693          	li	a3,784
    16e0:	4605                	li	a2,1
    16e2:	4585                	li	a1,1
    16e4:	04e00513          	li	a0,78
    16e8:	017000ef          	jal	ra,1efe <gpio_init>
F:\数据\嘉立创比赛\程序\IOT_tuya\obj/../Libraries/seekfree_peripheral/SEEKFREE_OLED.c:161
    gpio_init (OLED_CS_PIN , GPO,1,GPIO_PIN_CONFIG);
    16ec:	4585                	li	a1,1
    16ee:	4605                	li	a2,1
    16f0:	31000693          	li	a3,784
    16f4:	04f00513          	li	a0,79
    16f8:	007000ef          	jal	ra,1efe <gpio_init>
F:\数据\嘉立创比赛\程序\IOT_tuya\obj/../Libraries/seekfree_peripheral/SEEKFREE_OLED.c:163
	OLED_SCL(1);
    16fc:	6799                	lui	a5,0x6
    16fe:	9807a703          	lw	a4,-1664(a5) # 5980 <GPION>
F:\数据\嘉立创比赛\程序\IOT_tuya\obj/../Libraries/seekfree_peripheral/SEEKFREE_OLED.c:164
	OLED_RST(0);
    1702:	98078793          	addi	a5,a5,-1664
    1706:	4780                	lw	s0,8(a5)
F:\数据\嘉立创比赛\程序\IOT_tuya\obj/../Libraries/seekfree_peripheral/SEEKFREE_OLED.c:163
	OLED_SCL(1);
    1708:	02000693          	li	a3,32
    170c:	cb14                	sw	a3,16(a4)
F:\数据\嘉立创比赛\程序\IOT_tuya\obj/../Libraries/seekfree_peripheral/SEEKFREE_OLED.c:164
	OLED_RST(0);
    170e:	6489                	lui	s1,0x2
F:\数据\嘉立创比赛\程序\IOT_tuya\obj/../Libraries/seekfree_peripheral/SEEKFREE_OLED.c:165
	systick_delay_ms(50);
    1710:	6531                	lui	a0,0xc
F:\数据\嘉立创比赛\程序\IOT_tuya\obj/../Libraries/seekfree_peripheral/SEEKFREE_OLED.c:164
	OLED_RST(0);
    1712:	c844                	sw	s1,20(s0)
F:\数据\嘉立创比赛\程序\IOT_tuya\obj/../Libraries/seekfree_peripheral/SEEKFREE_OLED.c:165
	systick_delay_ms(50);
    1714:	35050513          	addi	a0,a0,848 # c350 <_data_lma+0x66c4>
    1718:	185000ef          	jal	ra,209c <systick_delay>
F:\数据\嘉立创比赛\程序\IOT_tuya\obj/../Libraries/seekfree_peripheral/SEEKFREE_OLED.c:168
	oled_wrcmd(0xae);//--turn off oled panel
    171c:	0ae00513          	li	a0,174
F:\数据\嘉立创比赛\程序\IOT_tuya\obj/../Libraries/seekfree_peripheral/SEEKFREE_OLED.c:166
	OLED_RST(1);
    1720:	c804                	sw	s1,16(s0)
F:\数据\嘉立创比赛\程序\IOT_tuya\obj/../Libraries/seekfree_peripheral/SEEKFREE_OLED.c:168
	oled_wrcmd(0xae);//--turn off oled panel
    1722:	3541                	jal	15a2 <oled_wrcmd>
F:\数据\嘉立创比赛\程序\IOT_tuya\obj/../Libraries/seekfree_peripheral/SEEKFREE_OLED.c:169
	oled_wrcmd(0x00);//---set low column address
    1724:	4501                	li	a0,0
    1726:	3db5                	jal	15a2 <oled_wrcmd>
F:\数据\嘉立创比赛\程序\IOT_tuya\obj/../Libraries/seekfree_peripheral/SEEKFREE_OLED.c:170
	oled_wrcmd(0x10);//---set high column address
    1728:	4541                	li	a0,16
    172a:	3da5                	jal	15a2 <oled_wrcmd>
F:\数据\嘉立创比赛\程序\IOT_tuya\obj/../Libraries/seekfree_peripheral/SEEKFREE_OLED.c:171
	oled_wrcmd(0x40);//--set start line address  Set Mapping RAM Display Start Line (0x00~0x3F)
    172c:	04000513          	li	a0,64
    1730:	3d8d                	jal	15a2 <oled_wrcmd>
F:\数据\嘉立创比赛\程序\IOT_tuya\obj/../Libraries/seekfree_peripheral/SEEKFREE_OLED.c:172
	oled_wrcmd(0x81);//--set contrast control register
    1732:	08100513          	li	a0,129
    1736:	35b5                	jal	15a2 <oled_wrcmd>
F:\数据\嘉立创比赛\程序\IOT_tuya\obj/../Libraries/seekfree_peripheral/SEEKFREE_OLED.c:173
	oled_wrcmd(Brightness); // Set SEG Output Current Brightness
    1738:	07f00513          	li	a0,127
    173c:	359d                	jal	15a2 <oled_wrcmd>
F:\数据\嘉立创比赛\程序\IOT_tuya\obj/../Libraries/seekfree_peripheral/SEEKFREE_OLED.c:176
	oled_wrcmd(0xa1);//--Set SEG/Column Mapping     0xa0左右反置 0xa1正常
    173e:	0a100513          	li	a0,161
    1742:	3585                	jal	15a2 <oled_wrcmd>
F:\数据\嘉立创比赛\程序\IOT_tuya\obj/../Libraries/seekfree_peripheral/SEEKFREE_OLED.c:177
	oled_wrcmd(0xc8);//Set COM/Row Scan Direction   0xc0上下反置 0xc8正常
    1744:	0c800513          	li	a0,200
    1748:	3da9                	jal	15a2 <oled_wrcmd>
F:\数据\嘉立创比赛\程序\IOT_tuya\obj/../Libraries/seekfree_peripheral/SEEKFREE_OLED.c:183
	oled_wrcmd(0xa6);//--set normal display
    174a:	0a600513          	li	a0,166
    174e:	3d91                	jal	15a2 <oled_wrcmd>
F:\数据\嘉立创比赛\程序\IOT_tuya\obj/../Libraries/seekfree_peripheral/SEEKFREE_OLED.c:184
	oled_wrcmd(0xa8);//--set multiplex ratio(1 to 64)
    1750:	0a800513          	li	a0,168
    1754:	35b9                	jal	15a2 <oled_wrcmd>
F:\数据\嘉立创比赛\程序\IOT_tuya\obj/../Libraries/seekfree_peripheral/SEEKFREE_OLED.c:185
	oled_wrcmd(0x3f);//--1/64 duty
    1756:	03f00513          	li	a0,63
    175a:	35a1                	jal	15a2 <oled_wrcmd>
F:\数据\嘉立创比赛\程序\IOT_tuya\obj/../Libraries/seekfree_peripheral/SEEKFREE_OLED.c:186
	oled_wrcmd(0xd3);//-set display offset	Shift Mapping RAM Counter (0x00~0x3F)
    175c:	0d300513          	li	a0,211
    1760:	3589                	jal	15a2 <oled_wrcmd>
F:\数据\嘉立创比赛\程序\IOT_tuya\obj/../Libraries/seekfree_peripheral/SEEKFREE_OLED.c:187
	oled_wrcmd(0x00);//-not offset
    1762:	4501                	li	a0,0
    1764:	3d3d                	jal	15a2 <oled_wrcmd>
F:\数据\嘉立创比赛\程序\IOT_tuya\obj/../Libraries/seekfree_peripheral/SEEKFREE_OLED.c:188
	oled_wrcmd(0xd5);//--set display clock divide ratio/oscillator frequency
    1766:	0d500513          	li	a0,213
    176a:	3d25                	jal	15a2 <oled_wrcmd>
F:\数据\嘉立创比赛\程序\IOT_tuya\obj/../Libraries/seekfree_peripheral/SEEKFREE_OLED.c:189
	oled_wrcmd(0x80);//--set divide ratio, Set Clock as 100 Frames/Sec
    176c:	08000513          	li	a0,128
    1770:	3d0d                	jal	15a2 <oled_wrcmd>
F:\数据\嘉立创比赛\程序\IOT_tuya\obj/../Libraries/seekfree_peripheral/SEEKFREE_OLED.c:190
	oled_wrcmd(0xd9);//--set pre-charge period
    1772:	0d900513          	li	a0,217
    1776:	3535                	jal	15a2 <oled_wrcmd>
F:\数据\嘉立创比赛\程序\IOT_tuya\obj/../Libraries/seekfree_peripheral/SEEKFREE_OLED.c:191
	oled_wrcmd(0xf1);//Set Pre-Charge as 15 Clocks & Discharge as 1 Clock
    1778:	0f100513          	li	a0,241
    177c:	351d                	jal	15a2 <oled_wrcmd>
F:\数据\嘉立创比赛\程序\IOT_tuya\obj/../Libraries/seekfree_peripheral/SEEKFREE_OLED.c:192
	oled_wrcmd(0xda);//--set com pins hardware configuration
    177e:	0da00513          	li	a0,218
    1782:	3505                	jal	15a2 <oled_wrcmd>
F:\数据\嘉立创比赛\程序\IOT_tuya\obj/../Libraries/seekfree_peripheral/SEEKFREE_OLED.c:193
	oled_wrcmd(0x12);
    1784:	4549                	li	a0,18
    1786:	3d31                	jal	15a2 <oled_wrcmd>
F:\数据\嘉立创比赛\程序\IOT_tuya\obj/../Libraries/seekfree_peripheral/SEEKFREE_OLED.c:194
	oled_wrcmd(0xdb);//--set vcomh
    1788:	0db00513          	li	a0,219
    178c:	3d19                	jal	15a2 <oled_wrcmd>
F:\数据\嘉立创比赛\程序\IOT_tuya\obj/../Libraries/seekfree_peripheral/SEEKFREE_OLED.c:195
	oled_wrcmd(0x40);//Set VCOM Deselect Level
    178e:	04000513          	li	a0,64
    1792:	3d01                	jal	15a2 <oled_wrcmd>
F:\数据\嘉立创比赛\程序\IOT_tuya\obj/../Libraries/seekfree_peripheral/SEEKFREE_OLED.c:196
	oled_wrcmd(0x20);//-Set Page Addressing Mode (0x00/0x01/0x02)
    1794:	02000513          	li	a0,32
    1798:	3529                	jal	15a2 <oled_wrcmd>
F:\数据\嘉立创比赛\程序\IOT_tuya\obj/../Libraries/seekfree_peripheral/SEEKFREE_OLED.c:197
	oled_wrcmd(0x02);//
    179a:	4509                	li	a0,2
    179c:	3519                	jal	15a2 <oled_wrcmd>
F:\数据\嘉立创比赛\程序\IOT_tuya\obj/../Libraries/seekfree_peripheral/SEEKFREE_OLED.c:198
	oled_wrcmd(0x8d);//--set Charge Pump enable/disable
    179e:	08d00513          	li	a0,141
    17a2:	3501                	jal	15a2 <oled_wrcmd>
F:\数据\嘉立创比赛\程序\IOT_tuya\obj/../Libraries/seekfree_peripheral/SEEKFREE_OLED.c:199
	oled_wrcmd(0x14);//--set(0x10) disable
    17a4:	4551                	li	a0,20
    17a6:	3bf5                	jal	15a2 <oled_wrcmd>
F:\数据\嘉立创比赛\程序\IOT_tuya\obj/../Libraries/seekfree_peripheral/SEEKFREE_OLED.c:200
	oled_wrcmd(0xa4);// Disable Entire Display On (0xa4/0xa5)
    17a8:	0a400513          	li	a0,164
    17ac:	3bdd                	jal	15a2 <oled_wrcmd>
F:\数据\嘉立创比赛\程序\IOT_tuya\obj/../Libraries/seekfree_peripheral/SEEKFREE_OLED.c:201
	oled_wrcmd(0xa6);// Disable Inverse Display On (0xa6/a7)
    17ae:	0a600513          	li	a0,166
    17b2:	3bc5                	jal	15a2 <oled_wrcmd>
F:\数据\嘉立创比赛\程序\IOT_tuya\obj/../Libraries/seekfree_peripheral/SEEKFREE_OLED.c:202
	oled_wrcmd(0xaf);//--turn on oled panel
    17b4:	0af00513          	li	a0,175
    17b8:	33ed                	jal	15a2 <oled_wrcmd>
F:\数据\嘉立创比赛\程序\IOT_tuya\obj/../Libraries/seekfree_peripheral/SEEKFREE_OLED.c:203
	oled_fill(0x00);  //初始清屏
    17ba:	4501                	li	a0,0
    17bc:	355d                	jal	1662 <oled_fill>
F:\数据\嘉立创比赛\程序\IOT_tuya\obj/../Libraries/seekfree_peripheral/SEEKFREE_OLED.c:205
}
    17be:	4422                	lw	s0,8(sp)
    17c0:	40b2                	lw	ra,12(sp)
    17c2:	4492                	lw	s1,4(sp)
F:\数据\嘉立创比赛\程序\IOT_tuya\obj/../Libraries/seekfree_peripheral/SEEKFREE_OLED.c:204
	oled_set_pos(0,0);
    17c4:	4581                	li	a1,0
    17c6:	4501                	li	a0,0
F:\数据\嘉立创比赛\程序\IOT_tuya\obj/../Libraries/seekfree_peripheral/SEEKFREE_OLED.c:205
}
    17c8:	0141                	addi	sp,sp,16
F:\数据\嘉立创比赛\程序\IOT_tuya\obj/../Libraries/seekfree_peripheral/SEEKFREE_OLED.c:204
	oled_set_pos(0,0);
    17ca:	b53d                	j	15f8 <oled_set_pos>

000017cc <oled_p6x8str>:
oled_p6x8str():
F:\数据\嘉立创比赛\程序\IOT_tuya\obj/../Libraries/seekfree_peripheral/SEEKFREE_OLED.c:293
//  @return     void
//  @since      v1.0
//  Sample usage:			
//-------------------------------------------------------------------------------------------------------------------
void oled_p6x8str(uint8 x,uint8 y,const int8 ch[])
{
    17cc:	7179                	addi	sp,sp,-48
    17ce:	cc52                	sw	s4,24(sp)
F:\数据\嘉立创比赛\程序\IOT_tuya\obj/../Libraries/seekfree_peripheral/SEEKFREE_OLED.c:300
	while (ch[j]!='\0')
	{
	  	c =ch[j]-32;
	  	if(x>126){x=0;y++;}
	  	oled_set_pos(x,y);
	  	for(i=0;i<6;i++)	oled_wrdat(oled_6x8[c][i]);
    17d0:	6a15                	lui	s4,0x5
F:\数据\嘉立创比赛\程序\IOT_tuya\obj/../Libraries/seekfree_peripheral/SEEKFREE_OLED.c:293
{
    17d2:	d226                	sw	s1,36(sp)
    17d4:	d04a                	sw	s2,32(sp)
    17d6:	ce4e                	sw	s3,28(sp)
    17d8:	ca56                	sw	s5,20(sp)
    17da:	c85a                	sw	s6,16(sp)
    17dc:	c65e                	sw	s7,12(sp)
    17de:	d606                	sw	ra,44(sp)
    17e0:	d422                	sw	s0,40(sp)
    17e2:	c462                	sw	s8,8(sp)
    17e4:	84aa                	mv	s1,a0
    17e6:	89ae                	mv	s3,a1
    17e8:	8bb2                	mv	s7,a2
F:\数据\嘉立创比赛\程序\IOT_tuya\obj/../Libraries/seekfree_peripheral/SEEKFREE_OLED.c:294
	uint8 c=0,i=0,j=0;
    17ea:	4901                	li	s2,0
F:\数据\嘉立创比赛\程序\IOT_tuya\obj/../Libraries/seekfree_peripheral/SEEKFREE_OLED.c:298
	  	if(x>126){x=0;y++;}
    17ec:	07e00b13          	li	s6,126
    17f0:	4a99                	li	s5,6
F:\数据\嘉立创比赛\程序\IOT_tuya\obj/../Libraries/seekfree_peripheral/SEEKFREE_OLED.c:300
	  	for(i=0;i<6;i++)	oled_wrdat(oled_6x8[c][i]);
    17f2:	6e8a0a13          	addi	s4,s4,1768 # 56e8 <oled_6x8>
F:\数据\嘉立创比赛\程序\IOT_tuya\obj/../Libraries/seekfree_peripheral/SEEKFREE_OLED.c:295
	while (ch[j]!='\0')
    17f6:	012b87b3          	add	a5,s7,s2
    17fa:	00078783          	lb	a5,0(a5)
    17fe:	ef89                	bnez	a5,1818 <oled_p6x8str+0x4c>
F:\数据\嘉立创比赛\程序\IOT_tuya\obj/../Libraries/seekfree_peripheral/SEEKFREE_OLED.c:304
	  	x+=6;
	  	j++;
	}
}
    1800:	50b2                	lw	ra,44(sp)
    1802:	5422                	lw	s0,40(sp)
    1804:	5492                	lw	s1,36(sp)
    1806:	5902                	lw	s2,32(sp)
    1808:	49f2                	lw	s3,28(sp)
    180a:	4a62                	lw	s4,24(sp)
    180c:	4ad2                	lw	s5,20(sp)
    180e:	4b42                	lw	s6,16(sp)
    1810:	4bb2                	lw	s7,12(sp)
    1812:	4c22                	lw	s8,8(sp)
    1814:	6145                	addi	sp,sp,48
    1816:	8082                	ret
F:\数据\嘉立创比赛\程序\IOT_tuya\obj/../Libraries/seekfree_peripheral/SEEKFREE_OLED.c:297
	  	c =ch[j]-32;
    1818:	1781                	addi	a5,a5,-32
    181a:	0ff7f413          	andi	s0,a5,255
F:\数据\嘉立创比赛\程序\IOT_tuya\obj/../Libraries/seekfree_peripheral/SEEKFREE_OLED.c:298
	  	if(x>126){x=0;y++;}
    181e:	009b7663          	bgeu	s6,s1,182a <oled_p6x8str+0x5e>
F:\数据\嘉立创比赛\程序\IOT_tuya\obj/../Libraries/seekfree_peripheral/SEEKFREE_OLED.c:298 (discriminator 1)
    1822:	0985                	addi	s3,s3,1
    1824:	0ff9f993          	andi	s3,s3,255
    1828:	4481                	li	s1,0
F:\数据\嘉立创比赛\程序\IOT_tuya\obj/../Libraries/seekfree_peripheral/SEEKFREE_OLED.c:299
	  	oled_set_pos(x,y);
    182a:	03540433          	mul	s0,s0,s5
    182e:	85ce                	mv	a1,s3
    1830:	8526                	mv	a0,s1
    1832:	33d9                	jal	15f8 <oled_set_pos>
    1834:	4c01                	li	s8,0
F:\数据\嘉立创比赛\程序\IOT_tuya\obj/../Libraries/seekfree_peripheral/SEEKFREE_OLED.c:300 (discriminator 3)
	  	for(i=0;i<6;i++)	oled_wrdat(oled_6x8[c][i]);
    1836:	008c07b3          	add	a5,s8,s0
    183a:	97d2                	add	a5,a5,s4
    183c:	0007c503          	lbu	a0,0(a5)
    1840:	0c05                	addi	s8,s8,1
    1842:	3329                	jal	154c <oled_wrdat>
    1844:	ff5c19e3          	bne	s8,s5,1836 <oled_p6x8str+0x6a>
F:\数据\嘉立创比赛\程序\IOT_tuya\obj/../Libraries/seekfree_peripheral/SEEKFREE_OLED.c:301
	  	x+=6;
    1848:	0499                	addi	s1,s1,6
F:\数据\嘉立创比赛\程序\IOT_tuya\obj/../Libraries/seekfree_peripheral/SEEKFREE_OLED.c:302
	  	j++;
    184a:	0905                	addi	s2,s2,1
F:\数据\嘉立创比赛\程序\IOT_tuya\obj/../Libraries/seekfree_peripheral/SEEKFREE_OLED.c:301
	  	x+=6;
    184c:	0ff4f493          	andi	s1,s1,255
F:\数据\嘉立创比赛\程序\IOT_tuya\obj/../Libraries/seekfree_peripheral/SEEKFREE_OLED.c:302
	  	j++;
    1850:	0ff97913          	andi	s2,s2,255
    1854:	b74d                	j	17f6 <oled_p6x8str+0x2a>

00001856 <oled_printf_float>:
oled_printf_float():
F:\数据\嘉立创比赛\程序\IOT_tuya\obj/../Libraries/seekfree_peripheral/SEEKFREE_OLED.c:426
//                          可能是由于浮点数精度丢失问题导致的，这并不是显示函数的问题，
//                          有关问题的详情，请自行百度学习   浮点数精度丢失问题。
//                          负数会显示一个 ‘-’号   正数显示一个空格
//-------------------------------------------------------------------------------------------------------------------
void oled_printf_float(uint16 x,uint16 y,double dat,uint8 num,uint8 pointnum)
{
    1856:	715d                	addi	sp,sp,-80
    1858:	c2a6                	sw	s1,68(sp)
    185a:	c0ca                	sw	s2,64(sp)
    185c:	de4e                	sw	s3,60(sp)
    185e:	dc52                	sw	s4,56(sp)
    1860:	da56                	sw	s5,52(sp)
    1862:	89b6                	mv	s3,a3
    1864:	c686                	sw	ra,76(sp)
    1866:	c4a2                	sw	s0,72(sp)
    1868:	4699                	li	a3,6
    186a:	8a2a                	mv	s4,a0
    186c:	8aae                	mv	s5,a1
    186e:	8932                	mv	s2,a2
    1870:	4499                	li	s1,6
    1872:	00f6e463          	bltu	a3,a5,187a <oled_printf_float+0x24>
    1876:	0ff7f493          	andi	s1,a5,255
F:\数据\嘉立创比赛\程序\IOT_tuya\obj/../Libraries/seekfree_peripheral/SEEKFREE_OLED.c:432
    uint8   length;
	int8    buff[34];
	int8    start,end,point;

	if(6<pointnum)  pointnum = 6;
    if(10<num)      num = 10;
    187a:	46a9                	li	a3,10
    187c:	87ba                	mv	a5,a4
    187e:	00e6f363          	bgeu	a3,a4,1884 <oled_printf_float+0x2e>
    1882:	47a9                	li	a5,10
F:\数据\嘉立创比赛\程序\IOT_tuya\obj/../Libraries/seekfree_peripheral/SEEKFREE_OLED.c:434
        
    if(0>dat)   length = zf_sprintf( &buff[0],"%f",dat);//负数
    1884:	4601                	li	a2,0
    1886:	4681                	li	a3,0
    1888:	85ce                	mv	a1,s3
    188a:	854a                	mv	a0,s2
    188c:	0ff7f413          	andi	s0,a5,255
    1890:	76b000ef          	jal	ra,27fa <__ledf2>
    1894:	000065b7          	lui	a1,0x6
    1898:	864a                	mv	a2,s2
    189a:	86ce                	mv	a3,s3
    189c:	92058593          	addi	a1,a1,-1760 # 5920 <__func__.3170+0x10>
    18a0:	08055163          	bgez	a0,1922 <oled_printf_float+0xcc>
F:\数据\嘉立创比赛\程序\IOT_tuya\obj/../Libraries/seekfree_peripheral/SEEKFREE_OLED.c:434 (discriminator 1)
    18a4:	0068                	addi	a0,sp,12
    18a6:	222d                	jal	19d0 <zf_sprintf>
    18a8:	fff44793          	not	a5,s0
F:\数据\嘉立创比赛\程序\IOT_tuya\obj/../Libraries/seekfree_peripheral/SEEKFREE_OLED.c:438
    else
    {
        length = zf_sprintf( &buff[1],"%f",dat);
        length++;
    18ac:	0ff57513          	andi	a0,a0,255
F:\数据\嘉立创比赛\程序\IOT_tuya\obj/../Libraries/seekfree_peripheral/SEEKFREE_OLED.c:441
    }
    point = length - 7;         //计算小数点位置
    start = point - num - 1;    //计算起始位
    18b0:	0ff7f793          	andi	a5,a5,255
F:\数据\嘉立创比赛\程序\IOT_tuya\obj/../Libraries/seekfree_peripheral/SEEKFREE_OLED.c:440
    point = length - 7;         //计算小数点位置
    18b4:	ff950413          	addi	s0,a0,-7
F:\数据\嘉立创比赛\程序\IOT_tuya\obj/../Libraries/seekfree_peripheral/SEEKFREE_OLED.c:441
    start = point - num - 1;    //计算起始位
    18b8:	943e                	add	s0,s0,a5
    18ba:	0485                	addi	s1,s1,1
    18bc:	0462                	slli	s0,s0,0x18
    18be:	0ff4f493          	andi	s1,s1,255
    18c2:	8461                	srai	s0,s0,0x18
F:\数据\嘉立创比赛\程序\IOT_tuya\obj/../Libraries/seekfree_peripheral/SEEKFREE_OLED.c:443
    end = point + pointnum + 1; //计算结束位
    while(0>start)//整数位不够  末尾应该填充空格
    18c4:	40f487b3          	sub	a5,s1,a5
F:\数据\嘉立创比赛\程序\IOT_tuya\obj/../Libraries/seekfree_peripheral/SEEKFREE_OLED.c:445
    {
        buff[end] = ' ';
    18c8:	02000693          	li	a3,32
    18cc:	0ff47713          	andi	a4,s0,255
    18d0:	00f704b3          	add	s1,a4,a5
    18d4:	04e2                	slli	s1,s1,0x18
    18d6:	84e1                	srai	s1,s1,0x18
    18d8:	1810                	addi	a2,sp,48
    18da:	94b2                	add	s1,s1,a2
F:\数据\嘉立创比赛\程序\IOT_tuya\obj/../Libraries/seekfree_peripheral/SEEKFREE_OLED.c:443
    while(0>start)//整数位不够  末尾应该填充空格
    18dc:	04044863          	bltz	s0,192c <oled_printf_float+0xd6>
F:\数据\嘉立创比赛\程序\IOT_tuya\obj/../Libraries/seekfree_peripheral/SEEKFREE_OLED.c:450
        end++;
        start++;
    }
    
    if(0>dat)   buff[start] = '-';
    18e0:	4601                	li	a2,0
    18e2:	4681                	li	a3,0
    18e4:	854a                	mv	a0,s2
    18e6:	85ce                	mv	a1,s3
    18e8:	713000ef          	jal	ra,27fa <__ledf2>
    18ec:	181c                	addi	a5,sp,48
    18ee:	943e                	add	s0,s0,a5
    18f0:	02d00793          	li	a5,45
    18f4:	00054463          	bltz	a0,18fc <oled_printf_float+0xa6>
F:\数据\嘉立创比赛\程序\IOT_tuya\obj/../Libraries/seekfree_peripheral/SEEKFREE_OLED.c:451
    else        buff[start] = ' ';
    18f8:	02000793          	li	a5,32
    18fc:	fcf40e23          	sb	a5,-36(s0)
F:\数据\嘉立创比赛\程序\IOT_tuya\obj/../Libraries/seekfree_peripheral/SEEKFREE_OLED.c:455
    
    buff[end] = '\0';
    
    oled_p6x8str(x, y, buff);	//显示数字
    1900:	0070                	addi	a2,sp,12
    1902:	0ffaf593          	andi	a1,s5,255
    1906:	0ffa7513          	andi	a0,s4,255
F:\数据\嘉立创比赛\程序\IOT_tuya\obj/../Libraries/seekfree_peripheral/SEEKFREE_OLED.c:453
    buff[end] = '\0';
    190a:	fc048e23          	sb	zero,-36(s1) # 1fdc <gpio_set>
F:\数据\嘉立创比赛\程序\IOT_tuya\obj/../Libraries/seekfree_peripheral/SEEKFREE_OLED.c:455
    oled_p6x8str(x, y, buff);	//显示数字
    190e:	3d7d                	jal	17cc <oled_p6x8str>
F:\数据\嘉立创比赛\程序\IOT_tuya\obj/../Libraries/seekfree_peripheral/SEEKFREE_OLED.c:456
}
    1910:	40b6                	lw	ra,76(sp)
    1912:	4426                	lw	s0,72(sp)
    1914:	4496                	lw	s1,68(sp)
    1916:	4906                	lw	s2,64(sp)
    1918:	59f2                	lw	s3,60(sp)
    191a:	5a62                	lw	s4,56(sp)
    191c:	5ad2                	lw	s5,52(sp)
    191e:	6161                	addi	sp,sp,80
    1920:	8082                	ret
F:\数据\嘉立创比赛\程序\IOT_tuya\obj/../Libraries/seekfree_peripheral/SEEKFREE_OLED.c:437
        length = zf_sprintf( &buff[1],"%f",dat);
    1922:	00d10513          	addi	a0,sp,13
    1926:	206d                	jal	19d0 <zf_sprintf>
F:\数据\嘉立创比赛\程序\IOT_tuya\obj/../Libraries/seekfree_peripheral/SEEKFREE_OLED.c:438
        length++;
    1928:	0505                	addi	a0,a0,1
    192a:	bfbd                	j	18a8 <oled_printf_float+0x52>
F:\数据\嘉立创比赛\程序\IOT_tuya\obj/../Libraries/seekfree_peripheral/SEEKFREE_OLED.c:447
        start++;
    192c:	00170413          	addi	s0,a4,1 # 8001 <_data_lma+0x2375>
    1930:	0462                	slli	s0,s0,0x18
F:\数据\嘉立创比赛\程序\IOT_tuya\obj/../Libraries/seekfree_peripheral/SEEKFREE_OLED.c:445
        buff[end] = ' ';
    1932:	fcd48e23          	sb	a3,-36(s1)
F:\数据\嘉立创比赛\程序\IOT_tuya\obj/../Libraries/seekfree_peripheral/SEEKFREE_OLED.c:447
        start++;
    1936:	8461                	srai	s0,s0,0x18
    1938:	bf51                	j	18cc <oled_printf_float+0x76>

0000193a <number_conversion_ascii.part.0>:
number_conversion_ascii():
F:\数据\嘉立创比赛\程序\IOT_tuya\obj/../Libraries/seekfree_peripheral/SEEKFREE_PRINTF.c:18
    uint8   valid_num = 0;
    
    if(neg_type)
    {
        neg_dat = (int32)dat;
        if(neg_dat<0)   neg_dat = -neg_dat;
    193a:	41f55713          	srai	a4,a0,0x1f
    193e:	00a747b3          	xor	a5,a4,a0
    1942:	8f99                	sub	a5,a5,a4
    1944:	4705                	li	a4,1
    1946:	8f0d                	sub	a4,a4,a1
F:\数据\嘉立创比赛\程序\IOT_tuya\obj/../Libraries/seekfree_peripheral/SEEKFREE_PRINTF.c:21
        while(1)
        {
            *p = neg_dat%radix + '0';
    1948:	02c7e6b3          	rem	a3,a5,a2
    194c:	00e58533          	add	a0,a1,a4
    1950:	0ff57513          	andi	a0,a0,255
F:\数据\嘉立创比赛\程序\IOT_tuya\obj/../Libraries/seekfree_peripheral/SEEKFREE_PRINTF.c:22
            neg_dat = neg_dat/radix;
    1954:	02c7c7b3          	div	a5,a5,a2
F:\数据\嘉立创比赛\程序\IOT_tuya\obj/../Libraries/seekfree_peripheral/SEEKFREE_PRINTF.c:21
            *p = neg_dat%radix + '0';
    1958:	03068693          	addi	a3,a3,48
    195c:	00d58023          	sb	a3,0(a1)
F:\数据\嘉立创比赛\程序\IOT_tuya\obj/../Libraries/seekfree_peripheral/SEEKFREE_PRINTF.c:25
            valid_num++;
            
            if(!neg_dat) break;
    1960:	c399                	beqz	a5,1966 <number_conversion_ascii.part.0+0x2c>
F:\数据\嘉立创比赛\程序\IOT_tuya\obj/../Libraries/seekfree_peripheral/SEEKFREE_PRINTF.c:26
            p++;
    1962:	0585                	addi	a1,a1,1
    1964:	b7d5                	j	1948 <number_conversion_ascii.part.0+0xe>
F:\数据\嘉立创比赛\程序\IOT_tuya\obj/../Libraries/seekfree_peripheral/SEEKFREE_PRINTF.c:48
            if(!pos_dat) break;
            p++;
        }
    }
    return valid_num;
}
    1966:	8082                	ret

00001968 <number_conversion_ascii>:
F:\数据\嘉立创比赛\程序\IOT_tuya\obj/../Libraries/seekfree_peripheral/SEEKFREE_PRINTF.c:9
{
    1968:	872a                	mv	a4,a0
F:\数据\嘉立创比赛\程序\IOT_tuya\obj/../Libraries/seekfree_peripheral/SEEKFREE_PRINTF.c:15
    if(neg_type)
    196a:	c219                	beqz	a2,1970 <number_conversion_ascii+0x8>
    196c:	8636                	mv	a2,a3
    196e:	b7f1                	j	193a <number_conversion_ascii.part.0>
    1970:	4605                	li	a2,1
F:\数据\嘉立创比赛\程序\IOT_tuya\obj/../Libraries/seekfree_peripheral/SEEKFREE_PRINTF.c:35
            if(10 <= temp_data) temp_data += 'A'-10;
    1972:	4825                	li	a6,9
    1974:	8e0d                	sub	a2,a2,a1
F:\数据\嘉立创比赛\程序\IOT_tuya\obj/../Libraries/seekfree_peripheral/SEEKFREE_PRINTF.c:34
            temp_data = pos_dat%radix;
    1976:	02d77533          	remu	a0,a4,a3
    197a:	0ff57793          	andi	a5,a0,255
F:\数据\嘉立创比赛\程序\IOT_tuya\obj/../Libraries/seekfree_peripheral/SEEKFREE_PRINTF.c:35
            if(10 <= temp_data) temp_data += 'A'-10;
    197e:	02a87363          	bgeu	a6,a0,19a4 <number_conversion_ascii+0x3c>
F:\数据\嘉立创比赛\程序\IOT_tuya\obj/../Libraries/seekfree_peripheral/SEEKFREE_PRINTF.c:35 (discriminator 1)
    1982:	03778793          	addi	a5,a5,55
F:\数据\嘉立创比赛\程序\IOT_tuya\obj/../Libraries/seekfree_peripheral/SEEKFREE_PRINTF.c:36
            else                temp_data += '0';
    1986:	0ff7f793          	andi	a5,a5,255
F:\数据\嘉立创比赛\程序\IOT_tuya\obj/../Libraries/seekfree_peripheral/SEEKFREE_PRINTF.c:38
            *p = temp_data;
    198a:	00f58023          	sb	a5,0(a1)
F:\数据\嘉立创比赛\程序\IOT_tuya\obj/../Libraries/seekfree_peripheral/SEEKFREE_PRINTF.c:40
            pos_dat = pos_dat/radix;
    198e:	00c58533          	add	a0,a1,a2
    1992:	02d757b3          	divu	a5,a4,a3
F:\数据\嘉立创比赛\程序\IOT_tuya\obj/../Libraries/seekfree_peripheral/SEEKFREE_PRINTF.c:41
            valid_num++;
    1996:	0ff57513          	andi	a0,a0,255
F:\数据\嘉立创比赛\程序\IOT_tuya\obj/../Libraries/seekfree_peripheral/SEEKFREE_PRINTF.c:43
            if(!pos_dat) break;
    199a:	00d76863          	bltu	a4,a3,19aa <number_conversion_ascii+0x42>
F:\数据\嘉立创比赛\程序\IOT_tuya\obj/../Libraries/seekfree_peripheral/SEEKFREE_PRINTF.c:44
            p++;
    199e:	0585                	addi	a1,a1,1
F:\数据\嘉立创比赛\程序\IOT_tuya\obj/../Libraries/seekfree_peripheral/SEEKFREE_PRINTF.c:40
            pos_dat = pos_dat/radix;
    19a0:	873e                	mv	a4,a5
F:\数据\嘉立创比赛\程序\IOT_tuya\obj/../Libraries/seekfree_peripheral/SEEKFREE_PRINTF.c:34
            temp_data = pos_dat%radix;
    19a2:	bfd1                	j	1976 <number_conversion_ascii+0xe>
F:\数据\嘉立创比赛\程序\IOT_tuya\obj/../Libraries/seekfree_peripheral/SEEKFREE_PRINTF.c:36
            else                temp_data += '0';
    19a4:	03078793          	addi	a5,a5,48
    19a8:	bff9                	j	1986 <number_conversion_ascii+0x1e>
F:\数据\嘉立创比赛\程序\IOT_tuya\obj/../Libraries/seekfree_peripheral/SEEKFREE_PRINTF.c:48
}
    19aa:	8082                	ret

000019ac <printf_reverse_order>:
printf_reverse_order():
F:\数据\嘉立创比赛\程序\IOT_tuya\obj/../Libraries/seekfree_peripheral/SEEKFREE_PRINTF.c:54

void printf_reverse_order(int8 *d_buff, uint32 len)
{
    uint32 i;
    int8  temp_data;
    for(i=0;i<len/2;i++)
    19ac:	00b507b3          	add	a5,a0,a1
    19b0:	8185                	srli	a1,a1,0x1
    19b2:	95aa                	add	a1,a1,a0
    19b4:	17fd                	addi	a5,a5,-1
F:\数据\嘉立创比赛\程序\IOT_tuya\obj/../Libraries/seekfree_peripheral/SEEKFREE_PRINTF.c:54 (discriminator 1)
    19b6:	00b51363          	bne	a0,a1,19bc <printf_reverse_order+0x10>
F:\数据\嘉立创比赛\程序\IOT_tuya\obj/../Libraries/seekfree_peripheral/SEEKFREE_PRINTF.c:60
    {
        temp_data = d_buff[len-1-i];
        d_buff[len-1-i] = d_buff[i];
        d_buff[i] = temp_data; 
    }
}
    19ba:	8082                	ret
F:\数据\嘉立创比赛\程序\IOT_tuya\obj/../Libraries/seekfree_peripheral/SEEKFREE_PRINTF.c:57 (discriminator 3)
        d_buff[len-1-i] = d_buff[i];
    19bc:	00050683          	lb	a3,0(a0)
F:\数据\嘉立创比赛\程序\IOT_tuya\obj/../Libraries/seekfree_peripheral/SEEKFREE_PRINTF.c:56 (discriminator 3)
        temp_data = d_buff[len-1-i];
    19c0:	00078703          	lb	a4,0(a5)
F:\数据\嘉立创比赛\程序\IOT_tuya\obj/../Libraries/seekfree_peripheral/SEEKFREE_PRINTF.c:57 (discriminator 3)
        d_buff[len-1-i] = d_buff[i];
    19c4:	0505                	addi	a0,a0,1
    19c6:	00d78023          	sb	a3,0(a5)
F:\数据\嘉立创比赛\程序\IOT_tuya\obj/../Libraries/seekfree_peripheral/SEEKFREE_PRINTF.c:58 (discriminator 3)
        d_buff[i] = temp_data; 
    19ca:	fee50fa3          	sb	a4,-1(a0)
    19ce:	b7dd                	j	19b4 <printf_reverse_order+0x8>

000019d0 <zf_sprintf>:
zf_sprintf():
F:\数据\嘉立创比赛\程序\IOT_tuya\obj/../Libraries/seekfree_peripheral/SEEKFREE_PRINTF.c:196
//#endif
//}


uint32 zf_sprintf(int8 *buff, const int8 *format, ...)
{
    19d0:	7175                	addi	sp,sp,-144
    19d2:	c33e                	sw	a5,132(sp)
F:\数据\嘉立创比赛\程序\IOT_tuya\obj/../Libraries/seekfree_peripheral/SEEKFREE_PRINTF.c:199
    uint32 buff_len=0;
    va_list arg;
	va_start(arg, format);
    19d4:	18bc                	addi	a5,sp,120
    19d6:	c43e                	sw	a5,8(sp)
F:\数据\嘉立创比赛\程序\IOT_tuya\obj/../Libraries/seekfree_peripheral/SEEKFREE_PRINTF.c:262
                    printf_reverse_order(vstr,vlen);
                    memcpy(buff,vstr,vlen);
                    buff += vlen;
                    buff_len += vlen;

                    ival = ((double)ival - (int32)ival)*1000000;
    19d8:	000067b7          	lui	a5,0x6
F:\数据\嘉立创比赛\程序\IOT_tuya\obj/../Libraries/seekfree_peripheral/SEEKFREE_PRINTF.c:196
{
    19dc:	ccd2                	sw	s4,88(sp)
    19de:	cad6                	sw	s5,84(sp)
F:\数据\嘉立创比赛\程序\IOT_tuya\obj/../Libraries/seekfree_peripheral/SEEKFREE_PRINTF.c:262
                    ival = ((double)ival - (int32)ival)*1000000;
    19e0:	9787aa03          	lw	s4,-1672(a5) # 5978 <__func__.3170+0x68>
    19e4:	97c7aa83          	lw	s5,-1668(a5)
F:\数据\嘉立创比赛\程序\IOT_tuya\obj/../Libraries/seekfree_peripheral/SEEKFREE_PRINTF.c:196
{
    19e8:	cece                	sw	s3,92(sp)
    19ea:	c4e2                	sw	s8,72(sp)
F:\数据\嘉立创比赛\程序\IOT_tuya\obj/../Libraries/seekfree_peripheral/SEEKFREE_PRINTF.c:269
                    {
                        vlen = number_conversion_ascii((uint32)(int32)ival, vstr, 1, 10);
                    }
                    else
                    {
                        vstr[0] = vstr[1] = vstr[2] = vstr[3] = vstr[4] = vstr[5] = '0';
    19ec:	303039b7          	lui	s3,0x30303
    19f0:	6c0d                	lui	s8,0x3
F:\数据\嘉立创比赛\程序\IOT_tuya\obj/../Libraries/seekfree_peripheral/SEEKFREE_PRINTF.c:196
{
    19f2:	d4a2                	sw	s0,104(sp)
    19f4:	d2a6                	sw	s1,100(sp)
    19f6:	d0ca                	sw	s2,96(sp)
    19f8:	d686                	sw	ra,108(sp)
    19fa:	c8da                	sw	s6,80(sp)
    19fc:	c6de                	sw	s7,76(sp)
    19fe:	c2e6                	sw	s9,68(sp)
    1a00:	c0ea                	sw	s10,64(sp)
    1a02:	de6e                	sw	s11,60(sp)
    1a04:	84aa                	mv	s1,a0
    1a06:	dcb2                	sw	a2,120(sp)
    1a08:	deb6                	sw	a3,124(sp)
    1a0a:	c13a                	sw	a4,128(sp)
    1a0c:	c542                	sw	a6,136(sp)
    1a0e:	c746                	sw	a7,140(sp)
F:\数据\嘉立创比赛\程序\IOT_tuya\obj/../Libraries/seekfree_peripheral/SEEKFREE_PRINTF.c:197
    uint32 buff_len=0;
    1a10:	4401                	li	s0,0
F:\数据\嘉立创比赛\程序\IOT_tuya\obj/../Libraries/seekfree_peripheral/SEEKFREE_PRINTF.c:204
		if (ret == '%')
    1a12:	02500913          	li	s2,37
F:\数据\嘉立创比赛\程序\IOT_tuya\obj/../Libraries/seekfree_peripheral/SEEKFREE_PRINTF.c:269
                        vstr[0] = vstr[1] = vstr[2] = vstr[3] = vstr[4] = vstr[5] = '0';
    1a16:	03098993          	addi	s3,s3,48 # 30303030 <_eusrstack+0x102fe030>
    1a1a:	030c0c13          	addi	s8,s8,48 # 3030 <__subdf3+0x2c8>
F:\数据\嘉立创比赛\程序\IOT_tuya\obj/../Libraries/seekfree_peripheral/SEEKFREE_PRINTF.c:201
	while (*format)
    1a1e:	00058783          	lb	a5,0(a1)
    1a22:	e38d                	bnez	a5,1a44 <zf_sprintf+0x74>
F:\数据\嘉立创比赛\程序\IOT_tuya\obj/../Libraries/seekfree_peripheral/SEEKFREE_PRINTF.c:375
		format++;
	}
	va_end(arg);

    return buff_len;
}
    1a24:	8522                	mv	a0,s0
    1a26:	50b6                	lw	ra,108(sp)
    1a28:	5426                	lw	s0,104(sp)
    1a2a:	5496                	lw	s1,100(sp)
    1a2c:	5906                	lw	s2,96(sp)
    1a2e:	49f6                	lw	s3,92(sp)
    1a30:	4a66                	lw	s4,88(sp)
    1a32:	4ad6                	lw	s5,84(sp)
    1a34:	4b46                	lw	s6,80(sp)
    1a36:	4bb6                	lw	s7,76(sp)
    1a38:	4c26                	lw	s8,72(sp)
    1a3a:	4c96                	lw	s9,68(sp)
    1a3c:	4d06                	lw	s10,64(sp)
    1a3e:	5df2                	lw	s11,60(sp)
    1a40:	6149                	addi	sp,sp,144
    1a42:	8082                	ret
F:\数据\嘉立创比赛\程序\IOT_tuya\obj/../Libraries/seekfree_peripheral/SEEKFREE_PRINTF.c:204
		if (ret == '%')
    1a44:	00158c93          	addi	s9,a1,1
    1a48:	21279f63          	bne	a5,s2,1c66 <zf_sprintf+0x296>
F:\数据\嘉立创比赛\程序\IOT_tuya\obj/../Libraries/seekfree_peripheral/SEEKFREE_PRINTF.c:206
			switch (*++format)
    1a4c:	00158783          	lb	a5,1(a1)
    1a50:	06600713          	li	a4,102
    1a54:	0ee78663          	beq	a5,a4,1b40 <zf_sprintf+0x170>
    1a58:	06f74b63          	blt	a4,a5,1ace <zf_sprintf+0xfe>
    1a5c:	05800713          	li	a4,88
    1a60:	1ce78a63          	beq	a5,a4,1c34 <zf_sprintf+0x264>
    1a64:	00f74b63          	blt	a4,a5,1a7a <zf_sprintf+0xaa>
    1a68:	1f278c63          	beq	a5,s2,1c60 <zf_sprintf+0x290>
    1a6c:	04600713          	li	a4,70
    1a70:	0ce78863          	beq	a5,a4,1b40 <zf_sprintf+0x170>
F:\数据\嘉立创比赛\程序\IOT_tuya\obj/../Libraries/seekfree_peripheral/SEEKFREE_PRINTF.c:370
		format++;
    1a74:	001c8593          	addi	a1,s9,1
    1a78:	b75d                	j	1a1e <zf_sprintf+0x4e>
    1a7a:	06300713          	li	a4,99
    1a7e:	0ae78763          	beq	a5,a4,1b2c <zf_sprintf+0x15c>
    1a82:	06400713          	li	a4,100
    1a86:	fee797e3          	bne	a5,a4,1a74 <zf_sprintf+0xa4>
F:\数据\嘉立创比赛\程序\IOT_tuya\obj/../Libraries/seekfree_peripheral/SEEKFREE_PRINTF.c:229
                    int32 ival = (int32)va_arg(arg, int32);
    1a8a:	47a2                	lw	a5,8(sp)
number_conversion_ascii():
F:\数据\嘉立创比赛\程序\IOT_tuya\obj/../Libraries/seekfree_peripheral/SEEKFREE_PRINTF.c:229
    1a8c:	4629                	li	a2,10
    1a8e:	006c                	addi	a1,sp,12
zf_sprintf():
F:\数据\嘉立创比赛\程序\IOT_tuya\obj/../Libraries/seekfree_peripheral/SEEKFREE_PRINTF.c:229
    1a90:	0007ab83          	lw	s7,0(a5)
    1a94:	00478713          	addi	a4,a5,4
    1a98:	c43a                	sw	a4,8(sp)
number_conversion_ascii():
F:\数据\嘉立创比赛\程序\IOT_tuya\obj/../Libraries/seekfree_peripheral/SEEKFREE_PRINTF.c:229
    1a9a:	855e                	mv	a0,s7
    1a9c:	3d79                	jal	193a <number_conversion_ascii.part.0>
    1a9e:	8b2a                	mv	s6,a0
zf_sprintf():
F:\数据\嘉立创比赛\程序\IOT_tuya\obj/../Libraries/seekfree_peripheral/SEEKFREE_PRINTF.c:232
                    if(ival<0)  
    1aa0:	000bdc63          	bgez	s7,1ab8 <zf_sprintf+0xe8>
F:\数据\嘉立创比赛\程序\IOT_tuya\obj/../Libraries/seekfree_peripheral/SEEKFREE_PRINTF.c:234
                        vstr[vlen] = '-';
    1aa4:	181c                	addi	a5,sp,48
    1aa6:	97aa                	add	a5,a5,a0
    1aa8:	02d00713          	li	a4,45
F:\数据\嘉立创比赛\程序\IOT_tuya\obj/../Libraries/seekfree_peripheral/SEEKFREE_PRINTF.c:235
                        vlen++;
    1aac:	00150b13          	addi	s6,a0,1
F:\数据\嘉立创比赛\程序\IOT_tuya\obj/../Libraries/seekfree_peripheral/SEEKFREE_PRINTF.c:234
                        vstr[vlen] = '-';
    1ab0:	fce78e23          	sb	a4,-36(a5)
F:\数据\嘉立创比赛\程序\IOT_tuya\obj/../Libraries/seekfree_peripheral/SEEKFREE_PRINTF.c:235
                        vlen++;
    1ab4:	0ffb7b13          	andi	s6,s6,255
F:\数据\嘉立创比赛\程序\IOT_tuya\obj/../Libraries/seekfree_peripheral/SEEKFREE_PRINTF.c:321
                    printf_reverse_order(vstr,vlen);
    1ab8:	85da                	mv	a1,s6
    1aba:	0068                	addi	a0,sp,12
    1abc:	3dc5                	jal	19ac <printf_reverse_order>
F:\数据\嘉立创比赛\程序\IOT_tuya\obj/../Libraries/seekfree_peripheral/SEEKFREE_PRINTF.c:322
                    memcpy(buff,vstr,vlen);
    1abe:	8526                	mv	a0,s1
    1ac0:	865a                	mv	a2,s6
    1ac2:	006c                	addi	a1,sp,12
    1ac4:	7fe020ef          	jal	ra,42c2 <memcpy>
F:\数据\嘉立创比赛\程序\IOT_tuya\obj/../Libraries/seekfree_peripheral/SEEKFREE_PRINTF.c:323
                    buff += vlen;
    1ac8:	94da                	add	s1,s1,s6
F:\数据\嘉立创比赛\程序\IOT_tuya\obj/../Libraries/seekfree_peripheral/SEEKFREE_PRINTF.c:324
                    buff_len += vlen;
    1aca:	945a                	add	s0,s0,s6
F:\数据\嘉立创比赛\程序\IOT_tuya\obj/../Libraries/seekfree_peripheral/SEEKFREE_PRINTF.c:325
                }break;
    1acc:	b765                	j	1a74 <zf_sprintf+0xa4>
    1ace:	07000713          	li	a4,112
    1ad2:	16e78c63          	beq	a5,a4,1c4a <zf_sprintf+0x27a>
    1ad6:	02f74063          	blt	a4,a5,1af6 <zf_sprintf+0x126>
    1ada:	06900713          	li	a4,105
    1ade:	fae786e3          	beq	a5,a4,1a8a <zf_sprintf+0xba>
    1ae2:	06f00713          	li	a4,111
    1ae6:	f8e797e3          	bne	a5,a4,1a74 <zf_sprintf+0xa4>
F:\数据\嘉立创比赛\程序\IOT_tuya\obj/../Libraries/seekfree_peripheral/SEEKFREE_PRINTF.c:304
                    uint32 ival = (uint32)va_arg(arg, uint32);
    1aea:	47a2                	lw	a5,8(sp)
F:\数据\嘉立创比赛\程序\IOT_tuya\obj/../Libraries/seekfree_peripheral/SEEKFREE_PRINTF.c:305
                    uint8 vlen = number_conversion_ascii(ival, vstr, 0, 8);
    1aec:	46a1                	li	a3,8
F:\数据\嘉立创比赛\程序\IOT_tuya\obj/../Libraries/seekfree_peripheral/SEEKFREE_PRINTF.c:304
                    uint32 ival = (uint32)va_arg(arg, uint32);
    1aee:	00478713          	addi	a4,a5,4
    1af2:	c43a                	sw	a4,8(sp)
F:\数据\嘉立创比赛\程序\IOT_tuya\obj/../Libraries/seekfree_peripheral/SEEKFREE_PRINTF.c:305
                    uint8 vlen = number_conversion_ascii(ival, vstr, 0, 8);
    1af4:	aa15                	j	1c28 <zf_sprintf+0x258>
    1af6:	07500713          	li	a4,117
    1afa:	12e78263          	beq	a5,a4,1c1e <zf_sprintf+0x24e>
    1afe:	07800713          	li	a4,120
    1b02:	12e78963          	beq	a5,a4,1c34 <zf_sprintf+0x264>
    1b06:	07300713          	li	a4,115
    1b0a:	f6e795e3          	bne	a5,a4,1a74 <zf_sprintf+0xa4>
F:\数据\嘉立创比赛\程序\IOT_tuya\obj/../Libraries/seekfree_peripheral/SEEKFREE_PRINTF.c:330
                    int8 *pc = va_arg(arg, int8 *);
    1b0e:	47a2                	lw	a5,8(sp)
    1b10:	00478713          	addi	a4,a5,4
    1b14:	4394                	lw	a3,0(a5)
    1b16:	c43a                	sw	a4,8(sp)
F:\数据\嘉立创比赛\程序\IOT_tuya\obj/../Libraries/seekfree_peripheral/SEEKFREE_PRINTF.c:331
                    while (*pc)
    1b18:	87a2                	mv	a5,s0
    1b1a:	40878733          	sub	a4,a5,s0
    1b1e:	9736                	add	a4,a4,a3
    1b20:	00070703          	lb	a4,0(a4)
    1b24:	10071e63          	bnez	a4,1c40 <zf_sprintf+0x270>
    1b28:	843e                	mv	s0,a5
    1b2a:	b7a9                	j	1a74 <zf_sprintf+0xa4>
F:\数据\嘉立创比赛\程序\IOT_tuya\obj/../Libraries/seekfree_peripheral/SEEKFREE_PRINTF.c:217
                    int8 ch = (int8)va_arg(arg, uint32);
    1b2c:	47a2                	lw	a5,8(sp)
    1b2e:	00478713          	addi	a4,a5,4
    1b32:	439c                	lw	a5,0(a5)
    1b34:	c43a                	sw	a4,8(sp)
    1b36:	00f48023          	sb	a5,0(s1)
F:\数据\嘉立创比赛\程序\IOT_tuya\obj/../Libraries/seekfree_peripheral/SEEKFREE_PRINTF.c:357
                    buff++;
    1b3a:	0485                	addi	s1,s1,1
F:\数据\嘉立创比赛\程序\IOT_tuya\obj/../Libraries/seekfree_peripheral/SEEKFREE_PRINTF.c:358
                    buff_len++;
    1b3c:	0405                	addi	s0,s0,1
F:\数据\嘉立创比赛\程序\IOT_tuya\obj/../Libraries/seekfree_peripheral/SEEKFREE_PRINTF.c:359
                }break;
    1b3e:	bf1d                	j	1a74 <zf_sprintf+0xa4>
F:\数据\嘉立创比赛\程序\IOT_tuya\obj/../Libraries/seekfree_peripheral/SEEKFREE_PRINTF.c:249
                    double ival = (double)va_arg(arg, double);
    1b40:	47a2                	lw	a5,8(sp)
    1b42:	079d                	addi	a5,a5,7
    1b44:	9be1                	andi	a5,a5,-8
    1b46:	0007ab03          	lw	s6,0(a5)
    1b4a:	0047ab83          	lw	s7,4(a5)
    1b4e:	00878713          	addi	a4,a5,8
F:\数据\嘉立创比赛\程序\IOT_tuya\obj/../Libraries/seekfree_peripheral/SEEKFREE_PRINTF.c:250
                    uint8 vlen = number_conversion_ascii((uint32)(int32)ival, vstr, 1, 10);
    1b52:	855a                	mv	a0,s6
    1b54:	85de                	mv	a1,s7
F:\数据\嘉立创比赛\程序\IOT_tuya\obj/../Libraries/seekfree_peripheral/SEEKFREE_PRINTF.c:249
                    double ival = (double)va_arg(arg, double);
    1b56:	c43a                	sw	a4,8(sp)
F:\数据\嘉立创比赛\程序\IOT_tuya\obj/../Libraries/seekfree_peripheral/SEEKFREE_PRINTF.c:250
                    uint8 vlen = number_conversion_ascii((uint32)(int32)ival, vstr, 1, 10);
    1b58:	14f010ef          	jal	ra,34a6 <__fixdfsi>
number_conversion_ascii():
F:\数据\嘉立创比赛\程序\IOT_tuya\obj/../Libraries/seekfree_peripheral/SEEKFREE_PRINTF.c:250
    1b5c:	4629                	li	a2,10
    1b5e:	006c                	addi	a1,sp,12
zf_sprintf():
F:\数据\嘉立创比赛\程序\IOT_tuya\obj/../Libraries/seekfree_peripheral/SEEKFREE_PRINTF.c:250
    1b60:	8daa                	mv	s11,a0
number_conversion_ascii():
F:\数据\嘉立创比赛\程序\IOT_tuya\obj/../Libraries/seekfree_peripheral/SEEKFREE_PRINTF.c:15
    if(neg_type)
    1b62:	3be1                	jal	193a <number_conversion_ascii.part.0>
    1b64:	8d2a                	mv	s10,a0
zf_sprintf():
F:\数据\嘉立创比赛\程序\IOT_tuya\obj/../Libraries/seekfree_peripheral/SEEKFREE_PRINTF.c:252
                    if(ival<0)  
    1b66:	4601                	li	a2,0
    1b68:	4681                	li	a3,0
    1b6a:	855a                	mv	a0,s6
    1b6c:	85de                	mv	a1,s7
    1b6e:	48d000ef          	jal	ra,27fa <__ledf2>
    1b72:	00055b63          	bgez	a0,1b88 <zf_sprintf+0x1b8>
F:\数据\嘉立创比赛\程序\IOT_tuya\obj/../Libraries/seekfree_peripheral/SEEKFREE_PRINTF.c:254
                        vstr[vlen] = '-';
    1b76:	181c                	addi	a5,sp,48
    1b78:	97ea                	add	a5,a5,s10
    1b7a:	02d00713          	li	a4,45
F:\数据\嘉立创比赛\程序\IOT_tuya\obj/../Libraries/seekfree_peripheral/SEEKFREE_PRINTF.c:255
                        vlen++;
    1b7e:	0d05                	addi	s10,s10,1
F:\数据\嘉立创比赛\程序\IOT_tuya\obj/../Libraries/seekfree_peripheral/SEEKFREE_PRINTF.c:254
                        vstr[vlen] = '-';
    1b80:	fce78e23          	sb	a4,-36(a5)
F:\数据\嘉立创比赛\程序\IOT_tuya\obj/../Libraries/seekfree_peripheral/SEEKFREE_PRINTF.c:255
                        vlen++;
    1b84:	0ffd7d13          	andi	s10,s10,255
F:\数据\嘉立创比赛\程序\IOT_tuya\obj/../Libraries/seekfree_peripheral/SEEKFREE_PRINTF.c:257
                    printf_reverse_order(vstr,vlen);
    1b88:	85ea                	mv	a1,s10
    1b8a:	0068                	addi	a0,sp,12
    1b8c:	3505                	jal	19ac <printf_reverse_order>
F:\数据\嘉立创比赛\程序\IOT_tuya\obj/../Libraries/seekfree_peripheral/SEEKFREE_PRINTF.c:258
                    memcpy(buff,vstr,vlen);
    1b8e:	866a                	mv	a2,s10
    1b90:	006c                	addi	a1,sp,12
    1b92:	8526                	mv	a0,s1
    1b94:	72e020ef          	jal	ra,42c2 <memcpy>
F:\数据\嘉立创比赛\程序\IOT_tuya\obj/../Libraries/seekfree_peripheral/SEEKFREE_PRINTF.c:262
                    ival = ((double)ival - (int32)ival)*1000000;
    1b98:	856e                	mv	a0,s11
    1b9a:	1d1010ef          	jal	ra,356a <__floatsidf>
    1b9e:	862a                	mv	a2,a0
    1ba0:	86ae                	mv	a3,a1
    1ba2:	855a                	mv	a0,s6
    1ba4:	85de                	mv	a1,s7
    1ba6:	1c2010ef          	jal	ra,2d68 <__subdf3>
    1baa:	8652                	mv	a2,s4
    1bac:	86d6                	mv	a3,s5
    1bae:	503000ef          	jal	ra,28b0 <__muldf3>
F:\数据\嘉立创比赛\程序\IOT_tuya\obj/../Libraries/seekfree_peripheral/SEEKFREE_PRINTF.c:263
                    if(ival)
    1bb2:	4601                	li	a2,0
    1bb4:	4681                	li	a3,0
F:\数据\嘉立创比赛\程序\IOT_tuya\obj/../Libraries/seekfree_peripheral/SEEKFREE_PRINTF.c:259
                    buff += vlen;
    1bb6:	94ea                	add	s1,s1,s10
F:\数据\嘉立创比赛\程序\IOT_tuya\obj/../Libraries/seekfree_peripheral/SEEKFREE_PRINTF.c:262
                    ival = ((double)ival - (int32)ival)*1000000;
    1bb8:	8b2a                	mv	s6,a0
F:\数据\嘉立创比赛\程序\IOT_tuya\obj/../Libraries/seekfree_peripheral/SEEKFREE_PRINTF.c:260
                    buff_len += vlen;
    1bba:	9d22                	add	s10,s10,s0
F:\数据\嘉立创比赛\程序\IOT_tuya\obj/../Libraries/seekfree_peripheral/SEEKFREE_PRINTF.c:262
                    ival = ((double)ival - (int32)ival)*1000000;
    1bbc:	8bae                	mv	s7,a1
F:\数据\嘉立创比赛\程序\IOT_tuya\obj/../Libraries/seekfree_peripheral/SEEKFREE_PRINTF.c:263
                    if(ival)
    1bbe:	3d3000ef          	jal	ra,2790 <__eqdf2>
    1bc2:	c515                	beqz	a0,1bee <zf_sprintf+0x21e>
F:\数据\嘉立创比赛\程序\IOT_tuya\obj/../Libraries/seekfree_peripheral/SEEKFREE_PRINTF.c:265
                        vlen = number_conversion_ascii((uint32)(int32)ival, vstr, 1, 10);
    1bc4:	85de                	mv	a1,s7
    1bc6:	855a                	mv	a0,s6
    1bc8:	0df010ef          	jal	ra,34a6 <__fixdfsi>
number_conversion_ascii():
F:\数据\嘉立创比赛\程序\IOT_tuya\obj/../Libraries/seekfree_peripheral/SEEKFREE_PRINTF.c:265
    1bcc:	4629                	li	a2,10
    1bce:	006c                	addi	a1,sp,12
    1bd0:	33ad                	jal	193a <number_conversion_ascii.part.0>
F:\数据\嘉立创比赛\程序\IOT_tuya\obj/../Libraries/seekfree_peripheral/SEEKFREE_PRINTF.c:47
    return valid_num;
    1bd2:	007c                	addi	a5,sp,12
    1bd4:	97aa                	add	a5,a5,a0
zf_sprintf():
F:\数据\嘉立创比赛\程序\IOT_tuya\obj/../Libraries/seekfree_peripheral/SEEKFREE_PRINTF.c:273
                    while(6>vlen)
    1bd6:	4715                	li	a4,5
F:\数据\嘉立创比赛\程序\IOT_tuya\obj/../Libraries/seekfree_peripheral/SEEKFREE_PRINTF.c:275
                        vstr[vlen] = '0';
    1bd8:	03000693          	li	a3,48
F:\数据\嘉立创比赛\程序\IOT_tuya\obj/../Libraries/seekfree_peripheral/SEEKFREE_PRINTF.c:273
                    while(6>vlen)
    1bdc:	00a76d63          	bltu	a4,a0,1bf6 <zf_sprintf+0x226>
F:\数据\嘉立创比赛\程序\IOT_tuya\obj/../Libraries/seekfree_peripheral/SEEKFREE_PRINTF.c:275
                        vstr[vlen] = '0';
    1be0:	0505                	addi	a0,a0,1
    1be2:	00d78023          	sb	a3,0(a5)
F:\数据\嘉立创比赛\程序\IOT_tuya\obj/../Libraries/seekfree_peripheral/SEEKFREE_PRINTF.c:276
                        vlen++;
    1be6:	0ff57513          	andi	a0,a0,255
    1bea:	0785                	addi	a5,a5,1
    1bec:	bfc5                	j	1bdc <zf_sprintf+0x20c>
F:\数据\嘉立创比赛\程序\IOT_tuya\obj/../Libraries/seekfree_peripheral/SEEKFREE_PRINTF.c:269
                        vstr[0] = vstr[1] = vstr[2] = vstr[3] = vstr[4] = vstr[5] = '0';
    1bee:	c64e                	sw	s3,12(sp)
    1bf0:	01811823          	sh	s8,16(sp)
F:\数据\嘉立创比赛\程序\IOT_tuya\obj/../Libraries/seekfree_peripheral/SEEKFREE_PRINTF.c:270
                        vlen = 6;
    1bf4:	4519                	li	a0,6
F:\数据\嘉立创比赛\程序\IOT_tuya\obj/../Libraries/seekfree_peripheral/SEEKFREE_PRINTF.c:280
                    vlen++;
    1bf6:	00150413          	addi	s0,a0,1
F:\数据\嘉立创比赛\程序\IOT_tuya\obj/../Libraries/seekfree_peripheral/SEEKFREE_PRINTF.c:282
                    printf_reverse_order(vstr,vlen);
    1bfa:	0ff47413          	andi	s0,s0,255
F:\数据\嘉立创比赛\程序\IOT_tuya\obj/../Libraries/seekfree_peripheral/SEEKFREE_PRINTF.c:279
                    vstr[vlen] = '.';
    1bfe:	181c                	addi	a5,sp,48
    1c00:	97aa                	add	a5,a5,a0
    1c02:	02e00713          	li	a4,46
F:\数据\嘉立创比赛\程序\IOT_tuya\obj/../Libraries/seekfree_peripheral/SEEKFREE_PRINTF.c:282
                    printf_reverse_order(vstr,vlen);
    1c06:	85a2                	mv	a1,s0
    1c08:	0068                	addi	a0,sp,12
F:\数据\嘉立创比赛\程序\IOT_tuya\obj/../Libraries/seekfree_peripheral/SEEKFREE_PRINTF.c:279
                    vstr[vlen] = '.';
    1c0a:	fce78e23          	sb	a4,-36(a5)
F:\数据\嘉立创比赛\程序\IOT_tuya\obj/../Libraries/seekfree_peripheral/SEEKFREE_PRINTF.c:282
                    printf_reverse_order(vstr,vlen);
    1c0e:	3b79                	jal	19ac <printf_reverse_order>
F:\数据\嘉立创比赛\程序\IOT_tuya\obj/../Libraries/seekfree_peripheral/SEEKFREE_PRINTF.c:283
                    memcpy(buff,vstr,vlen);
    1c10:	8622                	mv	a2,s0
    1c12:	006c                	addi	a1,sp,12
    1c14:	8526                	mv	a0,s1
    1c16:	6ac020ef          	jal	ra,42c2 <memcpy>
F:\数据\嘉立创比赛\程序\IOT_tuya\obj/../Libraries/seekfree_peripheral/SEEKFREE_PRINTF.c:284
                    buff_len += vlen;
    1c1a:	946a                	add	s0,s0,s10
F:\数据\嘉立创比赛\程序\IOT_tuya\obj/../Libraries/seekfree_peripheral/SEEKFREE_PRINTF.c:286
                    break;
    1c1c:	bda1                	j	1a74 <zf_sprintf+0xa4>
F:\数据\嘉立创比赛\程序\IOT_tuya\obj/../Libraries/seekfree_peripheral/SEEKFREE_PRINTF.c:292
                    uint32 ival = (uint32)va_arg(arg, uint32);
    1c1e:	47a2                	lw	a5,8(sp)
F:\数据\嘉立创比赛\程序\IOT_tuya\obj/../Libraries/seekfree_peripheral/SEEKFREE_PRINTF.c:293
                    uint8 vlen = number_conversion_ascii(ival, vstr, 0, 10);
    1c20:	46a9                	li	a3,10
F:\数据\嘉立创比赛\程序\IOT_tuya\obj/../Libraries/seekfree_peripheral/SEEKFREE_PRINTF.c:292
                    uint32 ival = (uint32)va_arg(arg, uint32);
    1c22:	00478713          	addi	a4,a5,4
    1c26:	c43a                	sw	a4,8(sp)
F:\数据\嘉立创比赛\程序\IOT_tuya\obj/../Libraries/seekfree_peripheral/SEEKFREE_PRINTF.c:319
                    uint8 vlen = number_conversion_ascii(ival, vstr, 0, 16);
    1c28:	4388                	lw	a0,0(a5)
    1c2a:	4601                	li	a2,0
    1c2c:	006c                	addi	a1,sp,12
    1c2e:	3b2d                	jal	1968 <number_conversion_ascii>
    1c30:	8b2a                	mv	s6,a0
    1c32:	b559                	j	1ab8 <zf_sprintf+0xe8>
F:\数据\嘉立创比赛\程序\IOT_tuya\obj/../Libraries/seekfree_peripheral/SEEKFREE_PRINTF.c:318
                    uint32 ival = (uint32)va_arg(arg, uint32);
    1c34:	47a2                	lw	a5,8(sp)
F:\数据\嘉立创比赛\程序\IOT_tuya\obj/../Libraries/seekfree_peripheral/SEEKFREE_PRINTF.c:319
                    uint8 vlen = number_conversion_ascii(ival, vstr, 0, 16);
    1c36:	46c1                	li	a3,16
F:\数据\嘉立创比赛\程序\IOT_tuya\obj/../Libraries/seekfree_peripheral/SEEKFREE_PRINTF.c:318
                    uint32 ival = (uint32)va_arg(arg, uint32);
    1c38:	00478713          	addi	a4,a5,4
    1c3c:	c43a                	sw	a4,8(sp)
F:\数据\嘉立创比赛\程序\IOT_tuya\obj/../Libraries/seekfree_peripheral/SEEKFREE_PRINTF.c:319
                    uint8 vlen = number_conversion_ascii(ival, vstr, 0, 16);
    1c3e:	b7ed                	j	1c28 <zf_sprintf+0x258>
F:\数据\嘉立创比赛\程序\IOT_tuya\obj/../Libraries/seekfree_peripheral/SEEKFREE_PRINTF.c:333
                        *buff = *pc;
    1c40:	00e48023          	sb	a4,0(s1)
F:\数据\嘉立创比赛\程序\IOT_tuya\obj/../Libraries/seekfree_peripheral/SEEKFREE_PRINTF.c:335
                        buff_len++;
    1c44:	0785                	addi	a5,a5,1
F:\数据\嘉立创比赛\程序\IOT_tuya\obj/../Libraries/seekfree_peripheral/SEEKFREE_PRINTF.c:334
                        buff++;
    1c46:	0485                	addi	s1,s1,1
F:\数据\嘉立创比赛\程序\IOT_tuya\obj/../Libraries/seekfree_peripheral/SEEKFREE_PRINTF.c:336
                        pc++;
    1c48:	bdc9                	j	1b1a <zf_sprintf+0x14a>
F:\数据\嘉立创比赛\程序\IOT_tuya\obj/../Libraries/seekfree_peripheral/SEEKFREE_PRINTF.c:346
                    printf_reverse_order(vstr,8);
    1c4a:	45a1                	li	a1,8
    1c4c:	0068                	addi	a0,sp,12
    1c4e:	3bb9                	jal	19ac <printf_reverse_order>
F:\数据\嘉立创比赛\程序\IOT_tuya\obj/../Libraries/seekfree_peripheral/SEEKFREE_PRINTF.c:347
                    memcpy(buff,vstr,8);
    1c50:	8526                	mv	a0,s1
    1c52:	4621                	li	a2,8
    1c54:	006c                	addi	a1,sp,12
    1c56:	66c020ef          	jal	ra,42c2 <memcpy>
F:\数据\嘉立创比赛\程序\IOT_tuya\obj/../Libraries/seekfree_peripheral/SEEKFREE_PRINTF.c:348
                    buff += 8;
    1c5a:	04a1                	addi	s1,s1,8
F:\数据\嘉立创比赛\程序\IOT_tuya\obj/../Libraries/seekfree_peripheral/SEEKFREE_PRINTF.c:349
                    buff_len += 8;
    1c5c:	0421                	addi	s0,s0,8
F:\数据\嘉立创比赛\程序\IOT_tuya\obj/../Libraries/seekfree_peripheral/SEEKFREE_PRINTF.c:351
                }break;
    1c5e:	bd19                	j	1a74 <zf_sprintf+0xa4>
F:\数据\嘉立创比赛\程序\IOT_tuya\obj/../Libraries/seekfree_peripheral/SEEKFREE_PRINTF.c:356
                    *buff = '%';
    1c60:	01248023          	sb	s2,0(s1)
    1c64:	bdd9                	j	1b3a <zf_sprintf+0x16a>
F:\数据\嘉立创比赛\程序\IOT_tuya\obj/../Libraries/seekfree_peripheral/SEEKFREE_PRINTF.c:366
            *buff = (int8)(*format);
    1c66:	00f48023          	sb	a5,0(s1)
F:\数据\嘉立创比赛\程序\IOT_tuya\obj/../Libraries/seekfree_peripheral/SEEKFREE_PRINTF.c:368
            buff_len++;
    1c6a:	0405                	addi	s0,s0,1
F:\数据\嘉立创比赛\程序\IOT_tuya\obj/../Libraries/seekfree_peripheral/SEEKFREE_PRINTF.c:367
            buff++;
    1c6c:	0485                	addi	s1,s1,1
F:\数据\嘉立创比赛\程序\IOT_tuya\obj/../Libraries/seekfree_peripheral/SEEKFREE_PRINTF.c:368
            buff_len++;
    1c6e:	8cae                	mv	s9,a1
    1c70:	b511                	j	1a74 <zf_sprintf+0xa4>

00001c72 <ccd_collect>:
ccd_collect():
F:\数据\嘉立创比赛\程序\IOT_tuya\obj/../Libraries/seekfree_peripheral/SEEKFREE_TSL1401.c:84
//  @return     void
//  @since      v1.0
//  Sample usage:               在isr.c里面先创建对应的中断函数，然后调用该函数(之后别忘记清除中断标志位)
//-------------------------------------------------------------------------------------------------------------------
void ccd_collect(void)
{
    1c72:	1101                	addi	sp,sp,-32
F:\数据\嘉立创比赛\程序\IOT_tuya\obj/../Libraries/seekfree_peripheral/SEEKFREE_TSL1401.c:87
    uint8 i = 0;

    CCD_CLK(1);
    1c74:	6799                	lui	a5,0x6
F:\数据\嘉立创比赛\程序\IOT_tuya\obj/../Libraries/seekfree_peripheral/SEEKFREE_TSL1401.c:84
{
    1c76:	cc22                	sw	s0,24(sp)
F:\数据\嘉立创比赛\程序\IOT_tuya\obj/../Libraries/seekfree_peripheral/SEEKFREE_TSL1401.c:87
    CCD_CLK(1);
    1c78:	9887a403          	lw	s0,-1656(a5) # 5988 <GPION+0x8>
F:\数据\嘉立创比赛\程序\IOT_tuya\obj/../Libraries/seekfree_peripheral/SEEKFREE_TSL1401.c:84
{
    1c7c:	ca26                	sw	s1,20(sp)
    1c7e:	c84a                	sw	s2,16(sp)
    1c80:	c64e                	sw	s3,12(sp)
    1c82:	ce06                	sw	ra,28(sp)
F:\数据\嘉立创比赛\程序\IOT_tuya\obj/../Libraries/seekfree_peripheral/SEEKFREE_TSL1401.c:87
    CCD_CLK(1);
    1c84:	4711                	li	a4,4
    1c86:	c818                	sw	a4,16(s0)
F:\数据\嘉立创比赛\程序\IOT_tuya\obj/../Libraries/seekfree_peripheral/SEEKFREE_TSL1401.c:88
    CCD_SI(0);
    1c88:	47a1                	li	a5,8
    1c8a:	c85c                	sw	a5,20(s0)
F:\数据\嘉立创比赛\程序\IOT_tuya\obj/../Libraries/seekfree_peripheral/SEEKFREE_TSL1401.c:89
    CCD_CLK(0);
    1c8c:	c858                	sw	a4,20(s0)
F:\数据\嘉立创比赛\程序\IOT_tuya\obj/../Libraries/seekfree_peripheral/SEEKFREE_TSL1401.c:90
    CCD_SI(1);
    1c8e:	c81c                	sw	a5,16(s0)
F:\数据\嘉立创比赛\程序\IOT_tuya\obj/../Libraries/seekfree_peripheral/SEEKFREE_TSL1401.c:91
    CCD_CLK(1);
    1c90:	200024b7          	lui	s1,0x20002
    1c94:	c818                	sw	a4,16(s0)
F:\数据\嘉立创比赛\程序\IOT_tuya\obj/../Libraries/seekfree_peripheral/SEEKFREE_TSL1401.c:92
    CCD_SI(0);
    1c96:	60448493          	addi	s1,s1,1540 # 20002604 <ccd_data>
    1c9a:	c85c                	sw	a5,20(s0)
F:\数据\嘉立创比赛\程序\IOT_tuya\obj/../Libraries/seekfree_peripheral/SEEKFREE_TSL1401.c:94

    for(i=0;i<128;i++)
    1c9c:	10048993          	addi	s3,s1,256
F:\数据\嘉立创比赛\程序\IOT_tuya\obj/../Libraries/seekfree_peripheral/SEEKFREE_TSL1401.c:96
    {
        CCD_CLK(0);
    1ca0:	4911                	li	s2,4
F:\数据\嘉立创比赛\程序\IOT_tuya\obj/../Libraries/seekfree_peripheral/SEEKFREE_TSL1401.c:96 (discriminator 3)
    1ca2:	01242a23          	sw	s2,20(s0)
F:\数据\嘉立创比赛\程序\IOT_tuya\obj/../Libraries/seekfree_peripheral/SEEKFREE_TSL1401.c:98 (discriminator 3)
        //这里可以同时采集两个CCD数据
        ccd_data[i] = adc_convert(AD_CHANNEL, AD_RESOLUTION);
    1ca6:	4581                	li	a1,0
    1ca8:	4529                	li	a0,10
    1caa:	2419                	jal	1eb0 <adc_convert>
    1cac:	00a49023          	sh	a0,0(s1)
F:\数据\嘉立创比赛\程序\IOT_tuya\obj/../Libraries/seekfree_peripheral/SEEKFREE_TSL1401.c:100 (discriminator 3)
        //ccd_data_two[i] = adc_convert(AD_CHANNEL, AD_RESOLUTION);
        CCD_CLK(1);
    1cb0:	01242823          	sw	s2,16(s0)
    1cb4:	0489                	addi	s1,s1,2
F:\数据\嘉立创比赛\程序\IOT_tuya\obj/../Libraries/seekfree_peripheral/SEEKFREE_TSL1401.c:94 (discriminator 3)
    for(i=0;i<128;i++)
    1cb6:	ff3496e3          	bne	s1,s3,1ca2 <ccd_collect+0x30>
F:\数据\嘉立创比赛\程序\IOT_tuya\obj/../Libraries/seekfree_peripheral/SEEKFREE_TSL1401.c:106
    }

    //采集完成标志位置1
    tsl1401_finish_flag = 1;

}
    1cba:	40f2                	lw	ra,28(sp)
    1cbc:	4462                	lw	s0,24(sp)
F:\数据\嘉立创比赛\程序\IOT_tuya\obj/../Libraries/seekfree_peripheral/SEEKFREE_TSL1401.c:104
    tsl1401_finish_flag = 1;
    1cbe:	200027b7          	lui	a5,0x20002
    1cc2:	4705                	li	a4,1
    1cc4:	70e78223          	sb	a4,1796(a5) # 20002704 <tsl1401_finish_flag>
F:\数据\嘉立创比赛\程序\IOT_tuya\obj/../Libraries/seekfree_peripheral/SEEKFREE_TSL1401.c:106
}
    1cc8:	44d2                	lw	s1,20(sp)
    1cca:	4942                	lw	s2,16(sp)
    1ccc:	49b2                	lw	s3,12(sp)
    1cce:	6105                	addi	sp,sp,32
    1cd0:	8082                	ret

00001cd2 <ov7725_cof_uart_interrupt>:
ov7725_cof_uart_interrupt():
F:\数据\嘉立创比赛\程序\IOT_tuya\obj/../Libraries/seekfree_peripheral/SEEKFREE_UART_7725.c:53
//-------------------------------------------------------------------------------------------------------------------

void ov7725_cof_uart_interrupt(void)
{

    ov7725_uart_receive[ov7725_uart_receive_num] = ((USART_TypeDef*)UARTN[OV7725_UART_COF_UART])->DATAR & 0x01FF;
    1cd2:	6799                	lui	a5,0x6
    1cd4:	9947a783          	lw	a5,-1644(a5) # 5994 <UARTN+0x4>
    1cd8:	81c18713          	addi	a4,gp,-2020 # 2000008c <ov7725_uart_receive_num>
    1cdc:	0047d583          	lhu	a1,4(a5)
    1ce0:	00074783          	lbu	a5,0(a4)
    1ce4:	20003637          	lui	a2,0x20003
    1ce8:	06860693          	addi	a3,a2,104 # 20003068 <ov7725_uart_receive>
    1cec:	96be                	add	a3,a3,a5
F:\数据\嘉立创比赛\程序\IOT_tuya\obj/../Libraries/seekfree_peripheral/SEEKFREE_UART_7725.c:54
    ov7725_uart_receive_num++;
    1cee:	0785                	addi	a5,a5,1
    1cf0:	0ff7f793          	andi	a5,a5,255
F:\数据\嘉立创比赛\程序\IOT_tuya\obj/../Libraries/seekfree_peripheral/SEEKFREE_UART_7725.c:53
    ov7725_uart_receive[ov7725_uart_receive_num] = ((USART_TypeDef*)UARTN[OV7725_UART_COF_UART])->DATAR & 0x01FF;
    1cf4:	00b68023          	sb	a1,0(a3)
F:\数据\嘉立创比赛\程序\IOT_tuya\obj/../Libraries/seekfree_peripheral/SEEKFREE_UART_7725.c:54
    ov7725_uart_receive_num++;
    1cf8:	00f70023          	sb	a5,0(a4)
F:\数据\嘉立创比赛\程序\IOT_tuya\obj/../Libraries/seekfree_peripheral/SEEKFREE_UART_7725.c:56

    if(1==ov7725_uart_receive_num && 0XA5!=ov7725_uart_receive[0])  ov7725_uart_receive_num = 0;
    1cfc:	4685                	li	a3,1
    1cfe:	00d79b63          	bne	a5,a3,1d14 <ov7725_cof_uart_interrupt+0x42>
F:\数据\嘉立创比赛\程序\IOT_tuya\obj/../Libraries/seekfree_peripheral/SEEKFREE_UART_7725.c:56 (discriminator 1)
    1d02:	06864683          	lbu	a3,104(a2)
    1d06:	0a500793          	li	a5,165
    1d0a:	00f68c63          	beq	a3,a5,1d22 <ov7725_cof_uart_interrupt+0x50>
F:\数据\嘉立创比赛\程序\IOT_tuya\obj/../Libraries/seekfree_peripheral/SEEKFREE_UART_7725.c:56 (discriminator 2)
    1d0e:	00070023          	sb	zero,0(a4)
    1d12:	8082                	ret
F:\数据\嘉立创比赛\程序\IOT_tuya\obj/../Libraries/seekfree_peripheral/SEEKFREE_UART_7725.c:57
    if(3 == ov7725_uart_receive_num)
    1d14:	460d                	li	a2,3
    1d16:	00c79663          	bne	a5,a2,1d22 <ov7725_cof_uart_interrupt+0x50>
F:\数据\嘉立创比赛\程序\IOT_tuya\obj/../Libraries/seekfree_peripheral/SEEKFREE_UART_7725.c:59
    {
        ov7725_uart_receive_num = 0;
    1d1a:	00070023          	sb	zero,0(a4)
F:\数据\嘉立创比赛\程序\IOT_tuya\obj/../Libraries/seekfree_peripheral/SEEKFREE_UART_7725.c:60
        ov7725_uart_receive_flag = 1;
    1d1e:	80d18da3          	sb	a3,-2021(gp) # 2000008b <ov7725_uart_receive_flag>
F:\数据\嘉立创比赛\程序\IOT_tuya\obj/../Libraries/seekfree_peripheral/SEEKFREE_UART_7725.c:62
    }
}
    1d22:	8082                	ret

00001d24 <ov7725_uart_vsync>:
ov7725_uart_vsync():
F:\数据\嘉立创比赛\程序\IOT_tuya\obj/../Libraries/seekfree_peripheral/SEEKFREE_UART_7725.c:74
//  Sample usage:                   在isr.c里面先创建对应的中断函数，然后调用该函数(之后别忘记清除中断标志位)
//-------------------------------------------------------------------------------------------------------------------

void ov7725_uart_vsync(void)
{
    OV7725_UART_DMA_CH->CNTR = OV7725_UART_SIZE;             //设置当前DMA传输的剩余数量，向下递减，该寄存器只能在DMA不工作时更改。
    1d24:	6705                	lui	a4,0x1
    1d26:	400207b7          	lui	a5,0x40020
    1d2a:	96070713          	addi	a4,a4,-1696 # 960 <all_data_update+0x8>
    1d2e:	c7b8                	sw	a4,72(a5)
F:\数据\嘉立创比赛\程序\IOT_tuya\obj/../Libraries/seekfree_peripheral/SEEKFREE_UART_7725.c:75
    OV7725_UART_DMA_CH->CFGR |= DMA_CFGR1_EN;                //开启DMA1
    1d30:	43f8                	lw	a4,68(a5)
    1d32:	00176713          	ori	a4,a4,1
    1d36:	c3f8                	sw	a4,68(a5)
F:\数据\嘉立创比赛\程序\IOT_tuya\obj/../Libraries/seekfree_peripheral/SEEKFREE_UART_7725.c:76
}
    1d38:	8082                	ret

00001d3a <ov7725_uart_dma>:
ov7725_uart_dma():
F:\数据\嘉立创比赛\程序\IOT_tuya\obj/../Libraries/seekfree_peripheral/SEEKFREE_UART_7725.c:88
//  @since      v1.0
//  Sample usage:                   在isr.c里面先创建对应的中断函数，然后调用该函数(之后别忘记清除中断标志位)
//-------------------------------------------------------------------------------------------------------------------
void ov7725_uart_dma(void)
{
    ov7725_uart_finish_flag = 1;                             //摄像头数据采集置1
    1d3a:	4705                	li	a4,1
    1d3c:	80e18d23          	sb	a4,-2022(gp) # 2000008a <ov7725_uart_finish_flag>
F:\数据\嘉立创比赛\程序\IOT_tuya\obj/../Libraries/seekfree_peripheral/SEEKFREE_UART_7725.c:89
    OV7725_UART_DMA_CH->CFGR &= (uint16)(~DMA_CFGR1_EN);     //关闭DMA1
    1d40:	400206b7          	lui	a3,0x40020
    1d44:	42fc                	lw	a5,68(a3)
    1d46:	6741                	lui	a4,0x10
    1d48:	1779                	addi	a4,a4,-2
    1d4a:	8ff9                	and	a5,a5,a4
    1d4c:	c2fc                	sw	a5,68(a3)
F:\数据\嘉立创比赛\程序\IOT_tuya\obj/../Libraries/seekfree_peripheral/SEEKFREE_UART_7725.c:90
}
    1d4e:	8082                	ret

00001d50 <adc_gpio_init>:
adc_gpio_init():
F:\数据\嘉立创比赛\程序\IOT_tuya\obj/../Libraries/seekfree_libraries/zf_adc.c:36
//  @return     void
//  Sample usage:           内部使用  用户无需关心
//-------------------------------------------------------------------------------------------------------------------
void adc_gpio_init(ADCCH_enum ch)
{
    if(ADC_IN0_A0 == ch)            gpio_init(A0, GPI, 0, IN_AIN);
    1d50:	e509                	bnez	a0,1d5a <adc_gpio_init+0xa>
F:\数据\嘉立创比赛\程序\IOT_tuya\obj/../Libraries/seekfree_libraries/zf_adc.c:43
    else if(ADC_IN2_A2 == ch)       gpio_init(A2, GPI, 0, IN_AIN);
    else if(ADC_IN3_A3 == ch)       gpio_init(A3, GPI, 0, IN_AIN);
    else if(ADC_IN4_A4 == ch)       gpio_init(A4, GPI, 0, IN_AIN);
    else if(ADC_IN5_A5 == ch)       gpio_init(A5, GPI, 0, IN_AIN);
    else if(ADC_IN6_A6 == ch)       gpio_init(A6, GPI, 0, IN_AIN);
    else if(ADC_IN7_A7 == ch)       gpio_init(A7, GPI, 0, IN_AIN);
    1d52:	4681                	li	a3,0
    1d54:	4601                	li	a2,0
    1d56:	4581                	li	a1,0
F:\数据\嘉立创比赛\程序\IOT_tuya\obj/../Libraries/seekfree_libraries/zf_adc.c:51
    else if(ADC_IN10_C0 == ch)      gpio_init(C0, GPI, 0, IN_AIN);
    else if(ADC_IN11_C1 == ch)      gpio_init(C1, GPI, 0, IN_AIN);
    else if(ADC_IN12_C2 == ch)      gpio_init(C2, GPI, 0, IN_AIN);
    else if(ADC_IN13_C3 == ch)      gpio_init(C3, GPI, 0, IN_AIN);
    else if(ADC_IN14_C4 == ch)      gpio_init(C4, GPI, 0, IN_AIN);
    else if(ADC_IN15_C5 == ch)      gpio_init(C5, GPI, 0, IN_AIN);
    1d58:	a25d                	j	1efe <gpio_init>
F:\数据\嘉立创比赛\程序\IOT_tuya\obj/../Libraries/seekfree_libraries/zf_adc.c:37
    else if(ADC_IN1_A1 == ch)       gpio_init(A1, GPI, 0, IN_AIN);
    1d5a:	4705                	li	a4,1
    1d5c:	fee50be3          	beq	a0,a4,1d52 <adc_gpio_init+0x2>
F:\数据\嘉立创比赛\程序\IOT_tuya\obj/../Libraries/seekfree_libraries/zf_adc.c:38
    else if(ADC_IN2_A2 == ch)       gpio_init(A2, GPI, 0, IN_AIN);
    1d60:	4709                	li	a4,2
    1d62:	fee508e3          	beq	a0,a4,1d52 <adc_gpio_init+0x2>
F:\数据\嘉立创比赛\程序\IOT_tuya\obj/../Libraries/seekfree_libraries/zf_adc.c:39
    else if(ADC_IN3_A3 == ch)       gpio_init(A3, GPI, 0, IN_AIN);
    1d66:	470d                	li	a4,3
    1d68:	fee505e3          	beq	a0,a4,1d52 <adc_gpio_init+0x2>
F:\数据\嘉立创比赛\程序\IOT_tuya\obj/../Libraries/seekfree_libraries/zf_adc.c:40
    else if(ADC_IN4_A4 == ch)       gpio_init(A4, GPI, 0, IN_AIN);
    1d6c:	4711                	li	a4,4
    1d6e:	fee502e3          	beq	a0,a4,1d52 <adc_gpio_init+0x2>
F:\数据\嘉立创比赛\程序\IOT_tuya\obj/../Libraries/seekfree_libraries/zf_adc.c:41
    else if(ADC_IN5_A5 == ch)       gpio_init(A5, GPI, 0, IN_AIN);
    1d72:	4715                	li	a4,5
    1d74:	fce50fe3          	beq	a0,a4,1d52 <adc_gpio_init+0x2>
F:\数据\嘉立创比赛\程序\IOT_tuya\obj/../Libraries/seekfree_libraries/zf_adc.c:42
    else if(ADC_IN6_A6 == ch)       gpio_init(A6, GPI, 0, IN_AIN);
    1d78:	4719                	li	a4,6
    1d7a:	fce50ce3          	beq	a0,a4,1d52 <adc_gpio_init+0x2>
F:\数据\嘉立创比赛\程序\IOT_tuya\obj/../Libraries/seekfree_libraries/zf_adc.c:43
    else if(ADC_IN7_A7 == ch)       gpio_init(A7, GPI, 0, IN_AIN);
    1d7e:	471d                	li	a4,7
    1d80:	fce509e3          	beq	a0,a4,1d52 <adc_gpio_init+0x2>
F:\数据\嘉立创比赛\程序\IOT_tuya\obj/../Libraries/seekfree_libraries/zf_adc.c:44
    else if(ADC_IN8_B0 == ch)       gpio_init(B0, GPI, 0, IN_AIN);
    1d84:	4721                	li	a4,8
    1d86:	00e51863          	bne	a0,a4,1d96 <adc_gpio_init+0x46>
    1d8a:	4681                	li	a3,0
    1d8c:	4601                	li	a2,0
    1d8e:	4581                	li	a1,0
    1d90:	02000513          	li	a0,32
    1d94:	b7d1                	j	1d58 <adc_gpio_init+0x8>
F:\数据\嘉立创比赛\程序\IOT_tuya\obj/../Libraries/seekfree_libraries/zf_adc.c:45
    else if(ADC_IN9_B1 == ch)       gpio_init(B1, GPI, 0, IN_AIN);
    1d96:	4725                	li	a4,9
    1d98:	00e51863          	bne	a0,a4,1da8 <adc_gpio_init+0x58>
    1d9c:	4681                	li	a3,0
    1d9e:	4601                	li	a2,0
    1da0:	4581                	li	a1,0
    1da2:	02100513          	li	a0,33
    1da6:	bf4d                	j	1d58 <adc_gpio_init+0x8>
F:\数据\嘉立创比赛\程序\IOT_tuya\obj/../Libraries/seekfree_libraries/zf_adc.c:46
    else if(ADC_IN10_C0 == ch)      gpio_init(C0, GPI, 0, IN_AIN);
    1da8:	4729                	li	a4,10
    1daa:	00e51863          	bne	a0,a4,1dba <adc_gpio_init+0x6a>
    1dae:	4681                	li	a3,0
    1db0:	4601                	li	a2,0
    1db2:	4581                	li	a1,0
    1db4:	04000513          	li	a0,64
    1db8:	b745                	j	1d58 <adc_gpio_init+0x8>
F:\数据\嘉立创比赛\程序\IOT_tuya\obj/../Libraries/seekfree_libraries/zf_adc.c:47
    else if(ADC_IN11_C1 == ch)      gpio_init(C1, GPI, 0, IN_AIN);
    1dba:	472d                	li	a4,11
    1dbc:	00e51863          	bne	a0,a4,1dcc <adc_gpio_init+0x7c>
    1dc0:	4681                	li	a3,0
    1dc2:	4601                	li	a2,0
    1dc4:	4581                	li	a1,0
    1dc6:	04100513          	li	a0,65
    1dca:	b779                	j	1d58 <adc_gpio_init+0x8>
F:\数据\嘉立创比赛\程序\IOT_tuya\obj/../Libraries/seekfree_libraries/zf_adc.c:48
    else if(ADC_IN12_C2 == ch)      gpio_init(C2, GPI, 0, IN_AIN);
    1dcc:	4731                	li	a4,12
    1dce:	00e51863          	bne	a0,a4,1dde <adc_gpio_init+0x8e>
    1dd2:	4681                	li	a3,0
    1dd4:	4601                	li	a2,0
    1dd6:	4581                	li	a1,0
    1dd8:	04200513          	li	a0,66
    1ddc:	bfb5                	j	1d58 <adc_gpio_init+0x8>
F:\数据\嘉立创比赛\程序\IOT_tuya\obj/../Libraries/seekfree_libraries/zf_adc.c:49
    else if(ADC_IN13_C3 == ch)      gpio_init(C3, GPI, 0, IN_AIN);
    1dde:	4735                	li	a4,13
    1de0:	00e51863          	bne	a0,a4,1df0 <adc_gpio_init+0xa0>
    1de4:	4681                	li	a3,0
    1de6:	4601                	li	a2,0
    1de8:	4581                	li	a1,0
    1dea:	04300513          	li	a0,67
    1dee:	b7ad                	j	1d58 <adc_gpio_init+0x8>
F:\数据\嘉立创比赛\程序\IOT_tuya\obj/../Libraries/seekfree_libraries/zf_adc.c:50
    else if(ADC_IN14_C4 == ch)      gpio_init(C4, GPI, 0, IN_AIN);
    1df0:	4739                	li	a4,14
    1df2:	00e51863          	bne	a0,a4,1e02 <adc_gpio_init+0xb2>
    1df6:	4681                	li	a3,0
    1df8:	4601                	li	a2,0
    1dfa:	4581                	li	a1,0
    1dfc:	04400513          	li	a0,68
    1e00:	bfa1                	j	1d58 <adc_gpio_init+0x8>
F:\数据\嘉立创比赛\程序\IOT_tuya\obj/../Libraries/seekfree_libraries/zf_adc.c:51
    else if(ADC_IN15_C5 == ch)      gpio_init(C5, GPI, 0, IN_AIN);
    1e02:	473d                	li	a4,15
    1e04:	00e51863          	bne	a0,a4,1e14 <adc_gpio_init+0xc4>
    1e08:	4681                	li	a3,0
    1e0a:	4601                	li	a2,0
    1e0c:	4581                	li	a1,0
    1e0e:	04500513          	li	a0,69
    1e12:	b799                	j	1d58 <adc_gpio_init+0x8>
F:\数据\嘉立创比赛\程序\IOT_tuya\obj/../Libraries/seekfree_libraries/zf_adc.c:52
}
    1e14:	8082                	ret

00001e16 <adc_init>:
adc_init():
F:\数据\嘉立创比赛\程序\IOT_tuya\obj/../Libraries/seekfree_libraries/zf_adc.c:61
//  @param      ch              选择ADC通道
//  @return     void
//  Sample usage:               adc_init(ADC_IN0_A0);//初始化A0引脚为ADC功能
//-------------------------------------------------------------------------------------------------------------------
void adc_init(ADCCH_enum ch)
{
    1e16:	7179                	addi	sp,sp,-48
    1e18:	d422                	sw	s0,40(sp)
F:\数据\嘉立创比赛\程序\IOT_tuya\obj/../Libraries/seekfree_libraries/zf_adc.c:64
    ADC_InitTypeDef ADC_InitStructure;

    RCC_APB2PeriphClockCmd(RCC_APB2Periph_GPIOA |RCC_APB2Periph_ADC1 , ENABLE );   //使能ADC1通道时钟
    1e1a:	4585                	li	a1,1
F:\数据\嘉立创比赛\程序\IOT_tuya\obj/../Libraries/seekfree_libraries/zf_adc.c:61
{
    1e1c:	842a                	mv	s0,a0
F:\数据\嘉立创比赛\程序\IOT_tuya\obj/../Libraries/seekfree_libraries/zf_adc.c:64
    RCC_APB2PeriphClockCmd(RCC_APB2Periph_GPIOA |RCC_APB2Periph_ADC1 , ENABLE );   //使能ADC1通道时钟
    1e1e:	20400513          	li	a0,516
F:\数据\嘉立创比赛\程序\IOT_tuya\obj/../Libraries/seekfree_libraries/zf_adc.c:61
{
    1e22:	d606                	sw	ra,44(sp)
    1e24:	d226                	sw	s1,36(sp)
F:\数据\嘉立创比赛\程序\IOT_tuya\obj/../Libraries/seekfree_libraries/zf_adc.c:64
    RCC_APB2PeriphClockCmd(RCC_APB2Periph_GPIOA |RCC_APB2Periph_ADC1 , ENABLE );   //使能ADC1通道时钟
    1e26:	c54ff0ef          	jal	ra,127a <RCC_APB2PeriphClockCmd>
F:\数据\嘉立创比赛\程序\IOT_tuya\obj/../Libraries/seekfree_libraries/zf_adc.c:66

    adc_gpio_init(ch);
    1e2a:	8522                	mv	a0,s0
    1e2c:	3715                	jal	1d50 <adc_gpio_init>
F:\数据\嘉立创比赛\程序\IOT_tuya\obj/../Libraries/seekfree_libraries/zf_adc.c:68

    if(sys_clk > 84000000)  RCC_ADCCLKConfig(RCC_PCLK2_Div8);           //设置ADC分频因子，ADC最大速率不能超过14M
    1e2e:	8281a703          	lw	a4,-2008(gp) # 20000098 <sys_clk>
    1e32:	0501c7b7          	lui	a5,0x501c
    1e36:	d0078793          	addi	a5,a5,-768 # 501bd00 <_data_lma+0x5016074>
    1e3a:	6531                	lui	a0,0xc
    1e3c:	00e7e363          	bltu	a5,a4,1e42 <adc_init+0x2c>
F:\数据\嘉立创比赛\程序\IOT_tuya\obj/../Libraries/seekfree_libraries/zf_adc.c:69
    else RCC_ADCCLKConfig(RCC_PCLK2_Div6);
    1e40:	6521                	lui	a0,0x8
F:\数据\嘉立创比赛\程序\IOT_tuya\obj/../Libraries/seekfree_libraries/zf_adc.c:71

    ADC_DeInit(ADC1);                                                   //复位ADC1
    1e42:	40012437          	lui	s0,0x40012
F:\数据\嘉立创比赛\程序\IOT_tuya\obj/../Libraries/seekfree_libraries/zf_adc.c:69
    else RCC_ADCCLKConfig(RCC_PCLK2_Div6);
    1e46:	b6eff0ef          	jal	ra,11b4 <RCC_ADCCLKConfig>
F:\数据\嘉立创比赛\程序\IOT_tuya\obj/../Libraries/seekfree_libraries/zf_adc.c:71
    ADC_DeInit(ADC1);                                                   //复位ADC1
    1e4a:	40040513          	addi	a0,s0,1024 # 40012400 <_eusrstack+0x2000d400>
    1e4e:	81eff0ef          	jal	ra,e6c <ADC_DeInit>
F:\数据\嘉立创比赛\程序\IOT_tuya\obj/../Libraries/seekfree_libraries/zf_adc.c:76

    ADC_InitStructure.ADC_Mode = ADC_Mode_Independent;                  //ADC工作模式:ADC1工作在独立模式
    ADC_InitStructure.ADC_ScanConvMode = DISABLE;                       //模数转换工作在单通道模式
    ADC_InitStructure.ADC_ContinuousConvMode = DISABLE;                 //模数转换工作在单次转换模式
    ADC_InitStructure.ADC_ExternalTrigConv = ADC_ExternalTrigConv_None; //转换由软件而不是外部触发启动
    1e52:	000e07b7          	lui	a5,0xe0
    1e56:	ca3e                	sw	a5,20(sp)
F:\数据\嘉立创比赛\程序\IOT_tuya\obj/../Libraries/seekfree_libraries/zf_adc.c:79
    ADC_InitStructure.ADC_DataAlign = ADC_DataAlign_Right;              //ADC数据右对齐
    ADC_InitStructure.ADC_NbrOfChannel = 1;                             //顺序进行规则转换的ADC通道的数目
    ADC_Init(ADC1, &ADC_InitStructure);                                 //根据ADC_InitStruct中指定的参数初始化外设ADCx的寄存器
    1e58:	002c                	addi	a1,sp,8
F:\数据\嘉立创比赛\程序\IOT_tuya\obj/../Libraries/seekfree_libraries/zf_adc.c:78
    ADC_InitStructure.ADC_NbrOfChannel = 1;                             //顺序进行规则转换的ADC通道的数目
    1e5a:	4785                	li	a5,1
F:\数据\嘉立创比赛\程序\IOT_tuya\obj/../Libraries/seekfree_libraries/zf_adc.c:79
    ADC_Init(ADC1, &ADC_InitStructure);                                 //根据ADC_InitStruct中指定的参数初始化外设ADCx的寄存器
    1e5c:	40040513          	addi	a0,s0,1024
F:\数据\嘉立创比赛\程序\IOT_tuya\obj/../Libraries/seekfree_libraries/zf_adc.c:78
    ADC_InitStructure.ADC_NbrOfChannel = 1;                             //顺序进行规则转换的ADC通道的数目
    1e60:	00f10e23          	sb	a5,28(sp)
F:\数据\嘉立创比赛\程序\IOT_tuya\obj/../Libraries/seekfree_libraries/zf_adc.c:73
    ADC_InitStructure.ADC_Mode = ADC_Mode_Independent;                  //ADC工作模式:ADC1工作在独立模式
    1e64:	c402                	sw	zero,8(sp)
F:\数据\嘉立创比赛\程序\IOT_tuya\obj/../Libraries/seekfree_libraries/zf_adc.c:74
    ADC_InitStructure.ADC_ScanConvMode = DISABLE;                       //模数转换工作在单通道模式
    1e66:	c602                	sw	zero,12(sp)
F:\数据\嘉立创比赛\程序\IOT_tuya\obj/../Libraries/seekfree_libraries/zf_adc.c:75
    ADC_InitStructure.ADC_ContinuousConvMode = DISABLE;                 //模数转换工作在单次转换模式
    1e68:	c802                	sw	zero,16(sp)
F:\数据\嘉立创比赛\程序\IOT_tuya\obj/../Libraries/seekfree_libraries/zf_adc.c:77
    ADC_InitStructure.ADC_DataAlign = ADC_DataAlign_Right;              //ADC数据右对齐
    1e6a:	cc02                	sw	zero,24(sp)
F:\数据\嘉立创比赛\程序\IOT_tuya\obj/../Libraries/seekfree_libraries/zf_adc.c:79
    ADC_Init(ADC1, &ADC_InitStructure);                                 //根据ADC_InitStruct中指定的参数初始化外设ADCx的寄存器
    1e6c:	826ff0ef          	jal	ra,e92 <ADC_Init>
F:\数据\嘉立创比赛\程序\IOT_tuya\obj/../Libraries/seekfree_libraries/zf_adc.c:81

    ADC_Cmd(ADC1, ENABLE);                                              //使能指定的ADC1
    1e70:	4585                	li	a1,1
    1e72:	40040513          	addi	a0,s0,1024
    1e76:	86cff0ef          	jal	ra,ee2 <ADC_Cmd>
F:\数据\嘉立创比赛\程序\IOT_tuya\obj/../Libraries/seekfree_libraries/zf_adc.c:82
    ADC_ResetCalibration(ADC1);                                         //使能复位校准
    1e7a:	40040513          	addi	a0,s0,1024
    1e7e:	874ff0ef          	jal	ra,ef2 <ADC_ResetCalibration>
F:\数据\嘉立创比赛\程序\IOT_tuya\obj/../Libraries/seekfree_libraries/zf_adc.c:83
    while(ADC_GetResetCalibrationStatus(ADC1));                         //等待复位校准结束
    1e82:	40040493          	addi	s1,s0,1024
F:\数据\嘉立创比赛\程序\IOT_tuya\obj/../Libraries/seekfree_libraries/zf_adc.c:83 (discriminator 1)
    1e86:	8526                	mv	a0,s1
    1e88:	874ff0ef          	jal	ra,efc <ADC_GetResetCalibrationStatus>
    1e8c:	fd6d                	bnez	a0,1e86 <adc_init+0x70>
F:\数据\嘉立创比赛\程序\IOT_tuya\obj/../Libraries/seekfree_libraries/zf_adc.c:84
    ADC_StartCalibration(ADC1);                                         //开启AD校准
    1e8e:	40040513          	addi	a0,s0,1024
F:\数据\嘉立创比赛\程序\IOT_tuya\obj/../Libraries/seekfree_libraries/zf_adc.c:85
    while(ADC_GetCalibrationStatus(ADC1));                              //等待校准结束
    1e92:	40012437          	lui	s0,0x40012
F:\数据\嘉立创比赛\程序\IOT_tuya\obj/../Libraries/seekfree_libraries/zf_adc.c:84
    ADC_StartCalibration(ADC1);                                         //开启AD校准
    1e96:	86eff0ef          	jal	ra,f04 <ADC_StartCalibration>
F:\数据\嘉立创比赛\程序\IOT_tuya\obj/../Libraries/seekfree_libraries/zf_adc.c:85
    while(ADC_GetCalibrationStatus(ADC1));                              //等待校准结束
    1e9a:	40040413          	addi	s0,s0,1024 # 40012400 <_eusrstack+0x2000d400>
F:\数据\嘉立创比赛\程序\IOT_tuya\obj/../Libraries/seekfree_libraries/zf_adc.c:85 (discriminator 1)
    1e9e:	8522                	mv	a0,s0
    1ea0:	86eff0ef          	jal	ra,f0e <ADC_GetCalibrationStatus>
    1ea4:	fd6d                	bnez	a0,1e9e <adc_init+0x88>
F:\数据\嘉立创比赛\程序\IOT_tuya\obj/../Libraries/seekfree_libraries/zf_adc.c:87

}
    1ea6:	50b2                	lw	ra,44(sp)
    1ea8:	5422                	lw	s0,40(sp)
    1eaa:	5492                	lw	s1,36(sp)
    1eac:	6145                	addi	sp,sp,48
    1eae:	8082                	ret

00001eb0 <adc_convert>:
adc_convert():
F:\数据\嘉立创比赛\程序\IOT_tuya\obj/../Libraries/seekfree_libraries/zf_adc.c:97
//  @param      resolution      分辨率(8位 10位 12位)
//  @return     void
//  Sample usage:               adc_convert(ADC_IN0_A0, ADC_8BIT);  //采集A0端口返回8位分辨率的AD值
//-------------------------------------------------------------------------------------------------------------------
uint16 adc_convert(ADCCH_enum ch, ADCRES_enum resolution)
{
    1eb0:	1141                	addi	sp,sp,-16
    1eb2:	c422                	sw	s0,8(sp)
F:\数据\嘉立创比赛\程序\IOT_tuya\obj/../Libraries/seekfree_libraries/zf_adc.c:99
    //设置指定ADC的规则组通道，一个序列，采样时间
    ADC_RegularChannelConfig(ADC1, (uint8)ch, 1, ADC_SampleTime_1Cycles5);  //ADC1,ADC通道,采样时间为1.5周期
    1eb4:	40012437          	lui	s0,0x40012
F:\数据\嘉立创比赛\程序\IOT_tuya\obj/../Libraries/seekfree_libraries/zf_adc.c:97
{
    1eb8:	c226                	sw	s1,4(sp)
F:\数据\嘉立创比赛\程序\IOT_tuya\obj/../Libraries/seekfree_libraries/zf_adc.c:99
    ADC_RegularChannelConfig(ADC1, (uint8)ch, 1, ADC_SampleTime_1Cycles5);  //ADC1,ADC通道,采样时间为1.5周期
    1eba:	4681                	li	a3,0
F:\数据\嘉立创比赛\程序\IOT_tuya\obj/../Libraries/seekfree_libraries/zf_adc.c:97
{
    1ebc:	84ae                	mv	s1,a1
F:\数据\嘉立创比赛\程序\IOT_tuya\obj/../Libraries/seekfree_libraries/zf_adc.c:99
    ADC_RegularChannelConfig(ADC1, (uint8)ch, 1, ADC_SampleTime_1Cycles5);  //ADC1,ADC通道,采样时间为1.5周期
    1ebe:	4605                	li	a2,1
    1ec0:	0ff57593          	andi	a1,a0,255
    1ec4:	40040513          	addi	a0,s0,1024 # 40012400 <_eusrstack+0x2000d400>
F:\数据\嘉立创比赛\程序\IOT_tuya\obj/../Libraries/seekfree_libraries/zf_adc.c:97
{
    1ec8:	c606                	sw	ra,12(sp)
F:\数据\嘉立创比赛\程序\IOT_tuya\obj/../Libraries/seekfree_libraries/zf_adc.c:99
    ADC_RegularChannelConfig(ADC1, (uint8)ch, 1, ADC_SampleTime_1Cycles5);  //ADC1,ADC通道,采样时间为1.5周期
    1eca:	84cff0ef          	jal	ra,f16 <ADC_RegularChannelConfig>
F:\数据\嘉立创比赛\程序\IOT_tuya\obj/../Libraries/seekfree_libraries/zf_adc.c:100
    ADC1->CTLR2 |= ((uint32_t)0x00500000);                                  //使能指定的ADC1的软件转换启动功能
    1ece:	40842783          	lw	a5,1032(s0)
    1ed2:	00500737          	lui	a4,0x500
    1ed6:	8fd9                	or	a5,a5,a4
    1ed8:	40f42423          	sw	a5,1032(s0)
F:\数据\嘉立创比赛\程序\IOT_tuya\obj/../Libraries/seekfree_libraries/zf_adc.c:101
    while((ADC1->STATR & ADC_FLAG_EOC) == (uint8_t)RESET);                  //等待转换结束
    1edc:	40012737          	lui	a4,0x40012
F:\数据\嘉立创比赛\程序\IOT_tuya\obj/../Libraries/seekfree_libraries/zf_adc.c:101 (discriminator 1)
    1ee0:	40072783          	lw	a5,1024(a4) # 40012400 <_eusrstack+0x2000d400>
    1ee4:	8b89                	andi	a5,a5,2
    1ee6:	dfed                	beqz	a5,1ee0 <adc_convert+0x30>
F:\数据\嘉立创比赛\程序\IOT_tuya\obj/../Libraries/seekfree_libraries/zf_adc.c:102
    return ((ADC1->RDATAR)>>resolution);                                    //返回最近一次ADC1规则组的转换结果
    1ee8:	44c72503          	lw	a0,1100(a4)
F:\数据\嘉立创比赛\程序\IOT_tuya\obj/../Libraries/seekfree_libraries/zf_adc.c:103
}
    1eec:	40b2                	lw	ra,12(sp)
    1eee:	4422                	lw	s0,8(sp)
F:\数据\嘉立创比赛\程序\IOT_tuya\obj/../Libraries/seekfree_libraries/zf_adc.c:102
    return ((ADC1->RDATAR)>>resolution);                                    //返回最近一次ADC1规则组的转换结果
    1ef0:	00955533          	srl	a0,a0,s1
F:\数据\嘉立创比赛\程序\IOT_tuya\obj/../Libraries/seekfree_libraries/zf_adc.c:103
}
    1ef4:	0542                	slli	a0,a0,0x10
    1ef6:	4492                	lw	s1,4(sp)
    1ef8:	8141                	srli	a0,a0,0x10
    1efa:	0141                	addi	sp,sp,16
    1efc:	8082                	ret

00001efe <gpio_init>:
gpio_init():
F:\数据\嘉立创比赛\程序\IOT_tuya\obj/../Libraries/seekfree_libraries/zf_gpio.c:46
    GPIO_InitTypeDef GPIO_InitStructure;
    uint8 io_group = (pin & 0xE0) >> 5;
    uint8 io_pin = pin & 0x1F;


    if(PIN_NULL == pin) return;
    1efe:	08000713          	li	a4,128
    1f02:	0ce50c63          	beq	a0,a4,1fda <gpio_init+0xdc>
F:\数据\嘉立创比赛\程序\IOT_tuya\obj/../Libraries/seekfree_libraries/zf_gpio.c:40
{
    1f06:	7179                	addi	sp,sp,-48
    1f08:	d422                	sw	s0,40(sp)
    1f0a:	d226                	sw	s1,36(sp)
    1f0c:	d04a                	sw	s2,32(sp)
    1f0e:	ce4e                	sw	s3,28(sp)
    1f10:	cc52                	sw	s4,24(sp)
    1f12:	00555793          	srli	a5,a0,0x5
    1f16:	d606                	sw	ra,44(sp)
    1f18:	0077fa13          	andi	s4,a5,7
    1f1c:	01f57413          	andi	s0,a0,31
    1f20:	84b6                	mv	s1,a3
    1f22:	89b2                	mv	s3,a2
    1f24:	892e                	mv	s2,a1
F:\数据\嘉立创比赛\程序\IOT_tuya\obj/../Libraries/seekfree_libraries/zf_gpio.c:48
    //GPIO总线使能
    if(0 == (pin >> 5))      RCC_APB2PeriphClockCmd(RCC_APB2Periph_GPIOA, ENABLE);
    1f26:	e3b5                	bnez	a5,1f8a <gpio_init+0x8c>
F:\数据\嘉立创比赛\程序\IOT_tuya\obj/../Libraries/seekfree_libraries/zf_gpio.c:48 (discriminator 1)
    1f28:	4585                	li	a1,1
    1f2a:	4511                	li	a0,4
F:\数据\嘉立创比赛\程序\IOT_tuya\obj/../Libraries/seekfree_libraries/zf_gpio.c:54 (discriminator 1)
    else if(1 == (pin >> 5)) RCC_APB2PeriphClockCmd(RCC_APB2Periph_GPIOB, ENABLE);
    else if(2 == (pin >> 5)) RCC_APB2PeriphClockCmd(RCC_APB2Periph_GPIOC, ENABLE);
    else if(3 == (pin >> 5)) RCC_APB2PeriphClockCmd(RCC_APB2Periph_GPIOD, ENABLE);
    else if(4 == (pin >> 5)) RCC_APB2PeriphClockCmd(RCC_APB2Periph_GPIOE, ENABLE);
    else if(5 == (pin >> 5)) RCC_APB2PeriphClockCmd(RCC_APB2Periph_GPIOF, ENABLE);
    else if(6 == (pin >> 5)) RCC_APB2PeriphClockCmd(RCC_APB2Periph_GPIOG, ENABLE);
    1f2c:	b4eff0ef          	jal	ra,127a <RCC_APB2PeriphClockCmd>
F:\数据\嘉立创比赛\程序\IOT_tuya\obj/../Libraries/seekfree_libraries/zf_gpio.c:58


    //设置引脚号
    GPIO_InitStructure.GPIO_Pin = (uint16)(1 << io_pin);
    1f30:	4785                	li	a5,1
    1f32:	00879433          	sll	s0,a5,s0
    1f36:	0442                	slli	s0,s0,0x10
    1f38:	8041                	srli	s0,s0,0x10
    1f3a:	00811223          	sh	s0,4(sp)
F:\数据\嘉立创比赛\程序\IOT_tuya\obj/../Libraries/seekfree_libraries/zf_gpio.c:60

    if(GPO == dir)
    1f3e:	00f91963          	bne	s2,a5,1f50 <gpio_init+0x52>
F:\数据\嘉立创比赛\程序\IOT_tuya\obj/../Libraries/seekfree_libraries/zf_gpio.c:63
    {
        //只有输出需要设置速度
        if((uint16)pinconf >> 8 == 0) GPIO_InitStructure.GPIO_Speed = (GPIOSpeed_TypeDef)(GPIO_Speed_50MHz);  //防止没有填写这个参数,默认设置50Mhz
    1f42:	01049793          	slli	a5,s1,0x10
    1f46:	83c1                	srli	a5,a5,0x10
    1f48:	83a1                	srli	a5,a5,0x8
    1f4a:	e391                	bnez	a5,1f4e <gpio_init+0x50>
F:\数据\嘉立创比赛\程序\IOT_tuya\obj/../Libraries/seekfree_libraries/zf_gpio.c:63 (discriminator 1)
    1f4c:	478d                	li	a5,3
F:\数据\嘉立创比赛\程序\IOT_tuya\obj/../Libraries/seekfree_libraries/zf_gpio.c:64
        else GPIO_InitStructure.GPIO_Speed = (GPIOSpeed_TypeDef)((uint16)pinconf >> 8);                       //已经填写了该参数。根据值来设置
    1f4e:	c43e                	sw	a5,8(sp)
F:\数据\嘉立创比赛\程序\IOT_tuya\obj/../Libraries/seekfree_libraries/zf_gpio.c:69
    }

    //设置模式
    GPIO_InitStructure.GPIO_Mode = (GPIOMode_TypeDef)((uint16)pinconf & 0xff);
    GPIO_Init((GPIO_TypeDef *)(GPION[io_group]), &GPIO_InitStructure);
    1f50:	6799                	lui	a5,0x6
    1f52:	0a0a                	slli	s4,s4,0x2
    1f54:	98078793          	addi	a5,a5,-1664 # 5980 <GPION>
    1f58:	97d2                	add	a5,a5,s4
F:\数据\嘉立创比赛\程序\IOT_tuya\obj/../Libraries/seekfree_libraries/zf_gpio.c:68
    GPIO_InitStructure.GPIO_Mode = (GPIOMode_TypeDef)((uint16)pinconf & 0xff);
    1f5a:	0ff4f493          	andi	s1,s1,255
    1f5e:	c626                	sw	s1,12(sp)
F:\数据\嘉立创比赛\程序\IOT_tuya\obj/../Libraries/seekfree_libraries/zf_gpio.c:69
    GPIO_Init((GPIO_TypeDef *)(GPION[io_group]), &GPIO_InitStructure);
    1f60:	4384                	lw	s1,0(a5)
    1f62:	004c                	addi	a1,sp,4
    1f64:	8526                	mv	a0,s1
    1f66:	8caff0ef          	jal	ra,1030 <GPIO_Init>
F:\数据\嘉立创比赛\程序\IOT_tuya\obj/../Libraries/seekfree_libraries/zf_gpio.c:71

    if(GPO == dir)
    1f6a:	4785                	li	a5,1
    1f6c:	00f91763          	bne	s2,a5,1f7a <gpio_init+0x7c>
F:\数据\嘉立创比赛\程序\IOT_tuya\obj/../Libraries/seekfree_libraries/zf_gpio.c:74
    {
        //只有输出需要设置引脚状态
        GPIO_WriteBit((GPIO_TypeDef *)(GPION[io_group]), (uint16)(1 << io_pin), dat);
    1f70:	864e                	mv	a2,s3
    1f72:	85a2                	mv	a1,s0
    1f74:	8526                	mv	a0,s1
    1f76:	97cff0ef          	jal	ra,10f2 <GPIO_WriteBit>
F:\数据\嘉立创比赛\程序\IOT_tuya\obj/../Libraries/seekfree_libraries/zf_gpio.c:76
    }
}
    1f7a:	50b2                	lw	ra,44(sp)
    1f7c:	5422                	lw	s0,40(sp)
    1f7e:	5492                	lw	s1,36(sp)
    1f80:	5902                	lw	s2,32(sp)
    1f82:	49f2                	lw	s3,28(sp)
    1f84:	4a62                	lw	s4,24(sp)
    1f86:	6145                	addi	sp,sp,48
    1f88:	8082                	ret
F:\数据\嘉立创比赛\程序\IOT_tuya\obj/../Libraries/seekfree_libraries/zf_gpio.c:49
    else if(1 == (pin >> 5)) RCC_APB2PeriphClockCmd(RCC_APB2Periph_GPIOB, ENABLE);
    1f8a:	4705                	li	a4,1
    1f8c:	00e79563          	bne	a5,a4,1f96 <gpio_init+0x98>
F:\数据\嘉立创比赛\程序\IOT_tuya\obj/../Libraries/seekfree_libraries/zf_gpio.c:49 (discriminator 1)
    1f90:	4585                	li	a1,1
    1f92:	4521                	li	a0,8
    1f94:	bf61                	j	1f2c <gpio_init+0x2e>
F:\数据\嘉立创比赛\程序\IOT_tuya\obj/../Libraries/seekfree_libraries/zf_gpio.c:50
    else if(2 == (pin >> 5)) RCC_APB2PeriphClockCmd(RCC_APB2Periph_GPIOC, ENABLE);
    1f96:	4709                	li	a4,2
    1f98:	00e79563          	bne	a5,a4,1fa2 <gpio_init+0xa4>
F:\数据\嘉立创比赛\程序\IOT_tuya\obj/../Libraries/seekfree_libraries/zf_gpio.c:50 (discriminator 1)
    1f9c:	4585                	li	a1,1
    1f9e:	4541                	li	a0,16
    1fa0:	b771                	j	1f2c <gpio_init+0x2e>
F:\数据\嘉立创比赛\程序\IOT_tuya\obj/../Libraries/seekfree_libraries/zf_gpio.c:51
    else if(3 == (pin >> 5)) RCC_APB2PeriphClockCmd(RCC_APB2Periph_GPIOD, ENABLE);
    1fa2:	470d                	li	a4,3
    1fa4:	00e79663          	bne	a5,a4,1fb0 <gpio_init+0xb2>
F:\数据\嘉立创比赛\程序\IOT_tuya\obj/../Libraries/seekfree_libraries/zf_gpio.c:51 (discriminator 1)
    1fa8:	4585                	li	a1,1
    1faa:	02000513          	li	a0,32
    1fae:	bfbd                	j	1f2c <gpio_init+0x2e>
F:\数据\嘉立创比赛\程序\IOT_tuya\obj/../Libraries/seekfree_libraries/zf_gpio.c:52
    else if(4 == (pin >> 5)) RCC_APB2PeriphClockCmd(RCC_APB2Periph_GPIOE, ENABLE);
    1fb0:	4711                	li	a4,4
    1fb2:	00e79663          	bne	a5,a4,1fbe <gpio_init+0xc0>
F:\数据\嘉立创比赛\程序\IOT_tuya\obj/../Libraries/seekfree_libraries/zf_gpio.c:52 (discriminator 1)
    1fb6:	4585                	li	a1,1
    1fb8:	04000513          	li	a0,64
    1fbc:	bf85                	j	1f2c <gpio_init+0x2e>
F:\数据\嘉立创比赛\程序\IOT_tuya\obj/../Libraries/seekfree_libraries/zf_gpio.c:53
    else if(5 == (pin >> 5)) RCC_APB2PeriphClockCmd(RCC_APB2Periph_GPIOF, ENABLE);
    1fbe:	4715                	li	a4,5
    1fc0:	00e79663          	bne	a5,a4,1fcc <gpio_init+0xce>
F:\数据\嘉立创比赛\程序\IOT_tuya\obj/../Libraries/seekfree_libraries/zf_gpio.c:53 (discriminator 1)
    1fc4:	4585                	li	a1,1
    1fc6:	08000513          	li	a0,128
    1fca:	b78d                	j	1f2c <gpio_init+0x2e>
F:\数据\嘉立创比赛\程序\IOT_tuya\obj/../Libraries/seekfree_libraries/zf_gpio.c:54
    else if(6 == (pin >> 5)) RCC_APB2PeriphClockCmd(RCC_APB2Periph_GPIOG, ENABLE);
    1fcc:	4719                	li	a4,6
    1fce:	f6e791e3          	bne	a5,a4,1f30 <gpio_init+0x32>
F:\数据\嘉立创比赛\程序\IOT_tuya\obj/../Libraries/seekfree_libraries/zf_gpio.c:54 (discriminator 1)
    1fd2:	4585                	li	a1,1
    1fd4:	10000513          	li	a0,256
    1fd8:	bf91                	j	1f2c <gpio_init+0x2e>
    1fda:	8082                	ret

00001fdc <gpio_set>:
gpio_set():
F:\数据\嘉立创比赛\程序\IOT_tuya\obj/../Libraries/seekfree_libraries/zf_gpio.c:90
void gpio_set(PIN_enum pin, uint8 dat)
{
    uint8 io_group = (pin & 0xE0) >> 5;
    uint8 io_pin = pin & 0x1F;

    if (dat == 1)
    1fdc:	00355793          	srli	a5,a0,0x3
    1fe0:	01c7f713          	andi	a4,a5,28
    1fe4:	6799                	lui	a5,0x6
    1fe6:	98078793          	addi	a5,a5,-1664 # 5980 <GPION>
    1fea:	97ba                	add	a5,a5,a4
    1fec:	4705                	li	a4,1
    1fee:	439c                	lw	a5,0(a5)
    1ff0:	00a71533          	sll	a0,a4,a0
    1ff4:	00e59463          	bne	a1,a4,1ffc <gpio_set+0x20>
F:\数据\嘉立创比赛\程序\IOT_tuya\obj/../Libraries/seekfree_libraries/zf_gpio.c:91
         ((GPIO_TypeDef *)(GPION[io_group]))->BSHR = 1 << io_pin;
    1ff8:	cb88                	sw	a0,16(a5)
    1ffa:	8082                	ret
F:\数据\嘉立创比赛\程序\IOT_tuya\obj/../Libraries/seekfree_libraries/zf_gpio.c:93
    else
         ((GPIO_TypeDef *)(GPION[io_group]))->BCR = 1 << io_pin;
    1ffc:	cbc8                	sw	a0,20(a5)
F:\数据\嘉立创比赛\程序\IOT_tuya\obj/../Libraries/seekfree_libraries/zf_gpio.c:94
}
    1ffe:	8082                	ret

00002000 <gpio_get>:
gpio_get():
F:\数据\嘉立创比赛\程序\IOT_tuya\obj/../Libraries/seekfree_libraries/zf_gpio.c:107
uint8 gpio_get(PIN_enum pin)
{
    uint8 io_group = (pin & 0xE0) >> 5;
    uint8 io_pin = pin & 0x1F;

    if((((GPIO_TypeDef *)(GPION[io_group]))->INDR & (1 << io_pin)) != 0)
    2000:	00355713          	srli	a4,a0,0x3
    2004:	01c77693          	andi	a3,a4,28
    2008:	6719                	lui	a4,0x6
    200a:	98070713          	addi	a4,a4,-1664 # 5980 <GPION>
    200e:	9736                	add	a4,a4,a3
    2010:	431c                	lw	a5,0(a4)
    2012:	4798                	lw	a4,8(a5)
    2014:	4785                	li	a5,1
    2016:	00a79533          	sll	a0,a5,a0
    201a:	8d79                	and	a0,a0,a4
F:\数据\嘉立创比赛\程序\IOT_tuya\obj/../Libraries/seekfree_libraries/zf_gpio.c:114
        return 1;
    }
    return 0;


}
    201c:	00a03533          	snez	a0,a0
    2020:	8082                	ret

00002022 <SYS_DisableAllIrq>:
SYS_DisableAllIrq():
F:\数据\嘉立创比赛\程序\IOT_tuya\obj/../Libraries/seekfree_libraries/zf_nvic.c:60
//  Sample usage:
//-------------------------------------------------------------------------------------------------------------------
void SYS_DisableAllIrq(uint32* pirqv)
{
    //获取状态值
    pirqv[0] |= (PFIC->ISR[0] & 0xFFFFF000);    //[31:12]
    2022:	e000e737          	lui	a4,0xe000e
    2026:	431c                	lw	a5,0(a4)
    2028:	76fd                	lui	a3,0xfffff
    202a:	8efd                	and	a3,a3,a5
    202c:	411c                	lw	a5,0(a0)
    202e:	8fd5                	or	a5,a5,a3
    2030:	c11c                	sw	a5,0(a0)
F:\数据\嘉立创比赛\程序\IOT_tuya\obj/../Libraries/seekfree_libraries/zf_nvic.c:61
    pirqv[1] |= (PFIC->ISR[1] & 0x0FFFFFFF);    //[27:0]
    2032:	435c                	lw	a5,4(a4)
    2034:	4154                	lw	a3,4(a0)
    2036:	0792                	slli	a5,a5,0x4
    2038:	8391                	srli	a5,a5,0x4
    203a:	8fd5                	or	a5,a5,a3
    203c:	c15c                	sw	a5,4(a0)
F:\数据\嘉立创比赛\程序\IOT_tuya\obj/../Libraries/seekfree_libraries/zf_nvic.c:64

    //写1，清空状态
    PFIC->IRER[0] = 0xffffffff;
    203e:	57fd                	li	a5,-1
    2040:	18f72023          	sw	a5,384(a4) # e000e180 <_eusrstack+0xc0009180>
F:\数据\嘉立创比赛\程序\IOT_tuya\obj/../Libraries/seekfree_libraries/zf_nvic.c:65
    PFIC->IRER[1] = 0xffffffff;
    2044:	18f72223          	sw	a5,388(a4)
F:\数据\嘉立创比赛\程序\IOT_tuya\obj/../Libraries/seekfree_libraries/zf_nvic.c:66
}
    2048:	8082                	ret

0000204a <nvic_init>:
nvic_init():
F:\数据\嘉立创比赛\程序\IOT_tuya\obj/../Libraries/seekfree_libraries/zf_nvic.c:34
{
    204a:	1101                	addi	sp,sp,-32
F:\数据\嘉立创比赛\程序\IOT_tuya\obj/../Libraries/seekfree_libraries/zf_nvic.c:37
    NVIC_InitStructure.NVIC_IRQChannel = irqn;                                  //中断号设置
    204c:	00a10423          	sb	a0,8(sp)
F:\数据\嘉立创比赛\程序\IOT_tuya\obj/../Libraries/seekfree_libraries/zf_nvic.c:41
    NVIC_Init(&NVIC_InitStructure);
    2050:	0028                	addi	a0,sp,8
F:\数据\嘉立创比赛\程序\IOT_tuya\obj/../Libraries/seekfree_libraries/zf_nvic.c:34
{
    2052:	ce06                	sw	ra,28(sp)
F:\数据\嘉立创比赛\程序\IOT_tuya\obj/../Libraries/seekfree_libraries/zf_nvic.c:38
    NVIC_InitStructure.NVIC_IRQChannelPreemptionPriority=preemption_priority;   //抢占优先级值越小，优先级越高
    2054:	00b104a3          	sb	a1,9(sp)
F:\数据\嘉立创比赛\程序\IOT_tuya\obj/../Libraries/seekfree_libraries/zf_nvic.c:39
    NVIC_InitStructure.NVIC_IRQChannelSubPriority = sub_priority;               //次优先级值越小，优先级越高
    2058:	00c10523          	sb	a2,10(sp)
F:\数据\嘉立创比赛\程序\IOT_tuya\obj/../Libraries/seekfree_libraries/zf_nvic.c:40
    NVIC_InitStructure.NVIC_IRQChannelCmd = status;                             //使能
    205c:	c636                	sw	a3,12(sp)
F:\数据\嘉立创比赛\程序\IOT_tuya\obj/../Libraries/seekfree_libraries/zf_nvic.c:41
    NVIC_Init(&NVIC_InitStructure);
    205e:	89eff0ef          	jal	ra,10fc <NVIC_Init>
F:\数据\嘉立创比赛\程序\IOT_tuya\obj/../Libraries/seekfree_libraries/zf_nvic.c:42
    if(close_all_irq_flag == 1)
    2062:	81e1c703          	lbu	a4,-2018(gp) # 2000008e <close_all_irq_flag>
    2066:	4785                	li	a5,1
    2068:	00f71563          	bne	a4,a5,2072 <nvic_init+0x28>
F:\数据\嘉立创比赛\程序\IOT_tuya\obj/../Libraries/seekfree_libraries/zf_nvic.c:44
        SYS_DisableAllIrq(irq_status);
    206c:	82018513          	addi	a0,gp,-2016 # 20000090 <irq_status>
    2070:	3f4d                	jal	2022 <SYS_DisableAllIrq>
F:\数据\嘉立创比赛\程序\IOT_tuya\obj/../Libraries/seekfree_libraries/zf_nvic.c:46
}
    2072:	40f2                	lw	ra,28(sp)
    2074:	6105                	addi	sp,sp,32
    2076:	8082                	ret

00002078 <SYS_RecoverIrq>:
SYS_RecoverIrq():
F:\数据\嘉立创比赛\程序\IOT_tuya\obj/../Libraries/seekfree_libraries/zf_nvic.c:77
//  @since      v1.0
//  Sample usage:
//-------------------------------------------------------------------------------------------------------------------
void SYS_RecoverIrq(uint32 pirqv[])
{
    PFIC->IENR[0] = pirqv[0];
    2078:	4118                	lw	a4,0(a0)
    207a:	e000e7b7          	lui	a5,0xe000e
    207e:	10e7a023          	sw	a4,256(a5) # e000e100 <_eusrstack+0xc0009100>
F:\数据\嘉立创比赛\程序\IOT_tuya\obj/../Libraries/seekfree_libraries/zf_nvic.c:78
    PFIC->IENR[1] = pirqv[1];
    2082:	4158                	lw	a4,4(a0)
    2084:	10e7a223          	sw	a4,260(a5)
F:\数据\嘉立创比赛\程序\IOT_tuya\obj/../Libraries/seekfree_libraries/zf_nvic.c:79
}
    2088:	8082                	ret

0000208a <DisableGlobalIRQ>:
DisableGlobalIRQ():
F:\数据\嘉立创比赛\程序\IOT_tuya\obj/../Libraries/seekfree_libraries/zf_nvic.c:90
//  @since      v1.0
//  Sample usage:
//-------------------------------------------------------------------------------------------------------------------
void DisableGlobalIRQ(void)
{
    close_all_irq_flag = 1;
    208a:	4705                	li	a4,1
    208c:	80e18f23          	sb	a4,-2018(gp) # 2000008e <close_all_irq_flag>
F:\数据\嘉立创比赛\程序\IOT_tuya\obj/../Libraries/seekfree_libraries/zf_nvic.c:91
}
    2090:	8082                	ret

00002092 <EnableGlobalIRQ>:
EnableGlobalIRQ():
F:\数据\嘉立创比赛\程序\IOT_tuya\obj/../Libraries/seekfree_libraries/zf_nvic.c:103
//  Sample usage:
//-------------------------------------------------------------------------------------------------------------------
void EnableGlobalIRQ(void)
{
    close_all_irq_flag = 0;
    SYS_RecoverIrq(irq_status);
    2092:	82018513          	addi	a0,gp,-2016 # 20000090 <irq_status>
F:\数据\嘉立创比赛\程序\IOT_tuya\obj/../Libraries/seekfree_libraries/zf_nvic.c:102
    close_all_irq_flag = 0;
    2096:	80018f23          	sb	zero,-2018(gp) # 2000008e <close_all_irq_flag>
F:\数据\嘉立创比赛\程序\IOT_tuya\obj/../Libraries/seekfree_libraries/zf_nvic.c:103
    SYS_RecoverIrq(irq_status);
    209a:	bff9                	j	2078 <SYS_RecoverIrq>

0000209c <systick_delay>:
systick_delay():
F:\数据\嘉立创比赛\程序\IOT_tuya\obj/../Libraries/seekfree_libraries/zf_systick.c:32
//-------------------------------------------------------------------------------------------------------------------
void systick_delay(uint32 time)
{
    uint32 i;

    SysTick->CTLR = 0;
    209c:	e000f7b7          	lui	a5,0xe000f
    20a0:	0007a023          	sw	zero,0(a5) # e000f000 <_eusrstack+0xc000a000>
F:\数据\嘉立创比赛\程序\IOT_tuya\obj/../Libraries/seekfree_libraries/zf_systick.c:33
    i = (uint32)time * (sys_clk/8000000);
    20a4:	8281a703          	lw	a4,-2008(gp) # 20000098 <sys_clk>
    20a8:	007a16b7          	lui	a3,0x7a1
    20ac:	20068693          	addi	a3,a3,512 # 7a1200 <_data_lma+0x79b574>
    20b0:	02d75733          	divu	a4,a4,a3
F:\数据\嘉立创比赛\程序\IOT_tuya\obj/../Libraries/seekfree_libraries/zf_systick.c:35

    SysTick->CNTL0 = 0;
    20b4:	00078223          	sb	zero,4(a5)
F:\数据\嘉立创比赛\程序\IOT_tuya\obj/../Libraries/seekfree_libraries/zf_systick.c:36
    SysTick->CNTL1 = 0;
    20b8:	000782a3          	sb	zero,5(a5)
F:\数据\嘉立创比赛\程序\IOT_tuya\obj/../Libraries/seekfree_libraries/zf_systick.c:37
    SysTick->CNTL2 = 0;
    20bc:	00078323          	sb	zero,6(a5)
F:\数据\嘉立创比赛\程序\IOT_tuya\obj/../Libraries/seekfree_libraries/zf_systick.c:38
    SysTick->CNTL3 = 0;
    20c0:	000783a3          	sb	zero,7(a5)
F:\数据\嘉立创比赛\程序\IOT_tuya\obj/../Libraries/seekfree_libraries/zf_systick.c:33
    i = (uint32)time * (sys_clk/8000000);
    20c4:	02a70533          	mul	a0,a4,a0
F:\数据\嘉立创比赛\程序\IOT_tuya\obj/../Libraries/seekfree_libraries/zf_systick.c:39
    SysTick->CTLR = 1;          //启动系统计数器 systick（HCLK/8 时基） us
    20c8:	4705                	li	a4,1
    20ca:	c398                	sw	a4,0(a5)
F:\数据\嘉立创比赛\程序\IOT_tuya\obj/../Libraries/seekfree_libraries/zf_systick.c:41

    while((*(volatile uint32*)0xE000F004) <= i);
    20cc:	e000f737          	lui	a4,0xe000f
F:\数据\嘉立创比赛\程序\IOT_tuya\obj/../Libraries/seekfree_libraries/zf_systick.c:41 (discriminator 1)
    20d0:	435c                	lw	a5,4(a4)
    20d2:	fef57fe3          	bgeu	a0,a5,20d0 <systick_delay+0x34>
F:\数据\嘉立创比赛\程序\IOT_tuya\obj/../Libraries/seekfree_libraries/zf_systick.c:43

}
    20d6:	8082                	ret

000020d8 <uart_gpio_init>:
uart_gpio_init():
F:\数据\嘉立创比赛\程序\IOT_tuya\obj/../Libraries/seekfree_libraries/zf_uart.c:38
//  @param      rx_pin      串口接收引脚号
//  @return     void
//  Sample usage:           内部使用，用户无需关心
//-------------------------------------------------------------------------------------------------------------------
void uart_gpio_init(UARTPIN_enum tx_pin, UARTPIN_enum rx_pin)
{
    20d8:	1141                	addi	sp,sp,-16
    20da:	c606                	sw	ra,12(sp)
F:\数据\嘉立创比赛\程序\IOT_tuya\obj/../Libraries/seekfree_libraries/zf_uart.c:39
    if(tx_pin == UART1_TX_A9 && rx_pin == UART1_RX_A10)
    20dc:	e105                	bnez	a0,20fc <uart_gpio_init+0x24>
F:\数据\嘉立创比赛\程序\IOT_tuya\obj/../Libraries/seekfree_libraries/zf_uart.c:39 (discriminator 1)
    20de:	4785                	li	a5,1
    20e0:	0af59063          	bne	a1,a5,2180 <uart_gpio_init+0xa8>
F:\数据\嘉立创比赛\程序\IOT_tuya\obj/../Libraries/seekfree_libraries/zf_uart.c:41
    {
        gpio_init(A9, GPO, 0, SPEED_50MHZ|OUT_AF_PP);
    20e4:	31800693          	li	a3,792
    20e8:	4601                	li	a2,0
    20ea:	4525                	li	a0,9
    20ec:	3d09                	jal	1efe <gpio_init>
F:\数据\嘉立创比赛\程序\IOT_tuya\obj/../Libraries/seekfree_libraries/zf_uart.c:42
        gpio_init(A10, GPI, 0, IN_FLOAT);
    20ee:	4691                	li	a3,4
    20f0:	4601                	li	a2,0
    20f2:	4581                	li	a1,0
    20f4:	4529                	li	a0,10
F:\数据\嘉立创比赛\程序\IOT_tuya\obj/../Libraries/seekfree_libraries/zf_uart.c:67
    else if(tx_pin == UART3_TX_C10)
    {
        gpio_init(C10, GPO, 0, SPEED_50MHZ|OUT_PP);
        gpio_init(C11, GPI, 0, IN_FLOAT);
    }
}
    20f6:	40b2                	lw	ra,12(sp)
    20f8:	0141                	addi	sp,sp,16
F:\数据\嘉立创比赛\程序\IOT_tuya\obj/../Libraries/seekfree_libraries/zf_uart.c:65
        gpio_init(C11, GPI, 0, IN_FLOAT);
    20fa:	b511                	j	1efe <gpio_init>
F:\数据\嘉立创比赛\程序\IOT_tuya\obj/../Libraries/seekfree_libraries/zf_uart.c:44
    else if(tx_pin == UART1_TX_B6)
    20fc:	4789                	li	a5,2
    20fe:	00f51f63          	bne	a0,a5,211c <uart_gpio_init+0x44>
F:\数据\嘉立创比赛\程序\IOT_tuya\obj/../Libraries/seekfree_libraries/zf_uart.c:46
        gpio_init(B6, GPO, 0, SPEED_50MHZ|OUT_AF_PP);
    2102:	31800693          	li	a3,792
    2106:	4601                	li	a2,0
    2108:	4585                	li	a1,1
    210a:	02600513          	li	a0,38
    210e:	3bc5                	jal	1efe <gpio_init>
F:\数据\嘉立创比赛\程序\IOT_tuya\obj/../Libraries/seekfree_libraries/zf_uart.c:47
        gpio_init(B7, GPI, 0, IN_FLOAT);
    2110:	4691                	li	a3,4
    2112:	4601                	li	a2,0
    2114:	4581                	li	a1,0
    2116:	02700513          	li	a0,39
    211a:	bff1                	j	20f6 <uart_gpio_init+0x1e>
F:\数据\嘉立创比赛\程序\IOT_tuya\obj/../Libraries/seekfree_libraries/zf_uart.c:50
    else if(tx_pin == UART2_TX_A2)
    211c:	47c1                	li	a5,16
    211e:	00f51d63          	bne	a0,a5,2138 <uart_gpio_init+0x60>
F:\数据\嘉立创比赛\程序\IOT_tuya\obj/../Libraries/seekfree_libraries/zf_uart.c:52
        gpio_init(A2, GPO, 0, SPEED_50MHZ|OUT_AF_PP);
    2122:	31800693          	li	a3,792
    2126:	4601                	li	a2,0
    2128:	4585                	li	a1,1
    212a:	4509                	li	a0,2
    212c:	3bc9                	jal	1efe <gpio_init>
F:\数据\嘉立创比赛\程序\IOT_tuya\obj/../Libraries/seekfree_libraries/zf_uart.c:53
        gpio_init(A3, GPI, 0, IN_FLOAT);
    212e:	4691                	li	a3,4
    2130:	4601                	li	a2,0
    2132:	4581                	li	a1,0
    2134:	450d                	li	a0,3
    2136:	b7c1                	j	20f6 <uart_gpio_init+0x1e>
F:\数据\嘉立创比赛\程序\IOT_tuya\obj/../Libraries/seekfree_libraries/zf_uart.c:56
    else if(tx_pin == UART3_TX_B10)
    2138:	02000793          	li	a5,32
    213c:	02f51063          	bne	a0,a5,215c <uart_gpio_init+0x84>
F:\数据\嘉立创比赛\程序\IOT_tuya\obj/../Libraries/seekfree_libraries/zf_uart.c:58
        gpio_init(B10, GPO, 0, SPEED_50MHZ|OUT_AF_PP);
    2140:	31800693          	li	a3,792
    2144:	4601                	li	a2,0
    2146:	4585                	li	a1,1
    2148:	02a00513          	li	a0,42
    214c:	db3ff0ef          	jal	ra,1efe <gpio_init>
F:\数据\嘉立创比赛\程序\IOT_tuya\obj/../Libraries/seekfree_libraries/zf_uart.c:59
        gpio_init(B11, GPI, 0, IN_FLOAT);
    2150:	4691                	li	a3,4
    2152:	4601                	li	a2,0
    2154:	4581                	li	a1,0
    2156:	02b00513          	li	a0,43
    215a:	bf71                	j	20f6 <uart_gpio_init+0x1e>
F:\数据\嘉立创比赛\程序\IOT_tuya\obj/../Libraries/seekfree_libraries/zf_uart.c:62
    else if(tx_pin == UART3_TX_C10)
    215c:	02200793          	li	a5,34
    2160:	02f51063          	bne	a0,a5,2180 <uart_gpio_init+0xa8>
F:\数据\嘉立创比赛\程序\IOT_tuya\obj/../Libraries/seekfree_libraries/zf_uart.c:64
        gpio_init(C10, GPO, 0, SPEED_50MHZ|OUT_PP);
    2164:	31000693          	li	a3,784
    2168:	4601                	li	a2,0
    216a:	4585                	li	a1,1
    216c:	04a00513          	li	a0,74
    2170:	d8fff0ef          	jal	ra,1efe <gpio_init>
F:\数据\嘉立创比赛\程序\IOT_tuya\obj/../Libraries/seekfree_libraries/zf_uart.c:65
        gpio_init(C11, GPI, 0, IN_FLOAT);
    2174:	4691                	li	a3,4
    2176:	4601                	li	a2,0
    2178:	4581                	li	a1,0
    217a:	04b00513          	li	a0,75
    217e:	bfa5                	j	20f6 <uart_gpio_init+0x1e>
F:\数据\嘉立创比赛\程序\IOT_tuya\obj/../Libraries/seekfree_libraries/zf_uart.c:67
}
    2180:	40b2                	lw	ra,12(sp)
    2182:	0141                	addi	sp,sp,16
    2184:	8082                	ret

00002186 <uart_init>:
uart_init():
F:\数据\嘉立创比赛\程序\IOT_tuya\obj/../Libraries/seekfree_libraries/zf_uart.c:79
//  @param      rx_pin      串口接收引脚号
//  @return     void
//  Sample usage:           uart_init(UART_1, 115200, UART1_TX_A9, UART1_RX_A10); //串口1初始化引脚号,TX为A9,RX为A10
//-------------------------------------------------------------------------------------------------------------------
void uart_init(UARTN_enum uartn, uint32 baud, UARTPIN_enum tx_pin, UARTPIN_enum rx_pin)
{
    2186:	7179                	addi	sp,sp,-48
    2188:	d422                	sw	s0,40(sp)
    218a:	d226                	sw	s1,36(sp)
    218c:	d04a                	sw	s2,32(sp)
    218e:	ce4e                	sw	s3,28(sp)
    2190:	d606                	sw	ra,44(sp)
    2192:	842a                	mv	s0,a0
    2194:	84ae                	mv	s1,a1
    2196:	8932                	mv	s2,a2
    2198:	89b6                	mv	s3,a3
F:\数据\嘉立创比赛\程序\IOT_tuya\obj/../Libraries/seekfree_libraries/zf_uart.c:83
    USART_InitTypeDef USART_InitStructure;

    //串口总线使能
    if(UART_1 == uartn) RCC_APB2PeriphClockCmd(RCC_APB2Periph_USART1, ENABLE);
    219a:	e521                	bnez	a0,21e2 <uart_init+0x5c>
F:\数据\嘉立创比赛\程序\IOT_tuya\obj/../Libraries/seekfree_libraries/zf_uart.c:83 (discriminator 1)
    219c:	4585                	li	a1,1
    219e:	6511                	lui	a0,0x4
    21a0:	8daff0ef          	jal	ra,127a <RCC_APB2PeriphClockCmd>
F:\数据\嘉立创比赛\程序\IOT_tuya\obj/../Libraries/seekfree_libraries/zf_uart.c:88
    else if(UART_2 == uartn) RCC_APB1PeriphClockCmd(RCC_APB1Periph_USART2, ENABLE);
    else if(UART_3 == uartn) RCC_APB1PeriphClockCmd(RCC_APB1Periph_USART3, ENABLE);

    //引脚初始化
    uart_gpio_init(tx_pin, rx_pin);
    21a4:	85ce                	mv	a1,s3
    21a6:	854a                	mv	a0,s2
    21a8:	3f05                	jal	20d8 <uart_gpio_init>
F:\数据\嘉立创比赛\程序\IOT_tuya\obj/../Libraries/seekfree_libraries/zf_uart.c:94

    //串口参数配置
    USART_InitStructure.USART_BaudRate = baud;
    USART_InitStructure.USART_WordLength = USART_WordLength_8b;
    USART_InitStructure.USART_StopBits = USART_StopBits_1;
    USART_InitStructure.USART_Parity = USART_Parity_No;
    21aa:	000c07b7          	lui	a5,0xc0
    21ae:	c43e                	sw	a5,8(sp)
F:\数据\嘉立创比赛\程序\IOT_tuya\obj/../Libraries/seekfree_libraries/zf_uart.c:99
    USART_InitStructure.USART_HardwareFlowControl = USART_HardwareFlowControl_None;
    USART_InitStructure.USART_Mode = USART_Mode_Tx | USART_Mode_Rx;

    //使能串口
    USART_Init((USART_TypeDef*)UARTN[uartn], &USART_InitStructure);
    21b0:	6799                	lui	a5,0x6
    21b2:	99078793          	addi	a5,a5,-1648 # 5990 <UARTN>
    21b6:	040a                	slli	s0,s0,0x2
    21b8:	943e                	add	s0,s0,a5
    21ba:	4000                	lw	s0,0(s0)
    21bc:	858a                	mv	a1,sp
F:\数据\嘉立创比赛\程序\IOT_tuya\obj/../Libraries/seekfree_libraries/zf_uart.c:91
    USART_InitStructure.USART_BaudRate = baud;
    21be:	c026                	sw	s1,0(sp)
F:\数据\嘉立创比赛\程序\IOT_tuya\obj/../Libraries/seekfree_libraries/zf_uart.c:99
    USART_Init((USART_TypeDef*)UARTN[uartn], &USART_InitStructure);
    21c0:	8522                	mv	a0,s0
F:\数据\嘉立创比赛\程序\IOT_tuya\obj/../Libraries/seekfree_libraries/zf_uart.c:92
    USART_InitStructure.USART_WordLength = USART_WordLength_8b;
    21c2:	c202                	sw	zero,4(sp)
F:\数据\嘉立创比赛\程序\IOT_tuya\obj/../Libraries/seekfree_libraries/zf_uart.c:95
    USART_InitStructure.USART_HardwareFlowControl = USART_HardwareFlowControl_None;
    21c4:	00011623          	sh	zero,12(sp)
F:\数据\嘉立创比赛\程序\IOT_tuya\obj/../Libraries/seekfree_libraries/zf_uart.c:99
    USART_Init((USART_TypeDef*)UARTN[uartn], &USART_InitStructure);
    21c8:	936ff0ef          	jal	ra,12fe <USART_Init>
F:\数据\嘉立创比赛\程序\IOT_tuya\obj/../Libraries/seekfree_libraries/zf_uart.c:100
    USART_Cmd((USART_TypeDef*)UARTN[uartn], ENABLE);
    21cc:	8522                	mv	a0,s0
    21ce:	4585                	li	a1,1
    21d0:	a06ff0ef          	jal	ra,13d6 <USART_Cmd>
F:\数据\嘉立创比赛\程序\IOT_tuya\obj/../Libraries/seekfree_libraries/zf_uart.c:102

}
    21d4:	50b2                	lw	ra,44(sp)
    21d6:	5422                	lw	s0,40(sp)
    21d8:	5492                	lw	s1,36(sp)
    21da:	5902                	lw	s2,32(sp)
    21dc:	49f2                	lw	s3,28(sp)
    21de:	6145                	addi	sp,sp,48
    21e0:	8082                	ret
F:\数据\嘉立创比赛\程序\IOT_tuya\obj/../Libraries/seekfree_libraries/zf_uart.c:84
    else if(UART_2 == uartn) RCC_APB1PeriphClockCmd(RCC_APB1Periph_USART2, ENABLE);
    21e2:	4785                	li	a5,1
    21e4:	00f51863          	bne	a0,a5,21f4 <uart_init+0x6e>
F:\数据\嘉立创比赛\程序\IOT_tuya\obj/../Libraries/seekfree_libraries/zf_uart.c:84 (discriminator 1)
    21e8:	4585                	li	a1,1
    21ea:	00020537          	lui	a0,0x20
F:\数据\嘉立创比赛\程序\IOT_tuya\obj/../Libraries/seekfree_libraries/zf_uart.c:85 (discriminator 1)
    else if(UART_3 == uartn) RCC_APB1PeriphClockCmd(RCC_APB1Periph_USART3, ENABLE);
    21ee:	8aaff0ef          	jal	ra,1298 <RCC_APB1PeriphClockCmd>
    21f2:	bf4d                	j	21a4 <uart_init+0x1e>
F:\数据\嘉立创比赛\程序\IOT_tuya\obj/../Libraries/seekfree_libraries/zf_uart.c:85
    21f4:	4789                	li	a5,2
    21f6:	faf517e3          	bne	a0,a5,21a4 <uart_init+0x1e>
F:\数据\嘉立创比赛\程序\IOT_tuya\obj/../Libraries/seekfree_libraries/zf_uart.c:85 (discriminator 1)
    21fa:	4585                	li	a1,1
    21fc:	00040537          	lui	a0,0x40
    2200:	b7fd                	j	21ee <uart_init+0x68>

00002202 <uart_putchar>:
uart_putchar():
F:\数据\嘉立创比赛\程序\IOT_tuya\obj/../Libraries/seekfree_libraries/zf_uart.c:114
//  @return     void
//  Sample usage:           uart_putchar(UART_1, 0x43);        //串口1发送0x43。
//-------------------------------------------------------------------------------------------------------------------
void uart_putchar(UARTN_enum uartn, uint8 dat)
{
    while((((USART_TypeDef*)UARTN[uartn])->STATR&0X40)==0);
    2202:	6799                	lui	a5,0x6
    2204:	050a                	slli	a0,a0,0x2
    2206:	99078793          	addi	a5,a5,-1648 # 5990 <UARTN>
    220a:	97aa                	add	a5,a5,a0
    220c:	4398                	lw	a4,0(a5)
F:\数据\嘉立创比赛\程序\IOT_tuya\obj/../Libraries/seekfree_libraries/zf_uart.c:114 (discriminator 1)
    220e:	00075783          	lhu	a5,0(a4) # e000f000 <_eusrstack+0xc000a000>
    2212:	0407f793          	andi	a5,a5,64
    2216:	dfe5                	beqz	a5,220e <uart_putchar+0xc>
F:\数据\嘉立创比赛\程序\IOT_tuya\obj/../Libraries/seekfree_libraries/zf_uart.c:115
    ((USART_TypeDef*)UARTN[uartn])->DATAR = dat;
    2218:	05c2                	slli	a1,a1,0x10
    221a:	81c1                	srli	a1,a1,0x10
    221c:	00b71223          	sh	a1,4(a4)
F:\数据\嘉立创比赛\程序\IOT_tuya\obj/../Libraries/seekfree_libraries/zf_uart.c:116
}
    2220:	8082                	ret

00002222 <uart_rx_irq>:
uart_rx_irq():
F:\数据\嘉立创比赛\程序\IOT_tuya\obj/../Libraries/seekfree_libraries/zf_uart.c:157
//  @return     void
//  Sample usage:           uart_rx_irq(UART_1, ENABLE);        //打开串口1接收中断
//-------------------------------------------------------------------------------------------------------------------
void uart_rx_irq(UARTN_enum uartn,uint8 status)
{
    USART_ITConfig(((USART_TypeDef*)UARTN[uartn]), USART_IT_RXNE, ENABLE);
    2222:	6799                	lui	a5,0x6
    2224:	00251713          	slli	a4,a0,0x2
    2228:	99078793          	addi	a5,a5,-1648 # 5990 <UARTN>
F:\数据\嘉立创比赛\程序\IOT_tuya\obj/../Libraries/seekfree_libraries/zf_uart.c:156
{
    222c:	1101                	addi	sp,sp,-32
F:\数据\嘉立创比赛\程序\IOT_tuya\obj/../Libraries/seekfree_libraries/zf_uart.c:157
    USART_ITConfig(((USART_TypeDef*)UARTN[uartn]), USART_IT_RXNE, ENABLE);
    222e:	97ba                	add	a5,a5,a4
F:\数据\嘉立创比赛\程序\IOT_tuya\obj/../Libraries/seekfree_libraries/zf_uart.c:156
{
    2230:	cc22                	sw	s0,24(sp)
    2232:	842a                	mv	s0,a0
F:\数据\嘉立创比赛\程序\IOT_tuya\obj/../Libraries/seekfree_libraries/zf_uart.c:157
    USART_ITConfig(((USART_TypeDef*)UARTN[uartn]), USART_IT_RXNE, ENABLE);
    2234:	4388                	lw	a0,0(a5)
F:\数据\嘉立创比赛\程序\IOT_tuya\obj/../Libraries/seekfree_libraries/zf_uart.c:156
{
    2236:	c62e                	sw	a1,12(sp)
F:\数据\嘉立创比赛\程序\IOT_tuya\obj/../Libraries/seekfree_libraries/zf_uart.c:157
    USART_ITConfig(((USART_TypeDef*)UARTN[uartn]), USART_IT_RXNE, ENABLE);
    2238:	4605                	li	a2,1
    223a:	52500593          	li	a1,1317
F:\数据\嘉立创比赛\程序\IOT_tuya\obj/../Libraries/seekfree_libraries/zf_uart.c:156
{
    223e:	ce06                	sw	ra,28(sp)
F:\数据\嘉立创比赛\程序\IOT_tuya\obj/../Libraries/seekfree_libraries/zf_uart.c:157
    USART_ITConfig(((USART_TypeDef*)UARTN[uartn]), USART_IT_RXNE, ENABLE);
    2240:	9b2ff0ef          	jal	ra,13f2 <USART_ITConfig>
F:\数据\嘉立创比赛\程序\IOT_tuya\obj/../Libraries/seekfree_libraries/zf_uart.c:158
    nvic_init(USART1_IRQn + uartn, 0, 0, status);
    2244:	03540513          	addi	a0,s0,53
F:\数据\嘉立创比赛\程序\IOT_tuya\obj/../Libraries/seekfree_libraries/zf_uart.c:159
}
    2248:	4462                	lw	s0,24(sp)
F:\数据\嘉立创比赛\程序\IOT_tuya\obj/../Libraries/seekfree_libraries/zf_uart.c:158
    nvic_init(USART1_IRQn + uartn, 0, 0, status);
    224a:	46b2                	lw	a3,12(sp)
F:\数据\嘉立创比赛\程序\IOT_tuya\obj/../Libraries/seekfree_libraries/zf_uart.c:159
}
    224c:	40f2                	lw	ra,28(sp)
F:\数据\嘉立创比赛\程序\IOT_tuya\obj/../Libraries/seekfree_libraries/zf_uart.c:158
    nvic_init(USART1_IRQn + uartn, 0, 0, status);
    224e:	4601                	li	a2,0
    2250:	4581                	li	a1,0
F:\数据\嘉立创比赛\程序\IOT_tuya\obj/../Libraries/seekfree_libraries/zf_uart.c:159
}
    2252:	6105                	addi	sp,sp,32
F:\数据\嘉立创比赛\程序\IOT_tuya\obj/../Libraries/seekfree_libraries/zf_uart.c:158
    nvic_init(USART1_IRQn + uartn, 0, 0, status);
    2254:	df7ff06f          	j	204a <nvic_init>

00002258 <board_init>:
board_init():
F:\数据\嘉立创比赛\程序\IOT_tuya\obj/../Libraries/board/board.c:11


void board_init(void)
{
    //获取系统主频
    sys_clk = 8000000 * (((RCC->CFGR0 >> 18)&0x0F) + 2);
    2258:	400217b7          	lui	a5,0x40021
    225c:	43dc                	lw	a5,4(a5)
    225e:	007a1737          	lui	a4,0x7a1
    2262:	20070713          	addi	a4,a4,512 # 7a1200 <_data_lma+0x79b574>
    2266:	83c9                	srli	a5,a5,0x12
    2268:	8bbd                	andi	a5,a5,15
    226a:	02e787b3          	mul	a5,a5,a4
    226e:	00f42737          	lui	a4,0xf42
    2272:	40070713          	addi	a4,a4,1024 # f42400 <_data_lma+0xf3c774>
F:\数据\嘉立创比赛\程序\IOT_tuya\obj/../Libraries/board/board.c:13
    //初始化DEBUG串口
    uart_init(DEBUG_UART, DEBUG_UART_BAUD, DEBUG_UART_TX_PIN, DEBUG_UART_RX_PIN);
    2276:	65f1                	lui	a1,0x1c
    2278:	4685                	li	a3,1
    227a:	4601                	li	a2,0
    227c:	20058593          	addi	a1,a1,512 # 1c200 <_data_lma+0x16574>
    2280:	4501                	li	a0,0
F:\数据\嘉立创比赛\程序\IOT_tuya\obj/../Libraries/board/board.c:11
    sys_clk = 8000000 * (((RCC->CFGR0 >> 18)&0x0F) + 2);
    2282:	97ba                	add	a5,a5,a4
    2284:	82f1a423          	sw	a5,-2008(gp) # 20000098 <sys_clk>
F:\数据\嘉立创比赛\程序\IOT_tuya\obj/../Libraries/board/board.c:13
    uart_init(DEBUG_UART, DEBUG_UART_BAUD, DEBUG_UART_TX_PIN, DEBUG_UART_RX_PIN);
    2288:	bdfd                	j	2186 <uart_init>

0000228a <_write>:
_write():
F:\数据\嘉立创比赛\程序\IOT_tuya\obj/../Libraries/board/board.c:26
//  @since      v1.0
//  Sample usage:              重定向printf到DEBUG串口上
//-------------------------------------------------------------------------------------------------------------------
#if (1 == PRINTF_ENABLE)
int _write(int fd, char *buf, int size)
{
    228a:	1101                	addi	sp,sp,-32
F:\数据\嘉立创比赛\程序\IOT_tuya\obj/../Libraries/board/board.c:30
    int i;
    for(i=0; i<size; i++)
    {
        while (USART_GetFlagStatus((USART_TypeDef*)UARTN[DEBUG_UART], USART_FLAG_TC) == RESET);
    228c:	6799                	lui	a5,0x6
F:\数据\嘉立创比赛\程序\IOT_tuya\obj/../Libraries/board/board.c:26
{
    228e:	c84a                	sw	s2,16(sp)
F:\数据\嘉立创比赛\程序\IOT_tuya\obj/../Libraries/board/board.c:30
        while (USART_GetFlagStatus((USART_TypeDef*)UARTN[DEBUG_UART], USART_FLAG_TC) == RESET);
    2290:	9907a903          	lw	s2,-1648(a5) # 5990 <UARTN>
F:\数据\嘉立创比赛\程序\IOT_tuya\obj/../Libraries/board/board.c:26
{
    2294:	cc22                	sw	s0,24(sp)
    2296:	ca26                	sw	s1,20(sp)
    2298:	c64e                	sw	s3,12(sp)
    229a:	ce06                	sw	ra,28(sp)
    229c:	89ae                	mv	s3,a1
    229e:	84b2                	mv	s1,a2
F:\数据\嘉立创比赛\程序\IOT_tuya\obj/../Libraries/board/board.c:28
    for(i=0; i<size; i++)
    22a0:	4401                	li	s0,0
F:\数据\嘉立创比赛\程序\IOT_tuya\obj/../Libraries/board/board.c:28 (discriminator 1)
    22a2:	00944a63          	blt	s0,s1,22b6 <_write+0x2c>
F:\数据\嘉立创比赛\程序\IOT_tuya\obj/../Libraries/board/board.c:34
        USART_SendData((USART_TypeDef*)UARTN[DEBUG_UART], *buf++);
    }
    return size;
}
    22a6:	40f2                	lw	ra,28(sp)
    22a8:	4462                	lw	s0,24(sp)
    22aa:	8526                	mv	a0,s1
    22ac:	4942                	lw	s2,16(sp)
    22ae:	44d2                	lw	s1,20(sp)
    22b0:	49b2                	lw	s3,12(sp)
    22b2:	6105                	addi	sp,sp,32
    22b4:	8082                	ret
F:\数据\嘉立创比赛\程序\IOT_tuya\obj/../Libraries/board/board.c:30 (discriminator 1)
        while (USART_GetFlagStatus((USART_TypeDef*)UARTN[DEBUG_UART], USART_FLAG_TC) == RESET);
    22b6:	04000593          	li	a1,64
    22ba:	854a                	mv	a0,s2
    22bc:	980ff0ef          	jal	ra,143c <USART_GetFlagStatus>
    22c0:	d97d                	beqz	a0,22b6 <_write+0x2c>
F:\数据\嘉立创比赛\程序\IOT_tuya\obj/../Libraries/board/board.c:31 (discriminator 2)
        USART_SendData((USART_TypeDef*)UARTN[DEBUG_UART], *buf++);
    22c2:	008987b3          	add	a5,s3,s0
    22c6:	00078583          	lb	a1,0(a5)
    22ca:	854a                	mv	a0,s2
F:\数据\嘉立创比赛\程序\IOT_tuya\obj/../Libraries/board/board.c:28 (discriminator 2)
    for(i=0; i<size; i++)
    22cc:	0405                	addi	s0,s0,1
F:\数据\嘉立创比赛\程序\IOT_tuya\obj/../Libraries/board/board.c:31 (discriminator 2)
        USART_SendData((USART_TypeDef*)UARTN[DEBUG_UART], *buf++);
    22ce:	05c2                	slli	a1,a1,0x10
    22d0:	81c1                	srli	a1,a1,0x10
    22d2:	956ff0ef          	jal	ra,1428 <USART_SendData>
    22d6:	b7f1                	j	22a2 <_write+0x18>

000022d8 <SystemInit>:
SystemInit():
F:\数据\嘉立创比赛\程序\IOT_tuya\obj/../Libraries/board/clock_config.c:85
* Input          : None
* Return         : None
*******************************************************************************************/
void SystemInit (void)
{
    RCC->CTLR |= (uint32_t)0x00000001;
    22d8:	400217b7          	lui	a5,0x40021
    22dc:	4398                	lw	a4,0(a5)
F:\数据\嘉立创比赛\程序\IOT_tuya\obj/../Libraries/board/clock_config.c:86
    RCC->CFGR0 &= (uint32_t)0xF8FF0000;
    22de:	f8ff06b7          	lui	a3,0xf8ff0
F:\数据\嘉立创比赛\程序\IOT_tuya\obj/../Libraries/board/clock_config.c:84
{
    22e2:	1141                	addi	sp,sp,-16
F:\数据\嘉立创比赛\程序\IOT_tuya\obj/../Libraries/board/clock_config.c:85
    RCC->CTLR |= (uint32_t)0x00000001;
    22e4:	00176713          	ori	a4,a4,1
    22e8:	c398                	sw	a4,0(a5)
F:\数据\嘉立创比赛\程序\IOT_tuya\obj/../Libraries/board/clock_config.c:86
    RCC->CFGR0 &= (uint32_t)0xF8FF0000;
    22ea:	43d8                	lw	a4,4(a5)
SetSysClock():
F:\数据\嘉立创比赛\程序\IOT_tuya\obj/../Libraries/board/clock_config.c:19
        HSEStatus = RCC->CTLR & RCC_HSERDY;
    22ec:	00020637          	lui	a2,0x20
SystemInit():
F:\数据\嘉立创比赛\程序\IOT_tuya\obj/../Libraries/board/clock_config.c:86
    RCC->CFGR0 &= (uint32_t)0xF8FF0000;
    22f0:	8f75                	and	a4,a4,a3
    22f2:	c3d8                	sw	a4,4(a5)
F:\数据\嘉立创比赛\程序\IOT_tuya\obj/../Libraries/board/clock_config.c:87
    RCC->CTLR &= (uint32_t)0xFEF6FFFF;
    22f4:	4398                	lw	a4,0(a5)
    22f6:	fef706b7          	lui	a3,0xfef70
    22fa:	16fd                	addi	a3,a3,-1
    22fc:	8f75                	and	a4,a4,a3
    22fe:	c398                	sw	a4,0(a5)
F:\数据\嘉立创比赛\程序\IOT_tuya\obj/../Libraries/board/clock_config.c:88
    RCC->CTLR &= (uint32_t)0xFFFBFFFF;
    2300:	4398                	lw	a4,0(a5)
    2302:	fffc06b7          	lui	a3,0xfffc0
    2306:	16fd                	addi	a3,a3,-1
    2308:	8f75                	and	a4,a4,a3
    230a:	c398                	sw	a4,0(a5)
F:\数据\嘉立创比赛\程序\IOT_tuya\obj/../Libraries/board/clock_config.c:89
    RCC->CFGR0 &= (uint32_t)0xFF80FFFF;
    230c:	43d8                	lw	a4,4(a5)
    230e:	ff8106b7          	lui	a3,0xff810
    2312:	16fd                	addi	a3,a3,-1
    2314:	8f75                	and	a4,a4,a3
    2316:	c3d8                	sw	a4,4(a5)
F:\数据\嘉立创比赛\程序\IOT_tuya\obj/../Libraries/board/clock_config.c:90
    RCC->INTR = 0x009F0000;
    2318:	009f0737          	lui	a4,0x9f0
    231c:	c798                	sw	a4,8(a5)
SetSysClock():
F:\数据\嘉立创比赛\程序\IOT_tuya\obj/../Libraries/board/clock_config.c:12
    __IO uint32_t StartUpCounter = 0, HSEStatus = 0;
    231e:	c402                	sw	zero,8(sp)
    2320:	c602                	sw	zero,12(sp)
F:\数据\嘉立创比赛\程序\IOT_tuya\obj/../Libraries/board/clock_config.c:14
    RCC->CTLR |= ((uint32_t)RCC_HSEON);
    2322:	4398                	lw	a4,0(a5)
    2324:	66c1                	lui	a3,0x10
    2326:	8f55                	or	a4,a4,a3
    2328:	c398                	sw	a4,0(a5)
F:\数据\嘉立创比赛\程序\IOT_tuya\obj/../Libraries/board/clock_config.c:19
        HSEStatus = RCC->CTLR & RCC_HSERDY;
    232a:	400216b7          	lui	a3,0x40021
F:\数据\嘉立创比赛\程序\IOT_tuya\obj/../Libraries/board/clock_config.c:21
    } while((HSEStatus == 0) && (StartUpCounter != HSE_STARTUP_TIMEOUT));
    232e:	50000713          	li	a4,1280
F:\数据\嘉立创比赛\程序\IOT_tuya\obj/../Libraries/board/clock_config.c:19
        HSEStatus = RCC->CTLR & RCC_HSERDY;
    2332:	429c                	lw	a5,0(a3)
    2334:	8ff1                	and	a5,a5,a2
    2336:	c63e                	sw	a5,12(sp)
F:\数据\嘉立创比赛\程序\IOT_tuya\obj/../Libraries/board/clock_config.c:20
        StartUpCounter++;
    2338:	47a2                	lw	a5,8(sp)
    233a:	0785                	addi	a5,a5,1
    233c:	c43e                	sw	a5,8(sp)
F:\数据\嘉立创比赛\程序\IOT_tuya\obj/../Libraries/board/clock_config.c:21
    } while((HSEStatus == 0) && (StartUpCounter != HSE_STARTUP_TIMEOUT));
    233e:	47b2                	lw	a5,12(sp)
    2340:	e781                	bnez	a5,2348 <SystemInit+0x70>
    2342:	47a2                	lw	a5,8(sp)
    2344:	fee797e3          	bne	a5,a4,2332 <SystemInit+0x5a>
F:\数据\嘉立创比赛\程序\IOT_tuya\obj/../Libraries/board/clock_config.c:23
    if ((RCC->CTLR & RCC_HSERDY) != RESET)
    2348:	400217b7          	lui	a5,0x40021
    234c:	439c                	lw	a5,0(a5)
    234e:	00e79713          	slli	a4,a5,0xe
    2352:	08075263          	bgez	a4,23d6 <SystemInit+0xfe>
F:\数据\嘉立创比赛\程序\IOT_tuya\obj/../Libraries/board/clock_config.c:25
        HSEStatus = (uint32_t)0x01;
    2356:	4785                	li	a5,1
    2358:	c63e                	sw	a5,12(sp)
F:\数据\嘉立创比赛\程序\IOT_tuya\obj/../Libraries/board/clock_config.c:32
    if (HSEStatus == (uint32_t)0x01)
    235a:	4732                	lw	a4,12(sp)
    235c:	4785                	li	a5,1
    235e:	06f71a63          	bne	a4,a5,23d2 <SystemInit+0xfa>
F:\数据\嘉立创比赛\程序\IOT_tuya\obj/../Libraries/board/clock_config.c:35
        FLASH->ACTLR |= FLASH_ACTLR_PRFTBE;
    2362:	400227b7          	lui	a5,0x40022
    2366:	4398                	lw	a4,0(a5)
F:\数据\嘉立创比赛\程序\IOT_tuya\obj/../Libraries/board/clock_config.c:49
        RCC->CFGR0 &= (uint32_t)((uint32_t)~(RCC_PLLSRC | RCC_PLLXTPRE |
    2368:	ffc106b7          	lui	a3,0xffc10
    236c:	16fd                	addi	a3,a3,-1
F:\数据\嘉立创比赛\程序\IOT_tuya\obj/../Libraries/board/clock_config.c:35
        FLASH->ACTLR |= FLASH_ACTLR_PRFTBE;
    236e:	01076713          	ori	a4,a4,16
    2372:	c398                	sw	a4,0(a5)
F:\数据\嘉立创比赛\程序\IOT_tuya\obj/../Libraries/board/clock_config.c:38
        FLASH->ACTLR &= (uint32_t)((uint32_t)~FLASH_ACTLR_LATENCY);
    2374:	4398                	lw	a4,0(a5)
    2376:	9b71                	andi	a4,a4,-4
    2378:	c398                	sw	a4,0(a5)
F:\数据\嘉立创比赛\程序\IOT_tuya\obj/../Libraries/board/clock_config.c:39
        FLASH->ACTLR |= (uint32_t)FLASH_ACTLR_LATENCY_2;
    237a:	4398                	lw	a4,0(a5)
    237c:	00276713          	ori	a4,a4,2
    2380:	c398                	sw	a4,0(a5)
F:\数据\嘉立创比赛\程序\IOT_tuya\obj/../Libraries/board/clock_config.c:42
        RCC->CFGR0 |= (uint32_t)RCC_HPRE_DIV1;
    2382:	400217b7          	lui	a5,0x40021
    2386:	43d8                	lw	a4,4(a5)
    2388:	c3d8                	sw	a4,4(a5)
F:\数据\嘉立创比赛\程序\IOT_tuya\obj/../Libraries/board/clock_config.c:44
        RCC->CFGR0 |= (uint32_t)RCC_PPRE2_DIV1;
    238a:	43d8                	lw	a4,4(a5)
    238c:	c3d8                	sw	a4,4(a5)
F:\数据\嘉立创比赛\程序\IOT_tuya\obj/../Libraries/board/clock_config.c:46
        RCC->CFGR0 |= (uint32_t)RCC_PPRE1_DIV1;
    238e:	43d8                	lw	a4,4(a5)
    2390:	c3d8                	sw	a4,4(a5)
F:\数据\嘉立创比赛\程序\IOT_tuya\obj/../Libraries/board/clock_config.c:49
        RCC->CFGR0 &= (uint32_t)((uint32_t)~(RCC_PLLSRC | RCC_PLLXTPRE |
    2392:	43d8                	lw	a4,4(a5)
    2394:	8f75                	and	a4,a4,a3
    2396:	c3d8                	sw	a4,4(a5)
F:\数据\嘉立创比赛\程序\IOT_tuya\obj/../Libraries/board/clock_config.c:52
        RCC->CFGR0 |= (uint32_t)(RCC_PLLSRC_HSE | RCC_PLLMULL11);
    2398:	43d8                	lw	a4,4(a5)
    239a:	002506b7          	lui	a3,0x250
    239e:	8f55                	or	a4,a4,a3
    23a0:	c3d8                	sw	a4,4(a5)
F:\数据\嘉立创比赛\程序\IOT_tuya\obj/../Libraries/board/clock_config.c:54
        RCC->CTLR |= RCC_PLLON;
    23a2:	4398                	lw	a4,0(a5)
    23a4:	010006b7          	lui	a3,0x1000
    23a8:	8f55                	or	a4,a4,a3
    23aa:	c398                	sw	a4,0(a5)
F:\数据\嘉立创比赛\程序\IOT_tuya\obj/../Libraries/board/clock_config.c:56
        while((RCC->CTLR & RCC_PLLRDY) == 0)
    23ac:	4398                	lw	a4,0(a5)
    23ae:	00671693          	slli	a3,a4,0x6
    23b2:	fe06dde3          	bgez	a3,23ac <SystemInit+0xd4>
F:\数据\嘉立创比赛\程序\IOT_tuya\obj/../Libraries/board/clock_config.c:60
        RCC->CFGR0 &= (uint32_t)((uint32_t)~(RCC_SW));
    23b6:	43d8                	lw	a4,4(a5)
F:\数据\嘉立创比赛\程序\IOT_tuya\obj/../Libraries/board/clock_config.c:63
        while ((RCC->CFGR0 & (uint32_t)RCC_SWS) != (uint32_t)0x08)
    23b8:	400216b7          	lui	a3,0x40021
F:\数据\嘉立创比赛\程序\IOT_tuya\obj/../Libraries/board/clock_config.c:60
        RCC->CFGR0 &= (uint32_t)((uint32_t)~(RCC_SW));
    23bc:	9b71                	andi	a4,a4,-4
    23be:	c3d8                	sw	a4,4(a5)
F:\数据\嘉立创比赛\程序\IOT_tuya\obj/../Libraries/board/clock_config.c:61
        RCC->CFGR0 |= (uint32_t)RCC_SW_PLL;
    23c0:	43d8                	lw	a4,4(a5)
    23c2:	00276713          	ori	a4,a4,2
    23c6:	c3d8                	sw	a4,4(a5)
F:\数据\嘉立创比赛\程序\IOT_tuya\obj/../Libraries/board/clock_config.c:63
        while ((RCC->CFGR0 & (uint32_t)RCC_SWS) != (uint32_t)0x08)
    23c8:	4721                	li	a4,8
    23ca:	42dc                	lw	a5,4(a3)
    23cc:	8bb1                	andi	a5,a5,12
    23ce:	fee79ee3          	bne	a5,a4,23ca <SystemInit+0xf2>
SystemInit():
F:\数据\嘉立创比赛\程序\IOT_tuya\obj/../Libraries/board/clock_config.c:92
    SetSysClock();
}
    23d2:	0141                	addi	sp,sp,16
    23d4:	8082                	ret
SetSysClock():
F:\数据\嘉立创比赛\程序\IOT_tuya\obj/../Libraries/board/clock_config.c:29
        HSEStatus = (uint32_t)0x00;
    23d6:	c602                	sw	zero,12(sp)
    23d8:	b749                	j	235a <SystemInit+0x82>

000023da <SHT3X_WriteCMD>:
SHT3X_WriteCMD():
F:\数据\嘉立创比赛\程序\IOT_tuya\obj/../Libraries/Code/DHT11.c:17

//参数一 SHT30地址
//参数二 命令

void SHT3X_WriteCMD( u8 add ,u16 cmd)
{
    23da:	1101                	addi	sp,sp,-32
    23dc:	ce06                	sw	ra,28(sp)
    23de:	cc22                	sw	s0,24(sp)
    23e0:	c62a                	sw	a0,12(sp)
    23e2:	842e                	mv	s0,a1
F:\数据\嘉立创比赛\程序\IOT_tuya\obj/../Libraries/Code/DHT11.c:18
  IIC_Start();
    23e4:	2205                	jal	2504 <IIC_Start>
F:\数据\嘉立创比赛\程序\IOT_tuya\obj/../Libraries/Code/DHT11.c:19
  IIC_Send_Byte(add);
    23e6:	4532                	lw	a0,12(sp)
    23e8:	2c55                	jal	269c <IIC_Send_Byte>
F:\数据\嘉立创比赛\程序\IOT_tuya\obj/../Libraries/Code/DHT11.c:20
  IIC_Wait_Ack();
    23ea:	24a9                	jal	2634 <IIC_Wait_Ack>
F:\数据\嘉立创比赛\程序\IOT_tuya\obj/../Libraries/Code/DHT11.c:21
  IIC_Send_Byte(cmd>>8);
    23ec:	00845513          	srli	a0,s0,0x8
    23f0:	2475                	jal	269c <IIC_Send_Byte>
F:\数据\嘉立创比赛\程序\IOT_tuya\obj/../Libraries/Code/DHT11.c:22
  IIC_Wait_Ack();
    23f2:	2489                	jal	2634 <IIC_Wait_Ack>
F:\数据\嘉立创比赛\程序\IOT_tuya\obj/../Libraries/Code/DHT11.c:23
  IIC_Send_Byte(cmd);
    23f4:	0ff47513          	andi	a0,s0,255
    23f8:	2455                	jal	269c <IIC_Send_Byte>
F:\数据\嘉立创比赛\程序\IOT_tuya\obj/../Libraries/Code/DHT11.c:24
  IIC_Wait_Ack();
    23fa:	2c2d                	jal	2634 <IIC_Wait_Ack>
F:\数据\嘉立创比赛\程序\IOT_tuya\obj/../Libraries/Code/DHT11.c:26
  IIC_Stop();
}
    23fc:	4462                	lw	s0,24(sp)
    23fe:	40f2                	lw	ra,28(sp)
    2400:	6105                	addi	sp,sp,32
F:\数据\嘉立创比赛\程序\IOT_tuya\obj/../Libraries/Code/DHT11.c:25
  IIC_Stop();
    2402:	a2b9                	j	2550 <IIC_Stop>

00002404 <SHX3X_ReadResults>:
SHX3X_ReadResults():
F:\数据\嘉立创比赛\程序\IOT_tuya\obj/../Libraries/Code/DHT11.c:35

//参数一 SHT30地址
//参数二 命令
//参数三 数组，存放从SHT30读取的字节
void SHX3X_ReadResults(u8 add,u16 cmd,  u8 *p)
{
    2404:	1141                	addi	sp,sp,-16
    2406:	c606                	sw	ra,12(sp)
    2408:	c422                	sw	s0,8(sp)
    240a:	c226                	sw	s1,4(sp)
    240c:	8432                	mv	s0,a2
    240e:	c04a                	sw	s2,0(sp)
    2410:	84aa                	mv	s1,a0
    2412:	892e                	mv	s2,a1
F:\数据\嘉立创比赛\程序\IOT_tuya\obj/../Libraries/Code/DHT11.c:36
  IIC_Start();
    2414:	28c5                	jal	2504 <IIC_Start>
F:\数据\嘉立创比赛\程序\IOT_tuya\obj/../Libraries/Code/DHT11.c:37
  IIC_Send_Byte(add);      //0x8a,0x88
    2416:	8526                	mv	a0,s1
    2418:	2451                	jal	269c <IIC_Send_Byte>
F:\数据\嘉立创比赛\程序\IOT_tuya\obj/../Libraries/Code/DHT11.c:38
  IIC_Wait_Ack();
    241a:	2c29                	jal	2634 <IIC_Wait_Ack>
F:\数据\嘉立创比赛\程序\IOT_tuya\obj/../Libraries/Code/DHT11.c:39
  IIC_Send_Byte(cmd>>8);
    241c:	00895513          	srli	a0,s2,0x8
    2420:	2cb5                	jal	269c <IIC_Send_Byte>
F:\数据\嘉立创比赛\程序\IOT_tuya\obj/../Libraries/Code/DHT11.c:40
  IIC_Wait_Ack();
    2422:	2c09                	jal	2634 <IIC_Wait_Ack>
F:\数据\嘉立创比赛\程序\IOT_tuya\obj/../Libraries/Code/DHT11.c:41
  IIC_Send_Byte(cmd);
    2424:	0ff97513          	andi	a0,s2,255
    2428:	2c95                	jal	269c <IIC_Send_Byte>
F:\数据\嘉立创比赛\程序\IOT_tuya\obj/../Libraries/Code/DHT11.c:42
  IIC_Wait_Ack();
    242a:	2429                	jal	2634 <IIC_Wait_Ack>
F:\数据\嘉立创比赛\程序\IOT_tuya\obj/../Libraries/Code/DHT11.c:44

  IIC_Start();
    242c:	28e1                	jal	2504 <IIC_Start>
F:\数据\嘉立创比赛\程序\IOT_tuya\obj/../Libraries/Code/DHT11.c:45
  IIC_Send_Byte(add+1);
    242e:	00148513          	addi	a0,s1,1
    2432:	0ff57513          	andi	a0,a0,255
    2436:	249d                	jal	269c <IIC_Send_Byte>
F:\数据\嘉立创比赛\程序\IOT_tuya\obj/../Libraries/Code/DHT11.c:46
  IIC_Wait_Ack();
    2438:	2af5                	jal	2634 <IIC_Wait_Ack>
F:\数据\嘉立创比赛\程序\IOT_tuya\obj/../Libraries/Code/DHT11.c:48

  p[0]=IIC_Read_Byte(1);
    243a:	4505                	li	a0,1
    243c:	2ce9                	jal	2716 <IIC_Read_Byte>
    243e:	00a40023          	sb	a0,0(s0)
F:\数据\嘉立创比赛\程序\IOT_tuya\obj/../Libraries/Code/DHT11.c:49
  p[1]=IIC_Read_Byte(1);
    2442:	4505                	li	a0,1
    2444:	2cc9                	jal	2716 <IIC_Read_Byte>
    2446:	00a400a3          	sb	a0,1(s0)
F:\数据\嘉立创比赛\程序\IOT_tuya\obj/../Libraries/Code/DHT11.c:50
  p[2]=IIC_Read_Byte(1);
    244a:	4505                	li	a0,1
    244c:	24e9                	jal	2716 <IIC_Read_Byte>
    244e:	00a40123          	sb	a0,2(s0)
F:\数据\嘉立创比赛\程序\IOT_tuya\obj/../Libraries/Code/DHT11.c:51
  p[3]=IIC_Read_Byte(1);
    2452:	4505                	li	a0,1
    2454:	24c9                	jal	2716 <IIC_Read_Byte>
    2456:	00a401a3          	sb	a0,3(s0)
F:\数据\嘉立创比赛\程序\IOT_tuya\obj/../Libraries/Code/DHT11.c:52
  p[4]=IIC_Read_Byte(1);
    245a:	4505                	li	a0,1
    245c:	2c6d                	jal	2716 <IIC_Read_Byte>
    245e:	00a40223          	sb	a0,4(s0)
F:\数据\嘉立创比赛\程序\IOT_tuya\obj/../Libraries/Code/DHT11.c:53
  p[5]=IIC_Read_Byte(0);
    2462:	4501                	li	a0,0
    2464:	2c4d                	jal	2716 <IIC_Read_Byte>
    2466:	00a402a3          	sb	a0,5(s0)
F:\数据\嘉立创比赛\程序\IOT_tuya\obj/../Libraries/Code/DHT11.c:57

  IIC_Stop();

}
    246a:	4422                	lw	s0,8(sp)
    246c:	40b2                	lw	ra,12(sp)
    246e:	4492                	lw	s1,4(sp)
    2470:	4902                	lw	s2,0(sp)
    2472:	0141                	addi	sp,sp,16
F:\数据\嘉立创比赛\程序\IOT_tuya\obj/../Libraries/Code/DHT11.c:55
  IIC_Stop();
    2474:	a8f1                	j	2550 <IIC_Stop>

00002476 <SHT3X_CalcTemperature>:
SHT3X_CalcTemperature():
F:\数据\嘉立创比赛\程序\IOT_tuya\obj/../Libraries/Code/DHT11.c:61

//参数 从SHT30读取的表示温度值的16位数据
float SHT3X_CalcTemperature(uint16_t rawValue)
{
    2476:	1141                	addi	sp,sp,-16
    2478:	c606                	sw	ra,12(sp)
F:\数据\嘉立创比赛\程序\IOT_tuya\obj/../Libraries/Code/DHT11.c:63
  float temp;
  temp=(175 * (float)rawValue / 65535 - 45) ; // T = -45 + 175 * rawValue / (2^16-1)
    247a:	287010ef          	jal	ra,3f00 <__floatunsisf>
    247e:	000067b7          	lui	a5,0x6
    2482:	9a47a583          	lw	a1,-1628(a5) # 59a4 <UARTN+0x14>
    2486:	408010ef          	jal	ra,388e <__mulsf3>
    248a:	000067b7          	lui	a5,0x6
    248e:	9a87a583          	lw	a1,-1624(a5) # 59a8 <UARTN+0x18>
    2492:	14a010ef          	jal	ra,35dc <__divsf3>
    2496:	000067b7          	lui	a5,0x6
    249a:	9ac7a583          	lw	a1,-1620(a5) # 59ac <UARTN+0x1c>
    249e:	684010ef          	jal	ra,3b22 <__subsf3>
F:\数据\嘉立创比赛\程序\IOT_tuya\obj/../Libraries/Code/DHT11.c:65
   return temp;
}
    24a2:	40b2                	lw	ra,12(sp)
    24a4:	0141                	addi	sp,sp,16
    24a6:	8082                	ret

000024a8 <SHT_GetValue>:
SHT_GetValue():
F:\数据\嘉立创比赛\程序\IOT_tuya\obj/../Libraries/Code/DHT11.c:78
   return temp1;
}

//参数 SHT30地址
void SHT_GetValue(u8 add)
{
    24a8:	1141                	addi	sp,sp,-16
    24aa:	c422                	sw	s0,8(sp)
F:\数据\嘉立创比赛\程序\IOT_tuya\obj/../Libraries/Code/DHT11.c:83
    u8 temp = 0;
    u16 dat;
    u8 p[3];

   SHX3X_ReadResults(add ,0xE000, buffer);
    24ac:	20003437          	lui	s0,0x20003
    24b0:	06c40613          	addi	a2,s0,108 # 2000306c <buffer>
    24b4:	65b9                	lui	a1,0xe
F:\数据\嘉立创比赛\程序\IOT_tuya\obj/../Libraries/Code/DHT11.c:78
{
    24b6:	c606                	sw	ra,12(sp)
F:\数据\嘉立创比赛\程序\IOT_tuya\obj/../Libraries/Code/DHT11.c:83
   SHX3X_ReadResults(add ,0xE000, buffer);
    24b8:	37b1                	jal	2404 <SHX3X_ReadResults>
F:\数据\嘉立创比赛\程序\IOT_tuya\obj/../Libraries/Code/DHT11.c:90
    p[1] = buffer[1];
    p[2] = buffer[2];

  if(!temp)
  {
    dat = ((u16)buffer[0] << 8) | buffer[1];
    24ba:	06c44783          	lbu	a5,108(s0)
F:\数据\嘉立创比赛\程序\IOT_tuya\obj/../Libraries/Code/DHT11.c:85
    p[1] = buffer[1];
    24be:	06c40413          	addi	s0,s0,108
F:\数据\嘉立创比赛\程序\IOT_tuya\obj/../Libraries/Code/DHT11.c:90
    dat = ((u16)buffer[0] << 8) | buffer[1];
    24c2:	00144503          	lbu	a0,1(s0)
    24c6:	07a2                	slli	a5,a5,0x8
F:\数据\嘉立创比赛\程序\IOT_tuya\obj/../Libraries/Code/DHT11.c:91
    Tem_Value = SHT3X_CalcTemperature( dat );
    24c8:	8d5d                	or	a0,a0,a5
    24ca:	3775                	jal	2476 <SHT3X_CalcTemperature>
    24cc:	82a1ae23          	sw	a0,-1988(gp) # 200000ac <Tem_Value>
F:\数据\嘉立创比赛\程序\IOT_tuya\obj/../Libraries/Code/DHT11.c:99
    p[1] = buffer[4];
    p[2] = buffer[5];

  if(!temp)
  {
    dat = ((u16)p[0] << 8) | p[1];
    24d0:	00344783          	lbu	a5,3(s0)
    24d4:	00444503          	lbu	a0,4(s0)
    24d8:	07a2                	slli	a5,a5,0x8
SHT3X_CalcRH():
F:\数据\嘉立创比赛\程序\IOT_tuya\obj/../Libraries/Code/DHT11.c:72
   float temp1 = (100 * (float)rawValue / 65535) ;  // RH = rawValue / (2^16-1) * 10
    24da:	8d5d                	or	a0,a0,a5
    24dc:	225010ef          	jal	ra,3f00 <__floatunsisf>
    24e0:	000067b7          	lui	a5,0x6
    24e4:	9a07a583          	lw	a1,-1632(a5) # 59a0 <UARTN+0x10>
    24e8:	3a6010ef          	jal	ra,388e <__mulsf3>
    24ec:	000067b7          	lui	a5,0x6
    24f0:	9a87a583          	lw	a1,-1624(a5) # 59a8 <UARTN+0x18>
    24f4:	0e8010ef          	jal	ra,35dc <__divsf3>
SHT_GetValue():
F:\数据\嘉立创比赛\程序\IOT_tuya\obj/../Libraries/Code/DHT11.c:102
    RH_Value = SHT3X_CalcRH( dat );
  }
}
    24f8:	40b2                	lw	ra,12(sp)
    24fa:	4422                	lw	s0,8(sp)
F:\数据\嘉立创比赛\程序\IOT_tuya\obj/../Libraries/Code/DHT11.c:100
    RH_Value = SHT3X_CalcRH( dat );
    24fc:	82a1ac23          	sw	a0,-1992(gp) # 200000a8 <RH_Value>
F:\数据\嘉立创比赛\程序\IOT_tuya\obj/../Libraries/Code/DHT11.c:102
}
    2500:	0141                	addi	sp,sp,16
    2502:	8082                	ret

00002504 <IIC_Start>:
IIC_Start():
F:\数据\嘉立创比赛\程序\IOT_tuya\obj/../Libraries/Code/iic.c:24
#define IIC_SDA_Low()     gpio_set(B13,0) //SCL

#define READ_SDA          gpio_get (B13)

void IIC_Start(void)
{
    2504:	1141                	addi	sp,sp,-16
F:\数据\嘉立创比赛\程序\IOT_tuya\obj/../Libraries/Code/iic.c:25
    SDA_OUT();     //sda线输出模式
    2506:	31400693          	li	a3,788
    250a:	4605                	li	a2,1
    250c:	4585                	li	a1,1
    250e:	02d00513          	li	a0,45
F:\数据\嘉立创比赛\程序\IOT_tuya\obj/../Libraries/Code/iic.c:24
{
    2512:	c606                	sw	ra,12(sp)
F:\数据\嘉立创比赛\程序\IOT_tuya\obj/../Libraries/Code/iic.c:25
    SDA_OUT();     //sda线输出模式
    2514:	9ebff0ef          	jal	ra,1efe <gpio_init>
F:\数据\嘉立创比赛\程序\IOT_tuya\obj/../Libraries/Code/iic.c:26
    IIC_SDA_High();
    2518:	4585                	li	a1,1
    251a:	02d00513          	li	a0,45
    251e:	abfff0ef          	jal	ra,1fdc <gpio_set>
F:\数据\嘉立创比赛\程序\IOT_tuya\obj/../Libraries/Code/iic.c:27
    IIC_SCL_High();
    2522:	4585                	li	a1,1
    2524:	02f00513          	li	a0,47
    2528:	ab5ff0ef          	jal	ra,1fdc <gpio_set>
F:\数据\嘉立创比赛\程序\IOT_tuya\obj/../Libraries/Code/iic.c:28
    systick_delay_us(5);
    252c:	4515                	li	a0,5
    252e:	b6fff0ef          	jal	ra,209c <systick_delay>
F:\数据\嘉立创比赛\程序\IOT_tuya\obj/../Libraries/Code/iic.c:29
    IIC_SDA_Low();//开始信号,scl=1,sda=1->sda=0。
    2532:	4581                	li	a1,0
    2534:	02d00513          	li	a0,45
    2538:	aa5ff0ef          	jal	ra,1fdc <gpio_set>
F:\数据\嘉立创比赛\程序\IOT_tuya\obj/../Libraries/Code/iic.c:30
    systick_delay_us(5);
    253c:	4515                	li	a0,5
    253e:	b5fff0ef          	jal	ra,209c <systick_delay>
F:\数据\嘉立创比赛\程序\IOT_tuya\obj/../Libraries/Code/iic.c:32
    IIC_SCL_Low();//scl=0,拉低时钟线,准备数据的发送
}
    2542:	40b2                	lw	ra,12(sp)
F:\数据\嘉立创比赛\程序\IOT_tuya\obj/../Libraries/Code/iic.c:31
    IIC_SCL_Low();//scl=0,拉低时钟线,准备数据的发送
    2544:	4581                	li	a1,0
    2546:	02f00513          	li	a0,47
F:\数据\嘉立创比赛\程序\IOT_tuya\obj/../Libraries/Code/iic.c:32
}
    254a:	0141                	addi	sp,sp,16
F:\数据\嘉立创比赛\程序\IOT_tuya\obj/../Libraries/Code/iic.c:31
    IIC_SCL_Low();//scl=0,拉低时钟线,准备数据的发送
    254c:	a91ff06f          	j	1fdc <gpio_set>

00002550 <IIC_Stop>:
IIC_Stop():
F:\数据\嘉立创比赛\程序\IOT_tuya\obj/../Libraries/Code/iic.c:35

void IIC_Stop(void)
{
    2550:	1141                	addi	sp,sp,-16
F:\数据\嘉立创比赛\程序\IOT_tuya\obj/../Libraries/Code/iic.c:36
    SDA_OUT();//sda线输出模式
    2552:	31400693          	li	a3,788
    2556:	4605                	li	a2,1
    2558:	4585                	li	a1,1
    255a:	02d00513          	li	a0,45
F:\数据\嘉立创比赛\程序\IOT_tuya\obj/../Libraries/Code/iic.c:35
{
    255e:	c606                	sw	ra,12(sp)
F:\数据\嘉立创比赛\程序\IOT_tuya\obj/../Libraries/Code/iic.c:36
    SDA_OUT();//sda线输出模式
    2560:	99fff0ef          	jal	ra,1efe <gpio_init>
F:\数据\嘉立创比赛\程序\IOT_tuya\obj/../Libraries/Code/iic.c:37
    IIC_SCL_Low();
    2564:	4581                	li	a1,0
    2566:	02f00513          	li	a0,47
    256a:	a73ff0ef          	jal	ra,1fdc <gpio_set>
F:\数据\嘉立创比赛\程序\IOT_tuya\obj/../Libraries/Code/iic.c:38
    IIC_SDA_Low();
    256e:	4581                	li	a1,0
    2570:	02d00513          	li	a0,45
    2574:	a69ff0ef          	jal	ra,1fdc <gpio_set>
F:\数据\嘉立创比赛\程序\IOT_tuya\obj/../Libraries/Code/iic.c:39
    systick_delay_us(5);
    2578:	4515                	li	a0,5
    257a:	b23ff0ef          	jal	ra,209c <systick_delay>
F:\数据\嘉立创比赛\程序\IOT_tuya\obj/../Libraries/Code/iic.c:40
    IIC_SCL_High(); //结束信号,scl=1,sda=0->sda=1。
    257e:	4585                	li	a1,1
    2580:	02f00513          	li	a0,47
    2584:	a59ff0ef          	jal	ra,1fdc <gpio_set>
F:\数据\嘉立创比赛\程序\IOT_tuya\obj/../Libraries/Code/iic.c:41
    IIC_SDA_High();
    2588:	02d00513          	li	a0,45
    258c:	4585                	li	a1,1
    258e:	a4fff0ef          	jal	ra,1fdc <gpio_set>
F:\数据\嘉立创比赛\程序\IOT_tuya\obj/../Libraries/Code/iic.c:43
    systick_delay_us(5);
}
    2592:	40b2                	lw	ra,12(sp)
F:\数据\嘉立创比赛\程序\IOT_tuya\obj/../Libraries/Code/iic.c:42
    systick_delay_us(5);
    2594:	4515                	li	a0,5
F:\数据\嘉立创比赛\程序\IOT_tuya\obj/../Libraries/Code/iic.c:43
}
    2596:	0141                	addi	sp,sp,16
F:\数据\嘉立创比赛\程序\IOT_tuya\obj/../Libraries/Code/iic.c:42
    systick_delay_us(5);
    2598:	b05ff06f          	j	209c <systick_delay>

0000259c <IIC_Ack>:
IIC_Ack():
F:\数据\嘉立创比赛\程序\IOT_tuya\obj/../Libraries/Code/iic.c:46

void IIC_Ack(void)
{
    259c:	1141                	addi	sp,sp,-16
F:\数据\嘉立创比赛\程序\IOT_tuya\obj/../Libraries/Code/iic.c:47
    IIC_SCL_Low();
    259e:	4581                	li	a1,0
    25a0:	02f00513          	li	a0,47
F:\数据\嘉立创比赛\程序\IOT_tuya\obj/../Libraries/Code/iic.c:46
{
    25a4:	c606                	sw	ra,12(sp)
F:\数据\嘉立创比赛\程序\IOT_tuya\obj/../Libraries/Code/iic.c:47
    IIC_SCL_Low();
    25a6:	a37ff0ef          	jal	ra,1fdc <gpio_set>
F:\数据\嘉立创比赛\程序\IOT_tuya\obj/../Libraries/Code/iic.c:48
    SDA_OUT();
    25aa:	31400693          	li	a3,788
    25ae:	4605                	li	a2,1
    25b0:	4585                	li	a1,1
    25b2:	02d00513          	li	a0,45
    25b6:	949ff0ef          	jal	ra,1efe <gpio_init>
F:\数据\嘉立创比赛\程序\IOT_tuya\obj/../Libraries/Code/iic.c:49
    IIC_SDA_Low();
    25ba:	4581                	li	a1,0
    25bc:	02d00513          	li	a0,45
    25c0:	a1dff0ef          	jal	ra,1fdc <gpio_set>
F:\数据\嘉立创比赛\程序\IOT_tuya\obj/../Libraries/Code/iic.c:50
    systick_delay_us(2);
    25c4:	4509                	li	a0,2
    25c6:	ad7ff0ef          	jal	ra,209c <systick_delay>
F:\数据\嘉立创比赛\程序\IOT_tuya\obj/../Libraries/Code/iic.c:51
    IIC_SCL_High();
    25ca:	4585                	li	a1,1
    25cc:	02f00513          	li	a0,47
    25d0:	a0dff0ef          	jal	ra,1fdc <gpio_set>
F:\数据\嘉立创比赛\程序\IOT_tuya\obj/../Libraries/Code/iic.c:52
    systick_delay_us(2);
    25d4:	4509                	li	a0,2
    25d6:	ac7ff0ef          	jal	ra,209c <systick_delay>
F:\数据\嘉立创比赛\程序\IOT_tuya\obj/../Libraries/Code/iic.c:54
    IIC_SCL_Low();
}
    25da:	40b2                	lw	ra,12(sp)
F:\数据\嘉立创比赛\程序\IOT_tuya\obj/../Libraries/Code/iic.c:53
    IIC_SCL_Low();
    25dc:	4581                	li	a1,0
    25de:	02f00513          	li	a0,47
F:\数据\嘉立创比赛\程序\IOT_tuya\obj/../Libraries/Code/iic.c:54
}
    25e2:	0141                	addi	sp,sp,16
F:\数据\嘉立创比赛\程序\IOT_tuya\obj/../Libraries/Code/iic.c:53
    IIC_SCL_Low();
    25e4:	9f9ff06f          	j	1fdc <gpio_set>

000025e8 <IIC_NAck>:
IIC_NAck():
F:\数据\嘉立创比赛\程序\IOT_tuya\obj/../Libraries/Code/iic.c:57

void IIC_NAck(void)
{
    25e8:	1141                	addi	sp,sp,-16
F:\数据\嘉立创比赛\程序\IOT_tuya\obj/../Libraries/Code/iic.c:58
    IIC_SCL_Low();
    25ea:	4581                	li	a1,0
    25ec:	02f00513          	li	a0,47
F:\数据\嘉立创比赛\程序\IOT_tuya\obj/../Libraries/Code/iic.c:57
{
    25f0:	c606                	sw	ra,12(sp)
F:\数据\嘉立创比赛\程序\IOT_tuya\obj/../Libraries/Code/iic.c:58
    IIC_SCL_Low();
    25f2:	9ebff0ef          	jal	ra,1fdc <gpio_set>
F:\数据\嘉立创比赛\程序\IOT_tuya\obj/../Libraries/Code/iic.c:59
    SDA_OUT();
    25f6:	31400693          	li	a3,788
    25fa:	4605                	li	a2,1
    25fc:	4585                	li	a1,1
    25fe:	02d00513          	li	a0,45
    2602:	8fdff0ef          	jal	ra,1efe <gpio_init>
F:\数据\嘉立创比赛\程序\IOT_tuya\obj/../Libraries/Code/iic.c:60
    IIC_SDA_High();
    2606:	4585                	li	a1,1
    2608:	02d00513          	li	a0,45
    260c:	9d1ff0ef          	jal	ra,1fdc <gpio_set>
F:\数据\嘉立创比赛\程序\IOT_tuya\obj/../Libraries/Code/iic.c:61
    systick_delay_us(2);
    2610:	4509                	li	a0,2
    2612:	a8bff0ef          	jal	ra,209c <systick_delay>
F:\数据\嘉立创比赛\程序\IOT_tuya\obj/../Libraries/Code/iic.c:62
    IIC_SCL_High();
    2616:	4585                	li	a1,1
    2618:	02f00513          	li	a0,47
    261c:	9c1ff0ef          	jal	ra,1fdc <gpio_set>
F:\数据\嘉立创比赛\程序\IOT_tuya\obj/../Libraries/Code/iic.c:63
    systick_delay_us(2);
    2620:	4509                	li	a0,2
    2622:	a7bff0ef          	jal	ra,209c <systick_delay>
F:\数据\嘉立创比赛\程序\IOT_tuya\obj/../Libraries/Code/iic.c:65
    IIC_SCL_Low();
}
    2626:	40b2                	lw	ra,12(sp)
F:\数据\嘉立创比赛\程序\IOT_tuya\obj/../Libraries/Code/iic.c:64
    IIC_SCL_Low();
    2628:	4581                	li	a1,0
    262a:	02f00513          	li	a0,47
F:\数据\嘉立创比赛\程序\IOT_tuya\obj/../Libraries/Code/iic.c:65
}
    262e:	0141                	addi	sp,sp,16
F:\数据\嘉立创比赛\程序\IOT_tuya\obj/../Libraries/Code/iic.c:64
    IIC_SCL_Low();
    2630:	9adff06f          	j	1fdc <gpio_set>

00002634 <IIC_Wait_Ack>:
IIC_Wait_Ack():
F:\数据\嘉立创比赛\程序\IOT_tuya\obj/../Libraries/Code/iic.c:68

u8 IIC_Wait_Ack(void)
{
    2634:	1141                	addi	sp,sp,-16
F:\数据\嘉立创比赛\程序\IOT_tuya\obj/../Libraries/Code/iic.c:70
    u8 ucErrTime=0;
    SDA_IN();      //SDA设置为输入
    2636:	34800693          	li	a3,840
    263a:	4605                	li	a2,1
    263c:	4581                	li	a1,0
    263e:	02d00513          	li	a0,45
F:\数据\嘉立创比赛\程序\IOT_tuya\obj/../Libraries/Code/iic.c:68
{
    2642:	c606                	sw	ra,12(sp)
    2644:	c422                	sw	s0,8(sp)
F:\数据\嘉立创比赛\程序\IOT_tuya\obj/../Libraries/Code/iic.c:70
    SDA_IN();      //SDA设置为输入
    2646:	8b9ff0ef          	jal	ra,1efe <gpio_init>
F:\数据\嘉立创比赛\程序\IOT_tuya\obj/../Libraries/Code/iic.c:71
    IIC_SDA_High();
    264a:	4585                	li	a1,1
    264c:	02d00513          	li	a0,45
    2650:	98dff0ef          	jal	ra,1fdc <gpio_set>
F:\数据\嘉立创比赛\程序\IOT_tuya\obj/../Libraries/Code/iic.c:72
    systick_delay_us(1);
    2654:	4505                	li	a0,1
    2656:	a47ff0ef          	jal	ra,209c <systick_delay>
F:\数据\嘉立创比赛\程序\IOT_tuya\obj/../Libraries/Code/iic.c:73
    IIC_SCL_High();
    265a:	4585                	li	a1,1
    265c:	02f00513          	li	a0,47
    2660:	97dff0ef          	jal	ra,1fdc <gpio_set>
F:\数据\嘉立创比赛\程序\IOT_tuya\obj/../Libraries/Code/iic.c:74
    systick_delay_us(1);
    2664:	4505                	li	a0,1
    2666:	a37ff0ef          	jal	ra,209c <systick_delay>
F:\数据\嘉立创比赛\程序\IOT_tuya\obj/../Libraries/Code/iic.c:75
    while(READ_SDA)
    266a:	0fb00413          	li	s0,251
    266e:	02d00513          	li	a0,45
    2672:	98fff0ef          	jal	ra,2000 <gpio_get>
    2676:	e901                	bnez	a0,2686 <IIC_Wait_Ack+0x52>
F:\数据\嘉立创比赛\程序\IOT_tuya\obj/../Libraries/Code/iic.c:84
        {
            IIC_Stop();
            return 1;
        }
    }
    IIC_SCL_Low();//时钟输出0
    2678:	02f00513          	li	a0,47
    267c:	4581                	li	a1,0
    267e:	95fff0ef          	jal	ra,1fdc <gpio_set>
F:\数据\嘉立创比赛\程序\IOT_tuya\obj/../Libraries/Code/iic.c:85
    return 0;
    2682:	4501                	li	a0,0
    2684:	a801                	j	2694 <IIC_Wait_Ack+0x60>
F:\数据\嘉立创比赛\程序\IOT_tuya\obj/../Libraries/Code/iic.c:78
        if(ucErrTime>250)
    2686:	147d                	addi	s0,s0,-1
    2688:	0ff47413          	andi	s0,s0,255
    268c:	f06d                	bnez	s0,266e <IIC_Wait_Ack+0x3a>
F:\数据\嘉立创比赛\程序\IOT_tuya\obj/../Libraries/Code/iic.c:80
            IIC_Stop();
    268e:	ec3ff0ef          	jal	ra,2550 <IIC_Stop>
F:\数据\嘉立创比赛\程序\IOT_tuya\obj/../Libraries/Code/iic.c:81
            return 1;
    2692:	4505                	li	a0,1
F:\数据\嘉立创比赛\程序\IOT_tuya\obj/../Libraries/Code/iic.c:86
}
    2694:	40b2                	lw	ra,12(sp)
    2696:	4422                	lw	s0,8(sp)
    2698:	0141                	addi	sp,sp,16
    269a:	8082                	ret

0000269c <IIC_Send_Byte>:
IIC_Send_Byte():
F:\数据\嘉立创比赛\程序\IOT_tuya\obj/../Libraries/Code/iic.c:89

void IIC_Send_Byte(u8 txd)
{
    269c:	1141                	addi	sp,sp,-16
    269e:	c226                	sw	s1,4(sp)
F:\数据\嘉立创比赛\程序\IOT_tuya\obj/../Libraries/Code/iic.c:91
    u8 t;
    SDA_OUT();
    26a0:	31400693          	li	a3,788
    26a4:	4605                	li	a2,1
    26a6:	4585                	li	a1,1
F:\数据\嘉立创比赛\程序\IOT_tuya\obj/../Libraries/Code/iic.c:89
{
    26a8:	84aa                	mv	s1,a0
F:\数据\嘉立创比赛\程序\IOT_tuya\obj/../Libraries/Code/iic.c:91
    SDA_OUT();
    26aa:	02d00513          	li	a0,45
F:\数据\嘉立创比赛\程序\IOT_tuya\obj/../Libraries/Code/iic.c:89
{
    26ae:	c606                	sw	ra,12(sp)
    26b0:	c422                	sw	s0,8(sp)
F:\数据\嘉立创比赛\程序\IOT_tuya\obj/../Libraries/Code/iic.c:91
    SDA_OUT();
    26b2:	84dff0ef          	jal	ra,1efe <gpio_init>
F:\数据\嘉立创比赛\程序\IOT_tuya\obj/../Libraries/Code/iic.c:92
    IIC_SCL_Low();//拉低时钟开始数据传输
    26b6:	4581                	li	a1,0
    26b8:	02f00513          	li	a0,47
    26bc:	921ff0ef          	jal	ra,1fdc <gpio_set>
    26c0:	4421                	li	s0,8
F:\数据\嘉立创比赛\程序\IOT_tuya\obj/../Libraries/Code/iic.c:95
    for(t=0;t<8;t++)
    {
        if((txd&0x80)>>7)
    26c2:	01849793          	slli	a5,s1,0x18
    26c6:	87e1                	srai	a5,a5,0x18
F:\数据\嘉立创比赛\程序\IOT_tuya\obj/../Libraries/Code/iic.c:96
            IIC_SDA_High();
    26c8:	4585                	li	a1,1
F:\数据\嘉立创比赛\程序\IOT_tuya\obj/../Libraries/Code/iic.c:95
        if((txd&0x80)>>7)
    26ca:	0007c363          	bltz	a5,26d0 <IIC_Send_Byte+0x34>
F:\数据\嘉立创比赛\程序\IOT_tuya\obj/../Libraries/Code/iic.c:98
        else
            IIC_SDA_Low();
    26ce:	4581                	li	a1,0
    26d0:	02d00513          	li	a0,45
    26d4:	909ff0ef          	jal	ra,1fdc <gpio_set>
F:\数据\嘉立创比赛\程序\IOT_tuya\obj/../Libraries/Code/iic.c:100
        txd<<=1;
        systick_delay_us(2);   //对TEA5767这三个延时都是必须的
    26d8:	4509                	li	a0,2
    26da:	9c3ff0ef          	jal	ra,209c <systick_delay>
F:\数据\嘉立创比赛\程序\IOT_tuya\obj/../Libraries/Code/iic.c:101
        IIC_SCL_High();
    26de:	4585                	li	a1,1
    26e0:	02f00513          	li	a0,47
    26e4:	8f9ff0ef          	jal	ra,1fdc <gpio_set>
F:\数据\嘉立创比赛\程序\IOT_tuya\obj/../Libraries/Code/iic.c:102
        systick_delay_us(2);
    26e8:	4509                	li	a0,2
    26ea:	9b3ff0ef          	jal	ra,209c <systick_delay>
F:\数据\嘉立创比赛\程序\IOT_tuya\obj/../Libraries/Code/iic.c:103
        IIC_SCL_Low();
    26ee:	4581                	li	a1,0
    26f0:	02f00513          	li	a0,47
    26f4:	8e9ff0ef          	jal	ra,1fdc <gpio_set>
    26f8:	147d                	addi	s0,s0,-1
F:\数据\嘉立创比赛\程序\IOT_tuya\obj/../Libraries/Code/iic.c:99
        txd<<=1;
    26fa:	0486                	slli	s1,s1,0x1
F:\数据\嘉立创比赛\程序\IOT_tuya\obj/../Libraries/Code/iic.c:104
        systick_delay_us(2);
    26fc:	4509                	li	a0,2
    26fe:	0ff47413          	andi	s0,s0,255
F:\数据\嘉立创比赛\程序\IOT_tuya\obj/../Libraries/Code/iic.c:99
        txd<<=1;
    2702:	0ff4f493          	andi	s1,s1,255
F:\数据\嘉立创比赛\程序\IOT_tuya\obj/../Libraries/Code/iic.c:104
        systick_delay_us(2);
    2706:	997ff0ef          	jal	ra,209c <systick_delay>
F:\数据\嘉立创比赛\程序\IOT_tuya\obj/../Libraries/Code/iic.c:93
    for(t=0;t<8;t++)
    270a:	fc45                	bnez	s0,26c2 <IIC_Send_Byte+0x26>
F:\数据\嘉立创比赛\程序\IOT_tuya\obj/../Libraries/Code/iic.c:106
    }
}
    270c:	40b2                	lw	ra,12(sp)
    270e:	4422                	lw	s0,8(sp)
    2710:	4492                	lw	s1,4(sp)
    2712:	0141                	addi	sp,sp,16
    2714:	8082                	ret

00002716 <IIC_Read_Byte>:
IIC_Read_Byte():
F:\数据\嘉立创比赛\程序\IOT_tuya\obj/../Libraries/Code/iic.c:110

//一个参数 ack  当ack=1，发送应答信号，ack=0不发送应答信号
u8 IIC_Read_Byte(unsigned char ack)
{
    2716:	1141                	addi	sp,sp,-16
    2718:	c04a                	sw	s2,0(sp)
F:\数据\嘉立创比赛\程序\IOT_tuya\obj/../Libraries/Code/iic.c:112
    unsigned char i,receive=0;
    SDA_IN();//SDA设置为输入
    271a:	34800693          	li	a3,840
F:\数据\嘉立创比赛\程序\IOT_tuya\obj/../Libraries/Code/iic.c:110
{
    271e:	892a                	mv	s2,a0
F:\数据\嘉立创比赛\程序\IOT_tuya\obj/../Libraries/Code/iic.c:112
    SDA_IN();//SDA设置为输入
    2720:	4605                	li	a2,1
    2722:	4581                	li	a1,0
    2724:	02d00513          	li	a0,45
F:\数据\嘉立创比赛\程序\IOT_tuya\obj/../Libraries/Code/iic.c:110
{
    2728:	c422                	sw	s0,8(sp)
    272a:	c226                	sw	s1,4(sp)
    272c:	c606                	sw	ra,12(sp)
F:\数据\嘉立创比赛\程序\IOT_tuya\obj/../Libraries/Code/iic.c:112
    SDA_IN();//SDA设置为输入
    272e:	44a1                	li	s1,8
    2730:	fceff0ef          	jal	ra,1efe <gpio_init>
F:\数据\嘉立创比赛\程序\IOT_tuya\obj/../Libraries/Code/iic.c:111
    unsigned char i,receive=0;
    2734:	4401                	li	s0,0
F:\数据\嘉立创比赛\程序\IOT_tuya\obj/../Libraries/Code/iic.c:115
    for(i=0;i<8;i++ )
    {
        IIC_SCL_Low();
    2736:	4581                	li	a1,0
    2738:	02f00513          	li	a0,47
    273c:	8a1ff0ef          	jal	ra,1fdc <gpio_set>
F:\数据\嘉立创比赛\程序\IOT_tuya\obj/../Libraries/Code/iic.c:116
        systick_delay_us(5);
    2740:	4515                	li	a0,5
    2742:	95bff0ef          	jal	ra,209c <systick_delay>
F:\数据\嘉立创比赛\程序\IOT_tuya\obj/../Libraries/Code/iic.c:117
        IIC_SCL_High();
    2746:	02f00513          	li	a0,47
    274a:	4585                	li	a1,1
    274c:	891ff0ef          	jal	ra,1fdc <gpio_set>
F:\数据\嘉立创比赛\程序\IOT_tuya\obj/../Libraries/Code/iic.c:118
        receive<<=1;
    2750:	0406                	slli	s0,s0,0x1
F:\数据\嘉立创比赛\程序\IOT_tuya\obj/../Libraries/Code/iic.c:119
        if(READ_SDA)receive++;
    2752:	02d00513          	li	a0,45
F:\数据\嘉立创比赛\程序\IOT_tuya\obj/../Libraries/Code/iic.c:118
        receive<<=1;
    2756:	0ff47413          	andi	s0,s0,255
F:\数据\嘉立创比赛\程序\IOT_tuya\obj/../Libraries/Code/iic.c:119
        if(READ_SDA)receive++;
    275a:	8a7ff0ef          	jal	ra,2000 <gpio_get>
    275e:	c501                	beqz	a0,2766 <IIC_Read_Byte+0x50>
F:\数据\嘉立创比赛\程序\IOT_tuya\obj/../Libraries/Code/iic.c:119 (discriminator 1)
    2760:	0405                	addi	s0,s0,1
    2762:	0ff47413          	andi	s0,s0,255
F:\数据\嘉立创比赛\程序\IOT_tuya\obj/../Libraries/Code/iic.c:120 (discriminator 2)
        systick_delay_us(1);
    2766:	14fd                	addi	s1,s1,-1
    2768:	4505                	li	a0,1
    276a:	0ff4f493          	andi	s1,s1,255
    276e:	92fff0ef          	jal	ra,209c <systick_delay>
F:\数据\嘉立创比赛\程序\IOT_tuya\obj/../Libraries/Code/iic.c:113 (discriminator 2)
    for(i=0;i<8;i++ )
    2772:	f0f1                	bnez	s1,2736 <IIC_Read_Byte+0x20>
F:\数据\嘉立创比赛\程序\IOT_tuya\obj/../Libraries/Code/iic.c:122
    }
    if (!ack)
    2774:	00091b63          	bnez	s2,278a <IIC_Read_Byte+0x74>
F:\数据\嘉立创比赛\程序\IOT_tuya\obj/../Libraries/Code/iic.c:123
        IIC_NAck();//发送nACK
    2778:	e71ff0ef          	jal	ra,25e8 <IIC_NAck>
F:\数据\嘉立创比赛\程序\IOT_tuya\obj/../Libraries/Code/iic.c:127
    else
        IIC_Ack(); //发送ACK
    return receive;
}
    277c:	8522                	mv	a0,s0
    277e:	40b2                	lw	ra,12(sp)
    2780:	4422                	lw	s0,8(sp)
    2782:	4492                	lw	s1,4(sp)
    2784:	4902                	lw	s2,0(sp)
    2786:	0141                	addi	sp,sp,16
    2788:	8082                	ret
F:\数据\嘉立创比赛\程序\IOT_tuya\obj/../Libraries/Code/iic.c:125
        IIC_Ack(); //发送ACK
    278a:	e13ff0ef          	jal	ra,259c <IIC_Ack>
    278e:	b7fd                	j	277c <IIC_Read_Byte+0x66>

00002790 <__eqdf2>:
__eqdf2():
    2790:	0145d713          	srli	a4,a1,0x14
    2794:	001007b7          	lui	a5,0x100
    2798:	17fd                	addi	a5,a5,-1
    279a:	0146d813          	srli	a6,a3,0x14
    279e:	7ff77713          	andi	a4,a4,2047
    27a2:	7ff00893          	li	a7,2047
    27a6:	00b7fe33          	and	t3,a5,a1
    27aa:	8eaa                	mv	t4,a0
    27ac:	8ff5                	and	a5,a5,a3
    27ae:	81fd                	srli	a1,a1,0x1f
    27b0:	8f32                	mv	t5,a2
    27b2:	7ff87813          	andi	a6,a6,2047
    27b6:	82fd                	srli	a3,a3,0x1f
    27b8:	01170b63          	beq	a4,a7,27ce <__eqdf2+0x3e>
    27bc:	4305                	li	t1,1
    27be:	01180663          	beq	a6,a7,27ca <__eqdf2+0x3a>
    27c2:	01071463          	bne	a4,a6,27ca <__eqdf2+0x3a>
    27c6:	00fe0d63          	beq	t3,a5,27e0 <__eqdf2+0x50>
    27ca:	851a                	mv	a0,t1
    27cc:	8082                	ret
    27ce:	00ae68b3          	or	a7,t3,a0
    27d2:	4305                	li	t1,1
    27d4:	fe089be3          	bnez	a7,27ca <__eqdf2+0x3a>
    27d8:	fee819e3          	bne	a6,a4,27ca <__eqdf2+0x3a>
    27dc:	8fd1                	or	a5,a5,a2
    27de:	f7f5                	bnez	a5,27ca <__eqdf2+0x3a>
    27e0:	4305                	li	t1,1
    27e2:	ffee94e3          	bne	t4,t5,27ca <__eqdf2+0x3a>
    27e6:	4301                	li	t1,0
    27e8:	fed581e3          	beq	a1,a3,27ca <__eqdf2+0x3a>
    27ec:	4305                	li	t1,1
    27ee:	ff71                	bnez	a4,27ca <__eqdf2+0x3a>
    27f0:	00ae6533          	or	a0,t3,a0
    27f4:	00a03333          	snez	t1,a0
    27f8:	bfc9                	j	27ca <__eqdf2+0x3a>

000027fa <__ledf2>:
__ltdf2():
    27fa:	0145d713          	srli	a4,a1,0x14
    27fe:	001007b7          	lui	a5,0x100
    2802:	17fd                	addi	a5,a5,-1
    2804:	0146d813          	srli	a6,a3,0x14
    2808:	7ff77713          	andi	a4,a4,2047
    280c:	7ff00893          	li	a7,2047
    2810:	00b7fe33          	and	t3,a5,a1
    2814:	8eaa                	mv	t4,a0
    2816:	8ff5                	and	a5,a5,a3
    2818:	81fd                	srli	a1,a1,0x1f
    281a:	8f32                	mv	t5,a2
    281c:	7ff87813          	andi	a6,a6,2047
    2820:	82fd                	srli	a3,a3,0x1f
    2822:	03170e63          	beq	a4,a7,285e <__ledf2+0x64>
    2826:	01180d63          	beq	a6,a7,2840 <__ledf2+0x46>
    282a:	e329                	bnez	a4,286c <__ledf2+0x72>
    282c:	00ae68b3          	or	a7,t3,a0
    2830:	00081f63          	bnez	a6,284e <__ledf2+0x54>
    2834:	8e5d                	or	a2,a2,a5
    2836:	ee01                	bnez	a2,284e <__ledf2+0x54>
    2838:	4301                	li	t1,0
    283a:	04088c63          	beqz	a7,2892 <__ledf2+0x98>
    283e:	a821                	j	2856 <__ledf2+0x5c>
    2840:	00c7e8b3          	or	a7,a5,a2
    2844:	4309                	li	t1,2
    2846:	04089663          	bnez	a7,2892 <__ledf2+0x98>
    284a:	d36d                	beqz	a4,282c <__ledf2+0x32>
    284c:	a005                	j	286c <__ledf2+0x72>
    284e:	04088463          	beqz	a7,2896 <__ledf2+0x9c>
    2852:	02d58563          	beq	a1,a3,287c <__ledf2+0x82>
    2856:	4305                	li	t1,1
    2858:	cd8d                	beqz	a1,2892 <__ledf2+0x98>
    285a:	537d                	li	t1,-1
    285c:	a81d                	j	2892 <__ledf2+0x98>
    285e:	00ae68b3          	or	a7,t3,a0
    2862:	4309                	li	t1,2
    2864:	02089763          	bnez	a7,2892 <__ledf2+0x98>
    2868:	02e80a63          	beq	a6,a4,289c <__ledf2+0xa2>
    286c:	00081463          	bnez	a6,2874 <__ledf2+0x7a>
    2870:	8e5d                	or	a2,a2,a5
    2872:	d275                	beqz	a2,2856 <__ledf2+0x5c>
    2874:	fed591e3          	bne	a1,a3,2856 <__ledf2+0x5c>
    2878:	fce84fe3          	blt	a6,a4,2856 <__ledf2+0x5c>
    287c:	01074963          	blt	a4,a6,288e <__ledf2+0x94>
    2880:	fdc7ebe3          	bltu	a5,t3,2856 <__ledf2+0x5c>
    2884:	00fe0f63          	beq	t3,a5,28a2 <__ledf2+0xa8>
    2888:	4301                	li	t1,0
    288a:	00fe7463          	bgeu	t3,a5,2892 <__ledf2+0x98>
    288e:	d5f1                	beqz	a1,285a <__ledf2+0x60>
    2890:	4305                	li	t1,1
    2892:	851a                	mv	a0,t1
    2894:	8082                	ret
    2896:	feed                	bnez	a3,2890 <__ledf2+0x96>
    2898:	537d                	li	t1,-1
    289a:	bfe5                	j	2892 <__ledf2+0x98>
    289c:	8e5d                	or	a2,a2,a5
    289e:	da79                	beqz	a2,2874 <__ledf2+0x7a>
    28a0:	bfcd                	j	2892 <__ledf2+0x98>
    28a2:	fbdf6ae3          	bltu	t5,t4,2856 <__ledf2+0x5c>
    28a6:	4301                	li	t1,0
    28a8:	ffeef5e3          	bgeu	t4,t5,2892 <__ledf2+0x98>
    28ac:	f1f5                	bnez	a1,2890 <__ledf2+0x96>
    28ae:	b775                	j	285a <__ledf2+0x60>

000028b0 <__muldf3>:
__muldf3():
    28b0:	7139                	addi	sp,sp,-64
    28b2:	d84a                	sw	s2,48(sp)
    28b4:	0145d913          	srli	s2,a1,0x14
    28b8:	d64e                	sw	s3,44(sp)
    28ba:	d452                	sw	s4,40(sp)
    28bc:	d256                	sw	s5,36(sp)
    28be:	00c59993          	slli	s3,a1,0xc
    28c2:	de06                	sw	ra,60(sp)
    28c4:	dc22                	sw	s0,56(sp)
    28c6:	da26                	sw	s1,52(sp)
    28c8:	d05a                	sw	s6,32(sp)
    28ca:	ce5e                	sw	s7,28(sp)
    28cc:	7ff97913          	andi	s2,s2,2047
    28d0:	8a2a                	mv	s4,a0
    28d2:	00c9d993          	srli	s3,s3,0xc
    28d6:	01f5da93          	srli	s5,a1,0x1f
    28da:	0e090d63          	beqz	s2,29d4 <__muldf3+0x124>
    28de:	7ff00793          	li	a5,2047
    28e2:	18f90663          	beq	s2,a5,2a6e <__muldf3+0x1be>
    28e6:	01d55413          	srli	s0,a0,0x1d
    28ea:	098e                	slli	s3,s3,0x3
    28ec:	013469b3          	or	s3,s0,s3
    28f0:	00800437          	lui	s0,0x800
    28f4:	0089e433          	or	s0,s3,s0
    28f8:	00351493          	slli	s1,a0,0x3
    28fc:	c0190913          	addi	s2,s2,-1023
    2900:	4981                	li	s3,0
    2902:	4b81                	li	s7,0
    2904:	0146d713          	srli	a4,a3,0x14
    2908:	00c69a13          	slli	s4,a3,0xc
    290c:	7ff77713          	andi	a4,a4,2047
    2910:	85b2                	mv	a1,a2
    2912:	00ca5a13          	srli	s4,s4,0xc
    2916:	01f6db13          	srli	s6,a3,0x1f
    291a:	10070b63          	beqz	a4,2a30 <__muldf3+0x180>
    291e:	7ff00793          	li	a5,2047
    2922:	04f70363          	beq	a4,a5,2968 <__muldf3+0xb8>
    2926:	01d65793          	srli	a5,a2,0x1d
    292a:	0a0e                	slli	s4,s4,0x3
    292c:	0147ea33          	or	s4,a5,s4
    2930:	c0170713          	addi	a4,a4,-1023 # 9efc01 <_data_lma+0x9e9f75>
    2934:	008007b7          	lui	a5,0x800
    2938:	00fa67b3          	or	a5,s4,a5
    293c:	00361593          	slli	a1,a2,0x3
    2940:	993a                	add	s2,s2,a4
    2942:	4881                	li	a7,0
    2944:	016ac733          	xor	a4,s5,s6
    2948:	46bd                	li	a3,15
    294a:	853a                	mv	a0,a4
    294c:	00190813          	addi	a6,s2,1
    2950:	1736e863          	bltu	a3,s3,2ac0 <__muldf3+0x210>
    2954:	00003617          	auipc	a2,0x3
    2958:	05c60613          	addi	a2,a2,92 # 59b0 <UARTN+0x20>
    295c:	098a                	slli	s3,s3,0x2
    295e:	99b2                	add	s3,s3,a2
    2960:	0009a683          	lw	a3,0(s3)
    2964:	96b2                	add	a3,a3,a2
    2966:	8682                	jr	a3
    2968:	00ca67b3          	or	a5,s4,a2
    296c:	7ff90913          	addi	s2,s2,2047
    2970:	12079963          	bnez	a5,2aa2 <__muldf3+0x1f2>
    2974:	0029e993          	ori	s3,s3,2
    2978:	4581                	li	a1,0
    297a:	4889                	li	a7,2
    297c:	b7e1                	j	2944 <__muldf3+0x94>
    297e:	4701                	li	a4,0
    2980:	7ff00793          	li	a5,2047
    2984:	00080437          	lui	s0,0x80
    2988:	4481                	li	s1,0
    298a:	0432                	slli	s0,s0,0xc
    298c:	07d2                	slli	a5,a5,0x14
    298e:	8031                	srli	s0,s0,0xc
    2990:	077e                	slli	a4,a4,0x1f
    2992:	8c5d                	or	s0,s0,a5
    2994:	8c59                	or	s0,s0,a4
    2996:	85a2                	mv	a1,s0
    2998:	50f2                	lw	ra,60(sp)
    299a:	5462                	lw	s0,56(sp)
    299c:	8526                	mv	a0,s1
    299e:	5942                	lw	s2,48(sp)
    29a0:	54d2                	lw	s1,52(sp)
    29a2:	59b2                	lw	s3,44(sp)
    29a4:	5a22                	lw	s4,40(sp)
    29a6:	5a92                	lw	s5,36(sp)
    29a8:	5b02                	lw	s6,32(sp)
    29aa:	4bf2                	lw	s7,28(sp)
    29ac:	6121                	addi	sp,sp,64
    29ae:	8082                	ret
    29b0:	855a                	mv	a0,s6
    29b2:	843e                	mv	s0,a5
    29b4:	84ae                	mv	s1,a1
    29b6:	8bc6                	mv	s7,a7
    29b8:	4789                	li	a5,2
    29ba:	0efb8d63          	beq	s7,a5,2ab4 <__muldf3+0x204>
    29be:	478d                	li	a5,3
    29c0:	fafb8fe3          	beq	s7,a5,297e <__muldf3+0xce>
    29c4:	4785                	li	a5,1
    29c6:	872a                	mv	a4,a0
    29c8:	38fb9e63          	bne	s7,a5,2d64 <__muldf3+0x4b4>
    29cc:	4781                	li	a5,0
    29ce:	4401                	li	s0,0
    29d0:	4481                	li	s1,0
    29d2:	bf65                	j	298a <__muldf3+0xda>
    29d4:	00a9e433          	or	s0,s3,a0
    29d8:	c061                	beqz	s0,2a98 <__muldf3+0x1e8>
    29da:	c636                	sw	a3,12(sp)
    29dc:	c432                	sw	a2,8(sp)
    29de:	2a098c63          	beqz	s3,2c96 <__muldf3+0x3e6>
    29e2:	854e                	mv	a0,s3
    29e4:	001010ef          	jal	ra,41e4 <__clzsi2>
    29e8:	4622                	lw	a2,8(sp)
    29ea:	46b2                	lw	a3,12(sp)
    29ec:	87aa                	mv	a5,a0
    29ee:	ff550713          	addi	a4,a0,-11 # 3fff5 <_data_lma+0x3a369>
    29f2:	4475                	li	s0,29
    29f4:	ff878493          	addi	s1,a5,-8 # 7ffff8 <_data_lma+0x7fa36c>
    29f8:	8c19                	sub	s0,s0,a4
    29fa:	009999b3          	sll	s3,s3,s1
    29fe:	008a5433          	srl	s0,s4,s0
    2a02:	01346433          	or	s0,s0,s3
    2a06:	009a14b3          	sll	s1,s4,s1
    2a0a:	0146d713          	srli	a4,a3,0x14
    2a0e:	c0d00913          	li	s2,-1011
    2a12:	00c69a13          	slli	s4,a3,0xc
    2a16:	7ff77713          	andi	a4,a4,2047
    2a1a:	40f90933          	sub	s2,s2,a5
    2a1e:	4981                	li	s3,0
    2a20:	4b81                	li	s7,0
    2a22:	85b2                	mv	a1,a2
    2a24:	00ca5a13          	srli	s4,s4,0xc
    2a28:	01f6db13          	srli	s6,a3,0x1f
    2a2c:	ee0719e3          	bnez	a4,291e <__muldf3+0x6e>
    2a30:	00ca67b3          	or	a5,s4,a2
    2a34:	c7b1                	beqz	a5,2a80 <__muldf3+0x1d0>
    2a36:	220a0f63          	beqz	s4,2c74 <__muldf3+0x3c4>
    2a3a:	8552                	mv	a0,s4
    2a3c:	c432                	sw	a2,8(sp)
    2a3e:	7a6010ef          	jal	ra,41e4 <__clzsi2>
    2a42:	4622                	lw	a2,8(sp)
    2a44:	872a                	mv	a4,a0
    2a46:	ff550693          	addi	a3,a0,-11
    2a4a:	47f5                	li	a5,29
    2a4c:	ff870593          	addi	a1,a4,-8
    2a50:	8f95                	sub	a5,a5,a3
    2a52:	00ba1a33          	sll	s4,s4,a1
    2a56:	00f657b3          	srl	a5,a2,a5
    2a5a:	0147e7b3          	or	a5,a5,s4
    2a5e:	00b615b3          	sll	a1,a2,a1
    2a62:	40e90933          	sub	s2,s2,a4
    2a66:	c0d90913          	addi	s2,s2,-1011
    2a6a:	4881                	li	a7,0
    2a6c:	bde1                	j	2944 <__muldf3+0x94>
    2a6e:	00a9e433          	or	s0,s3,a0
    2a72:	ec01                	bnez	s0,2a8a <__muldf3+0x1da>
    2a74:	49a1                	li	s3,8
    2a76:	4481                	li	s1,0
    2a78:	7ff00913          	li	s2,2047
    2a7c:	4b89                	li	s7,2
    2a7e:	b559                	j	2904 <__muldf3+0x54>
    2a80:	0019e993          	ori	s3,s3,1
    2a84:	4581                	li	a1,0
    2a86:	4885                	li	a7,1
    2a88:	bd75                	j	2944 <__muldf3+0x94>
    2a8a:	844e                	mv	s0,s3
    2a8c:	84aa                	mv	s1,a0
    2a8e:	49b1                	li	s3,12
    2a90:	7ff00913          	li	s2,2047
    2a94:	4b8d                	li	s7,3
    2a96:	b5bd                	j	2904 <__muldf3+0x54>
    2a98:	4991                	li	s3,4
    2a9a:	4481                	li	s1,0
    2a9c:	4901                	li	s2,0
    2a9e:	4b85                	li	s7,1
    2aa0:	b595                	j	2904 <__muldf3+0x54>
    2aa2:	0039e993          	ori	s3,s3,3
    2aa6:	87d2                	mv	a5,s4
    2aa8:	488d                	li	a7,3
    2aaa:	bd69                	j	2944 <__muldf3+0x94>
    2aac:	4789                	li	a5,2
    2aae:	8556                	mv	a0,s5
    2ab0:	f0fb97e3          	bne	s7,a5,29be <__muldf3+0x10e>
    2ab4:	872a                	mv	a4,a0
    2ab6:	7ff00793          	li	a5,2047
    2aba:	4401                	li	s0,0
    2abc:	4481                	li	s1,0
    2abe:	b5f1                	j	298a <__muldf3+0xda>
    2ac0:	6ec1                	lui	t4,0x10
    2ac2:	fffe8613          	addi	a2,t4,-1 # ffff <_data_lma+0xa373>
    2ac6:	0104d693          	srli	a3,s1,0x10
    2aca:	0105de13          	srli	t3,a1,0x10
    2ace:	8cf1                	and	s1,s1,a2
    2ad0:	8df1                	and	a1,a1,a2
    2ad2:	02958633          	mul	a2,a1,s1
    2ad6:	02b68333          	mul	t1,a3,a1
    2ada:	01065893          	srli	a7,a2,0x10
    2ade:	029e0533          	mul	a0,t3,s1
    2ae2:	951a                	add	a0,a0,t1
    2ae4:	98aa                	add	a7,a7,a0
    2ae6:	03c682b3          	mul	t0,a3,t3
    2aea:	0068f363          	bgeu	a7,t1,2af0 <__muldf3+0x240>
    2aee:	92f6                	add	t0,t0,t4
    2af0:	6fc1                	lui	t6,0x10
    2af2:	ffff8313          	addi	t1,t6,-1 # ffff <_data_lma+0xa373>
    2af6:	0067f533          	and	a0,a5,t1
    2afa:	0107d393          	srli	t2,a5,0x10
    2afe:	0068f7b3          	and	a5,a7,t1
    2b02:	07c2                	slli	a5,a5,0x10
    2b04:	00667333          	and	t1,a2,t1
    2b08:	933e                	add	t1,t1,a5
    2b0a:	02950633          	mul	a2,a0,s1
    2b0e:	0108d893          	srli	a7,a7,0x10
    2b12:	02a687b3          	mul	a5,a3,a0
    2b16:	01065f13          	srli	t5,a2,0x10
    2b1a:	029384b3          	mul	s1,t2,s1
    2b1e:	94be                	add	s1,s1,a5
    2b20:	94fa                	add	s1,s1,t5
    2b22:	02768eb3          	mul	t4,a3,t2
    2b26:	00f4f363          	bgeu	s1,a5,2b2c <__muldf3+0x27c>
    2b2a:	9efe                	add	t4,t4,t6
    2b2c:	6a41                	lui	s4,0x10
    2b2e:	fffa0793          	addi	a5,s4,-1 # ffff <_data_lma+0xa373>
    2b32:	01045f93          	srli	t6,s0,0x10
    2b36:	00f476b3          	and	a3,s0,a5
    2b3a:	00f4f9b3          	and	s3,s1,a5
    2b3e:	8e7d                	and	a2,a2,a5
    2b40:	80c1                	srli	s1,s1,0x10
    2b42:	02d58433          	mul	s0,a1,a3
    2b46:	09c2                	slli	s3,s3,0x10
    2b48:	01d48f33          	add	t5,s1,t4
    2b4c:	99b2                	add	s3,s3,a2
    2b4e:	98ce                	add	a7,a7,s3
    2b50:	02de07b3          	mul	a5,t3,a3
    2b54:	01045e93          	srli	t4,s0,0x10
    2b58:	02bf85b3          	mul	a1,t6,a1
    2b5c:	97ae                	add	a5,a5,a1
    2b5e:	9ebe                	add	t4,t4,a5
    2b60:	03fe0e33          	mul	t3,t3,t6
    2b64:	00bef363          	bgeu	t4,a1,2b6a <__muldf3+0x2ba>
    2b68:	9e52                	add	t3,t3,s4
    2b6a:	67c1                	lui	a5,0x10
    2b6c:	fff78593          	addi	a1,a5,-1 # ffff <_data_lma+0xa373>
    2b70:	00bef633          	and	a2,t4,a1
    2b74:	8c6d                	and	s0,s0,a1
    2b76:	0642                	slli	a2,a2,0x10
    2b78:	9622                	add	a2,a2,s0
    2b7a:	010ede93          	srli	t4,t4,0x10
    2b7e:	02d505b3          	mul	a1,a0,a3
    2b82:	9e76                	add	t3,t3,t4
    2b84:	02af8533          	mul	a0,t6,a0
    2b88:	0105d413          	srli	s0,a1,0x10
    2b8c:	02d386b3          	mul	a3,t2,a3
    2b90:	96aa                	add	a3,a3,a0
    2b92:	96a2                	add	a3,a3,s0
    2b94:	03f38fb3          	mul	t6,t2,t6
    2b98:	00a6f363          	bgeu	a3,a0,2b9e <__muldf3+0x2ee>
    2b9c:	9fbe                	add	t6,t6,a5
    2b9e:	6541                	lui	a0,0x10
    2ba0:	157d                	addi	a0,a0,-1
    2ba2:	00a6f7b3          	and	a5,a3,a0
    2ba6:	07c2                	slli	a5,a5,0x10
    2ba8:	8d6d                	and	a0,a0,a1
    2baa:	97aa                	add	a5,a5,a0
    2bac:	005885b3          	add	a1,a7,t0
    2bb0:	0135b9b3          	sltu	s3,a1,s3
    2bb4:	97fa                	add	a5,a5,t5
    2bb6:	95b2                	add	a1,a1,a2
    2bb8:	01378433          	add	s0,a5,s3
    2bbc:	00c5b633          	sltu	a2,a1,a2
    2bc0:	01c40eb3          	add	t4,s0,t3
    2bc4:	00ce8533          	add	a0,t4,a2
    2bc8:	01343433          	sltu	s0,s0,s3
    2bcc:	01e7b7b3          	sltu	a5,a5,t5
    2bd0:	8fc1                	or	a5,a5,s0
    2bd2:	01cebe33          	sltu	t3,t4,t3
    2bd6:	0106d413          	srli	s0,a3,0x10
    2bda:	00c53633          	sltu	a2,a0,a2
    2bde:	943e                	add	s0,s0,a5
    2be0:	00ce6633          	or	a2,t3,a2
    2be4:	00959493          	slli	s1,a1,0x9
    2be8:	9432                	add	s0,s0,a2
    2bea:	947e                	add	s0,s0,t6
    2bec:	0064e4b3          	or	s1,s1,t1
    2bf0:	0426                	slli	s0,s0,0x9
    2bf2:	01755693          	srli	a3,a0,0x17
    2bf6:	009034b3          	snez	s1,s1
    2bfa:	81dd                	srli	a1,a1,0x17
    2bfc:	00951793          	slli	a5,a0,0x9
    2c00:	8ccd                	or	s1,s1,a1
    2c02:	8c55                	or	s0,s0,a3
    2c04:	8cdd                	or	s1,s1,a5
    2c06:	00741793          	slli	a5,s0,0x7
    2c0a:	0007db63          	bgez	a5,2c20 <__muldf3+0x370>
    2c0e:	0014d793          	srli	a5,s1,0x1
    2c12:	8885                	andi	s1,s1,1
    2c14:	01f41693          	slli	a3,s0,0x1f
    2c18:	8cdd                	or	s1,s1,a5
    2c1a:	8cd5                	or	s1,s1,a3
    2c1c:	8005                	srli	s0,s0,0x1
    2c1e:	8942                	mv	s2,a6
    2c20:	3ff90793          	addi	a5,s2,1023
    2c24:	08f05963          	blez	a5,2cb6 <__muldf3+0x406>
    2c28:	0074f693          	andi	a3,s1,7
    2c2c:	ce81                	beqz	a3,2c44 <__muldf3+0x394>
    2c2e:	00f4f693          	andi	a3,s1,15
    2c32:	4611                	li	a2,4
    2c34:	00c68863          	beq	a3,a2,2c44 <__muldf3+0x394>
    2c38:	00448693          	addi	a3,s1,4
    2c3c:	0096b4b3          	sltu	s1,a3,s1
    2c40:	9426                	add	s0,s0,s1
    2c42:	84b6                	mv	s1,a3
    2c44:	00741693          	slli	a3,s0,0x7
    2c48:	0006d863          	bgez	a3,2c58 <__muldf3+0x3a8>
    2c4c:	ff0007b7          	lui	a5,0xff000
    2c50:	17fd                	addi	a5,a5,-1
    2c52:	8c7d                	and	s0,s0,a5
    2c54:	40090793          	addi	a5,s2,1024
    2c58:	7fe00693          	li	a3,2046
    2c5c:	0ef6cf63          	blt	a3,a5,2d5a <__muldf3+0x4aa>
    2c60:	0034d693          	srli	a3,s1,0x3
    2c64:	01d41493          	slli	s1,s0,0x1d
    2c68:	0426                	slli	s0,s0,0x9
    2c6a:	8cd5                	or	s1,s1,a3
    2c6c:	8031                	srli	s0,s0,0xc
    2c6e:	7ff7f793          	andi	a5,a5,2047
    2c72:	bb21                	j	298a <__muldf3+0xda>
    2c74:	8532                	mv	a0,a2
    2c76:	c432                	sw	a2,8(sp)
    2c78:	56c010ef          	jal	ra,41e4 <__clzsi2>
    2c7c:	01550693          	addi	a3,a0,21 # 10015 <_data_lma+0xa389>
    2c80:	47f1                	li	a5,28
    2c82:	02050713          	addi	a4,a0,32
    2c86:	4622                	lw	a2,8(sp)
    2c88:	dcd7d1e3          	bge	a5,a3,2a4a <__muldf3+0x19a>
    2c8c:	1561                	addi	a0,a0,-8
    2c8e:	00a617b3          	sll	a5,a2,a0
    2c92:	4581                	li	a1,0
    2c94:	b3f9                	j	2a62 <__muldf3+0x1b2>
    2c96:	54e010ef          	jal	ra,41e4 <__clzsi2>
    2c9a:	01550713          	addi	a4,a0,21
    2c9e:	45f1                	li	a1,28
    2ca0:	02050793          	addi	a5,a0,32
    2ca4:	4622                	lw	a2,8(sp)
    2ca6:	46b2                	lw	a3,12(sp)
    2ca8:	d4e5d5e3          	bge	a1,a4,29f2 <__muldf3+0x142>
    2cac:	1561                	addi	a0,a0,-8
    2cae:	00aa1433          	sll	s0,s4,a0
    2cb2:	4481                	li	s1,0
    2cb4:	bb99                	j	2a0a <__muldf3+0x15a>
    2cb6:	4685                	li	a3,1
    2cb8:	8e9d                	sub	a3,a3,a5
    2cba:	e7b1                	bnez	a5,2d06 <__muldf3+0x456>
    2cbc:	41e90913          	addi	s2,s2,1054
    2cc0:	012497b3          	sll	a5,s1,s2
    2cc4:	00d4d4b3          	srl	s1,s1,a3
    2cc8:	01241933          	sll	s2,s0,s2
    2ccc:	00f037b3          	snez	a5,a5
    2cd0:	009964b3          	or	s1,s2,s1
    2cd4:	8cdd                	or	s1,s1,a5
    2cd6:	0074f793          	andi	a5,s1,7
    2cda:	00d456b3          	srl	a3,s0,a3
    2cde:	cf81                	beqz	a5,2cf6 <__muldf3+0x446>
    2ce0:	00f4f793          	andi	a5,s1,15
    2ce4:	4611                	li	a2,4
    2ce6:	00c78863          	beq	a5,a2,2cf6 <__muldf3+0x446>
    2cea:	00448793          	addi	a5,s1,4
    2cee:	0097b4b3          	sltu	s1,a5,s1
    2cf2:	96a6                	add	a3,a3,s1
    2cf4:	84be                	mv	s1,a5
    2cf6:	00869793          	slli	a5,a3,0x8
    2cfa:	0407d863          	bgez	a5,2d4a <__muldf3+0x49a>
    2cfe:	4785                	li	a5,1
    2d00:	4401                	li	s0,0
    2d02:	4481                	li	s1,0
    2d04:	b159                	j	298a <__muldf3+0xda>
    2d06:	03800613          	li	a2,56
    2d0a:	ccd641e3          	blt	a2,a3,29cc <__muldf3+0x11c>
    2d0e:	467d                	li	a2,31
    2d10:	fad656e3          	bge	a2,a3,2cbc <__muldf3+0x40c>
    2d14:	5605                	li	a2,-31
    2d16:	40f607b3          	sub	a5,a2,a5
    2d1a:	02000593          	li	a1,32
    2d1e:	00f45633          	srl	a2,s0,a5
    2d22:	00b68763          	beq	a3,a1,2d30 <__muldf3+0x480>
    2d26:	43e90913          	addi	s2,s2,1086
    2d2a:	012417b3          	sll	a5,s0,s2
    2d2e:	8cdd                	or	s1,s1,a5
    2d30:	009034b3          	snez	s1,s1
    2d34:	8cd1                	or	s1,s1,a2
    2d36:	0074f693          	andi	a3,s1,7
    2d3a:	4401                	li	s0,0
    2d3c:	ca99                	beqz	a3,2d52 <__muldf3+0x4a2>
    2d3e:	00f4f793          	andi	a5,s1,15
    2d42:	4611                	li	a2,4
    2d44:	4681                	li	a3,0
    2d46:	fac792e3          	bne	a5,a2,2cea <__muldf3+0x43a>
    2d4a:	00969413          	slli	s0,a3,0x9
    2d4e:	8031                	srli	s0,s0,0xc
    2d50:	06f6                	slli	a3,a3,0x1d
    2d52:	808d                	srli	s1,s1,0x3
    2d54:	8cd5                	or	s1,s1,a3
    2d56:	4781                	li	a5,0
    2d58:	b90d                	j	298a <__muldf3+0xda>
    2d5a:	7ff00793          	li	a5,2047
    2d5e:	4401                	li	s0,0
    2d60:	4481                	li	s1,0
    2d62:	b125                	j	298a <__muldf3+0xda>
    2d64:	8942                	mv	s2,a6
    2d66:	bd6d                	j	2c20 <__muldf3+0x370>

00002d68 <__subdf3>:
__subdf3():
    2d68:	00100737          	lui	a4,0x100
    2d6c:	177d                	addi	a4,a4,-1
    2d6e:	1101                	addi	sp,sp,-32
    2d70:	00b77333          	and	t1,a4,a1
    2d74:	0146d893          	srli	a7,a3,0x14
    2d78:	8f75                	and	a4,a4,a3
    2d7a:	01d65e93          	srli	t4,a2,0x1d
    2d7e:	cc22                	sw	s0,24(sp)
    2d80:	ca26                	sw	s1,20(sp)
    2d82:	030e                	slli	t1,t1,0x3
    2d84:	0145d493          	srli	s1,a1,0x14
    2d88:	01d55793          	srli	a5,a0,0x1d
    2d8c:	070e                	slli	a4,a4,0x3
    2d8e:	ce06                	sw	ra,28(sp)
    2d90:	c84a                	sw	s2,16(sp)
    2d92:	c64e                	sw	s3,12(sp)
    2d94:	7ff8f893          	andi	a7,a7,2047
    2d98:	7ff00e13          	li	t3,2047
    2d9c:	00eee733          	or	a4,t4,a4
    2da0:	7ff4f493          	andi	s1,s1,2047
    2da4:	01f5d413          	srli	s0,a1,0x1f
    2da8:	0067e333          	or	t1,a5,t1
    2dac:	00351f13          	slli	t5,a0,0x3
    2db0:	82fd                	srli	a3,a3,0x1f
    2db2:	00361e93          	slli	t4,a2,0x3
    2db6:	19c88063          	beq	a7,t3,2f36 <__subdf3+0x1ce>
    2dba:	0016c693          	xori	a3,a3,1
    2dbe:	411485b3          	sub	a1,s1,a7
    2dc2:	12d40563          	beq	s0,a3,2eec <__subdf3+0x184>
    2dc6:	18b05163          	blez	a1,2f48 <__subdf3+0x1e0>
    2dca:	1a088b63          	beqz	a7,2f80 <__subdf3+0x218>
    2dce:	008007b7          	lui	a5,0x800
    2dd2:	8f5d                	or	a4,a4,a5
    2dd4:	59c48163          	beq	s1,t3,3356 <__subdf3+0x5ee>
    2dd8:	03800793          	li	a5,56
    2ddc:	34b7c463          	blt	a5,a1,3124 <__subdf3+0x3bc>
    2de0:	47fd                	li	a5,31
    2de2:	48b7c563          	blt	a5,a1,326c <__subdf3+0x504>
    2de6:	02000793          	li	a5,32
    2dea:	8f8d                	sub	a5,a5,a1
    2dec:	00bed9b3          	srl	s3,t4,a1
    2df0:	00f71833          	sll	a6,a4,a5
    2df4:	00fe9eb3          	sll	t4,t4,a5
    2df8:	01386833          	or	a6,a6,s3
    2dfc:	00b75733          	srl	a4,a4,a1
    2e00:	01d039b3          	snez	s3,t4
    2e04:	01386833          	or	a6,a6,s3
    2e08:	40e30333          	sub	t1,t1,a4
    2e0c:	410f09b3          	sub	s3,t5,a6
    2e10:	013f37b3          	sltu	a5,t5,s3
    2e14:	40f30633          	sub	a2,t1,a5
    2e18:	00861793          	slli	a5,a2,0x8
    2e1c:	2407d363          	bgez	a5,3062 <__subdf3+0x2fa>
    2e20:	00800937          	lui	s2,0x800
    2e24:	197d                	addi	s2,s2,-1
    2e26:	01267933          	and	s2,a2,s2
    2e2a:	2c090f63          	beqz	s2,3108 <__subdf3+0x3a0>
    2e2e:	854a                	mv	a0,s2
    2e30:	3b4010ef          	jal	ra,41e4 <__clzsi2>
    2e34:	ff850713          	addi	a4,a0,-8
    2e38:	02000793          	li	a5,32
    2e3c:	8f99                	sub	a5,a5,a4
    2e3e:	00f9d7b3          	srl	a5,s3,a5
    2e42:	00e91633          	sll	a2,s2,a4
    2e46:	8fd1                	or	a5,a5,a2
    2e48:	00e999b3          	sll	s3,s3,a4
    2e4c:	2a974463          	blt	a4,s1,30f4 <__subdf3+0x38c>
    2e50:	8f05                	sub	a4,a4,s1
    2e52:	00170613          	addi	a2,a4,1 # 100001 <_data_lma+0xfa375>
    2e56:	46fd                	li	a3,31
    2e58:	3ac6c563          	blt	a3,a2,3202 <__subdf3+0x49a>
    2e5c:	02000713          	li	a4,32
    2e60:	8f11                	sub	a4,a4,a2
    2e62:	00c9d6b3          	srl	a3,s3,a2
    2e66:	00e99833          	sll	a6,s3,a4
    2e6a:	00e79733          	sll	a4,a5,a4
    2e6e:	8f55                	or	a4,a4,a3
    2e70:	01003833          	snez	a6,a6
    2e74:	010769b3          	or	s3,a4,a6
    2e78:	00c7d633          	srl	a2,a5,a2
    2e7c:	4481                	li	s1,0
    2e7e:	0079f793          	andi	a5,s3,7
    2e82:	cf81                	beqz	a5,2e9a <__subdf3+0x132>
    2e84:	00f9f693          	andi	a3,s3,15
    2e88:	4791                	li	a5,4
    2e8a:	00f68863          	beq	a3,a5,2e9a <__subdf3+0x132>
    2e8e:	00498693          	addi	a3,s3,4
    2e92:	0136b833          	sltu	a6,a3,s3
    2e96:	9642                	add	a2,a2,a6
    2e98:	89b6                	mv	s3,a3
    2e9a:	00861793          	slli	a5,a2,0x8
    2e9e:	1c07d663          	bgez	a5,306a <__subdf3+0x302>
    2ea2:	00148713          	addi	a4,s1,1
    2ea6:	7ff00793          	li	a5,2047
    2eaa:	8805                	andi	s0,s0,1
    2eac:	20f70663          	beq	a4,a5,30b8 <__subdf3+0x350>
    2eb0:	ff8007b7          	lui	a5,0xff800
    2eb4:	17fd                	addi	a5,a5,-1
    2eb6:	8ff1                	and	a5,a5,a2
    2eb8:	01d79813          	slli	a6,a5,0x1d
    2ebc:	0039d993          	srli	s3,s3,0x3
    2ec0:	07a6                	slli	a5,a5,0x9
    2ec2:	01386833          	or	a6,a6,s3
    2ec6:	83b1                	srli	a5,a5,0xc
    2ec8:	7ff77713          	andi	a4,a4,2047
    2ecc:	00c79693          	slli	a3,a5,0xc
    2ed0:	0752                	slli	a4,a4,0x14
    2ed2:	82b1                	srli	a3,a3,0xc
    2ed4:	047e                	slli	s0,s0,0x1f
    2ed6:	8ed9                	or	a3,a3,a4
    2ed8:	8ec1                	or	a3,a3,s0
    2eda:	40f2                	lw	ra,28(sp)
    2edc:	4462                	lw	s0,24(sp)
    2ede:	44d2                	lw	s1,20(sp)
    2ee0:	4942                	lw	s2,16(sp)
    2ee2:	49b2                	lw	s3,12(sp)
    2ee4:	8542                	mv	a0,a6
    2ee6:	85b6                	mv	a1,a3
    2ee8:	6105                	addi	sp,sp,32
    2eea:	8082                	ret
    2eec:	0ab05663          	blez	a1,2f98 <__subdf3+0x230>
    2ef0:	12088a63          	beqz	a7,3024 <__subdf3+0x2bc>
    2ef4:	008007b7          	lui	a5,0x800
    2ef8:	8f5d                	or	a4,a4,a5
    2efa:	2dc48763          	beq	s1,t3,31c8 <__subdf3+0x460>
    2efe:	03800793          	li	a5,56
    2f02:	18b7c763          	blt	a5,a1,3090 <__subdf3+0x328>
    2f06:	47fd                	li	a5,31
    2f08:	3cb7d263          	bge	a5,a1,32cc <__subdf3+0x564>
    2f0c:	fe058813          	addi	a6,a1,-32 # dfe0 <_data_lma+0x8354>
    2f10:	02000793          	li	a5,32
    2f14:	010759b3          	srl	s3,a4,a6
    2f18:	00f58a63          	beq	a1,a5,2f2c <__subdf3+0x1c4>
    2f1c:	04000793          	li	a5,64
    2f20:	40b785b3          	sub	a1,a5,a1
    2f24:	00b71733          	sll	a4,a4,a1
    2f28:	00eeeeb3          	or	t4,t4,a4
    2f2c:	01d03833          	snez	a6,t4
    2f30:	01386833          	or	a6,a6,s3
    2f34:	a295                	j	3098 <__subdf3+0x330>
    2f36:	01d767b3          	or	a5,a4,t4
    2f3a:	80148593          	addi	a1,s1,-2047
    2f3e:	e399                	bnez	a5,2f44 <__subdf3+0x1dc>
    2f40:	0016c693          	xori	a3,a3,1
    2f44:	04d40a63          	beq	s0,a3,2f98 <__subdf3+0x230>
    2f48:	e1d1                	bnez	a1,2fcc <__subdf3+0x264>
    2f4a:	00148793          	addi	a5,s1,1
    2f4e:	7fe7f793          	andi	a5,a5,2046
    2f52:	1e079963          	bnez	a5,3144 <__subdf3+0x3dc>
    2f56:	01e367b3          	or	a5,t1,t5
    2f5a:	01d76833          	or	a6,a4,t4
    2f5e:	16049263          	bnez	s1,30c2 <__subdf3+0x35a>
    2f62:	3c078263          	beqz	a5,3326 <__subdf3+0x5be>
    2f66:	42081663          	bnez	a6,3392 <__subdf3+0x62a>
    2f6a:	00351813          	slli	a6,a0,0x3
    2f6e:	01d31693          	slli	a3,t1,0x1d
    2f72:	00385813          	srli	a6,a6,0x3
    2f76:	0106e833          	or	a6,a3,a6
    2f7a:	00335793          	srli	a5,t1,0x3
    2f7e:	a219                	j	3084 <__subdf3+0x31c>
    2f80:	01d767b3          	or	a5,a4,t4
    2f84:	1a078563          	beqz	a5,312e <__subdf3+0x3c6>
    2f88:	fff58793          	addi	a5,a1,-1
    2f8c:	3a078b63          	beqz	a5,3342 <__subdf3+0x5da>
    2f90:	23c58c63          	beq	a1,t3,31c8 <__subdf3+0x460>
    2f94:	85be                	mv	a1,a5
    2f96:	b589                	j	2dd8 <__subdf3+0x70>
    2f98:	1c059963          	bnez	a1,316a <__subdf3+0x402>
    2f9c:	00148693          	addi	a3,s1,1
    2fa0:	7fe6f793          	andi	a5,a3,2046
    2fa4:	efc1                	bnez	a5,303c <__subdf3+0x2d4>
    2fa6:	01e367b3          	or	a5,t1,t5
    2faa:	36049063          	bnez	s1,330a <__subdf3+0x5a2>
    2fae:	44078d63          	beqz	a5,3408 <__subdf3+0x6a0>
    2fb2:	01d767b3          	or	a5,a4,t4
    2fb6:	46079463          	bnez	a5,341e <__subdf3+0x6b6>
    2fba:	050e                	slli	a0,a0,0x3
    2fbc:	01d31813          	slli	a6,t1,0x1d
    2fc0:	810d                	srli	a0,a0,0x3
    2fc2:	00a86833          	or	a6,a6,a0
    2fc6:	00335793          	srli	a5,t1,0x3
    2fca:	a86d                	j	3084 <__subdf3+0x31c>
    2fcc:	409885b3          	sub	a1,a7,s1
    2fd0:	20049763          	bnez	s1,31de <__subdf3+0x476>
    2fd4:	01e367b3          	or	a5,t1,t5
    2fd8:	30078d63          	beqz	a5,32f2 <__subdf3+0x58a>
    2fdc:	fff58793          	addi	a5,a1,-1
    2fe0:	40078963          	beqz	a5,33f2 <__subdf3+0x68a>
    2fe4:	7ff00513          	li	a0,2047
    2fe8:	20a58363          	beq	a1,a0,31ee <__subdf3+0x486>
    2fec:	85be                	mv	a1,a5
    2fee:	03800793          	li	a5,56
    2ff2:	2ab7c263          	blt	a5,a1,3296 <__subdf3+0x52e>
    2ff6:	47fd                	li	a5,31
    2ff8:	3cb7c863          	blt	a5,a1,33c8 <__subdf3+0x660>
    2ffc:	02000793          	li	a5,32
    3000:	8f8d                	sub	a5,a5,a1
    3002:	00f31833          	sll	a6,t1,a5
    3006:	00bf5633          	srl	a2,t5,a1
    300a:	00ff17b3          	sll	a5,t5,a5
    300e:	00c86833          	or	a6,a6,a2
    3012:	00f039b3          	snez	s3,a5
    3016:	00b35333          	srl	t1,t1,a1
    301a:	01386833          	or	a6,a6,s3
    301e:	40670733          	sub	a4,a4,t1
    3022:	acb5                	j	329e <__subdf3+0x536>
    3024:	01d767b3          	or	a5,a4,t4
    3028:	10078363          	beqz	a5,312e <__subdf3+0x3c6>
    302c:	fff58793          	addi	a5,a1,-1
    3030:	1e078f63          	beqz	a5,322e <__subdf3+0x4c6>
    3034:	2fc58063          	beq	a1,t3,3314 <__subdf3+0x5ac>
    3038:	85be                	mv	a1,a5
    303a:	b5d1                	j	2efe <__subdf3+0x196>
    303c:	7ff00793          	li	a5,2047
    3040:	06f68b63          	beq	a3,a5,30b6 <__subdf3+0x34e>
    3044:	9efa                	add	t4,t4,t5
    3046:	01eeb633          	sltu	a2,t4,t5
    304a:	00e307b3          	add	a5,t1,a4
    304e:	97b2                	add	a5,a5,a2
    3050:	01f79813          	slli	a6,a5,0x1f
    3054:	001ede93          	srli	t4,t4,0x1
    3058:	01d869b3          	or	s3,a6,t4
    305c:	0017d613          	srli	a2,a5,0x1
    3060:	84b6                	mv	s1,a3
    3062:	0079f793          	andi	a5,s3,7
    3066:	e0079fe3          	bnez	a5,2e84 <__subdf3+0x11c>
    306a:	01d61793          	slli	a5,a2,0x1d
    306e:	0039d813          	srli	a6,s3,0x3
    3072:	00f86833          	or	a6,a6,a5
    3076:	85a6                	mv	a1,s1
    3078:	00365793          	srli	a5,a2,0x3
    307c:	7ff00713          	li	a4,2047
    3080:	06e58063          	beq	a1,a4,30e0 <__subdf3+0x378>
    3084:	07b2                	slli	a5,a5,0xc
    3086:	83b1                	srli	a5,a5,0xc
    3088:	7ff5f713          	andi	a4,a1,2047
    308c:	8805                	andi	s0,s0,1
    308e:	bd3d                	j	2ecc <__subdf3+0x164>
    3090:	01d76733          	or	a4,a4,t4
    3094:	00e03833          	snez	a6,a4
    3098:	01e809b3          	add	s3,a6,t5
    309c:	01e9b7b3          	sltu	a5,s3,t5
    30a0:	00678633          	add	a2,a5,t1
    30a4:	00861793          	slli	a5,a2,0x8
    30a8:	fa07dde3          	bgez	a5,3062 <__subdf3+0x2fa>
    30ac:	0485                	addi	s1,s1,1
    30ae:	7ff00793          	li	a5,2047
    30b2:	18f49c63          	bne	s1,a5,324a <__subdf3+0x4e2>
    30b6:	8805                	andi	s0,s0,1
    30b8:	7ff00713          	li	a4,2047
    30bc:	4781                	li	a5,0
    30be:	4801                	li	a6,0
    30c0:	b531                	j	2ecc <__subdf3+0x164>
    30c2:	10079163          	bnez	a5,31c4 <__subdf3+0x45c>
    30c6:	3c080163          	beqz	a6,3488 <__subdf3+0x720>
    30ca:	00361813          	slli	a6,a2,0x3
    30ce:	01d71793          	slli	a5,a4,0x1d
    30d2:	00385813          	srli	a6,a6,0x3
    30d6:	00f86833          	or	a6,a6,a5
    30da:	8436                	mv	s0,a3
    30dc:	00375793          	srli	a5,a4,0x3
    30e0:	00f867b3          	or	a5,a6,a5
    30e4:	dbe9                	beqz	a5,30b6 <__subdf3+0x34e>
    30e6:	4401                	li	s0,0
    30e8:	7ff00713          	li	a4,2047
    30ec:	000807b7          	lui	a5,0x80
    30f0:	4801                	li	a6,0
    30f2:	bbe9                	j	2ecc <__subdf3+0x164>
    30f4:	ff800637          	lui	a2,0xff800
    30f8:	167d                	addi	a2,a2,-1
    30fa:	8e7d                	and	a2,a2,a5
    30fc:	0079f793          	andi	a5,s3,7
    3100:	8c99                	sub	s1,s1,a4
    3102:	d80791e3          	bnez	a5,2e84 <__subdf3+0x11c>
    3106:	b795                	j	306a <__subdf3+0x302>
    3108:	854e                	mv	a0,s3
    310a:	0da010ef          	jal	ra,41e4 <__clzsi2>
    310e:	01850713          	addi	a4,a0,24
    3112:	47fd                	li	a5,31
    3114:	d2e7d2e3          	bge	a5,a4,2e38 <__subdf3+0xd0>
    3118:	ff850613          	addi	a2,a0,-8
    311c:	00c997b3          	sll	a5,s3,a2
    3120:	4981                	li	s3,0
    3122:	b32d                	j	2e4c <__subdf3+0xe4>
    3124:	01d76833          	or	a6,a4,t4
    3128:	01003833          	snez	a6,a6
    312c:	b1c5                	j	2e0c <__subdf3+0xa4>
    312e:	00351813          	slli	a6,a0,0x3
    3132:	01d31793          	slli	a5,t1,0x1d
    3136:	00385813          	srli	a6,a6,0x3
    313a:	00f86833          	or	a6,a6,a5
    313e:	00335793          	srli	a5,t1,0x3
    3142:	bf2d                	j	307c <__subdf3+0x314>
    3144:	41df09b3          	sub	s3,t5,t4
    3148:	40e30933          	sub	s2,t1,a4
    314c:	013f3633          	sltu	a2,t5,s3
    3150:	40c90933          	sub	s2,s2,a2
    3154:	00891793          	slli	a5,s2,0x8
    3158:	2007ca63          	bltz	a5,336c <__subdf3+0x604>
    315c:	0129e833          	or	a6,s3,s2
    3160:	cc0815e3          	bnez	a6,2e2a <__subdf3+0xc2>
    3164:	4781                	li	a5,0
    3166:	4401                	li	s0,0
    3168:	bf31                	j	3084 <__subdf3+0x31c>
    316a:	409885b3          	sub	a1,a7,s1
    316e:	14048163          	beqz	s1,32b0 <__subdf3+0x548>
    3172:	008006b7          	lui	a3,0x800
    3176:	7ff00793          	li	a5,2047
    317a:	00d36333          	or	t1,t1,a3
    317e:	20f88163          	beq	a7,a5,3380 <__subdf3+0x618>
    3182:	03800793          	li	a5,56
    3186:	22b7cc63          	blt	a5,a1,33be <__subdf3+0x656>
    318a:	47fd                	li	a5,31
    318c:	2cb7c963          	blt	a5,a1,345e <__subdf3+0x6f6>
    3190:	02000793          	li	a5,32
    3194:	8f8d                	sub	a5,a5,a1
    3196:	00f31833          	sll	a6,t1,a5
    319a:	00bf56b3          	srl	a3,t5,a1
    319e:	00ff17b3          	sll	a5,t5,a5
    31a2:	00d86833          	or	a6,a6,a3
    31a6:	00f039b3          	snez	s3,a5
    31aa:	00b35333          	srl	t1,t1,a1
    31ae:	01386833          	or	a6,a6,s3
    31b2:	971a                	add	a4,a4,t1
    31b4:	01d809b3          	add	s3,a6,t4
    31b8:	01d9b7b3          	sltu	a5,s3,t4
    31bc:	00e78633          	add	a2,a5,a4
    31c0:	84c6                	mv	s1,a7
    31c2:	b5cd                	j	30a4 <__subdf3+0x33c>
    31c4:	f20811e3          	bnez	a6,30e6 <__subdf3+0x37e>
    31c8:	00351813          	slli	a6,a0,0x3
    31cc:	01d31793          	slli	a5,t1,0x1d
    31d0:	00385813          	srli	a6,a6,0x3
    31d4:	00f86833          	or	a6,a6,a5
    31d8:	00335793          	srli	a5,t1,0x3
    31dc:	b711                	j	30e0 <__subdf3+0x378>
    31de:	00800537          	lui	a0,0x800
    31e2:	7ff00793          	li	a5,2047
    31e6:	00a36333          	or	t1,t1,a0
    31ea:	e0f892e3          	bne	a7,a5,2fee <__subdf3+0x286>
    31ee:	060e                	slli	a2,a2,0x3
    31f0:	01d71813          	slli	a6,a4,0x1d
    31f4:	820d                	srli	a2,a2,0x3
    31f6:	00c86833          	or	a6,a6,a2
    31fa:	00375793          	srli	a5,a4,0x3
    31fe:	8436                	mv	s0,a3
    3200:	b5c5                	j	30e0 <__subdf3+0x378>
    3202:	1705                	addi	a4,a4,-31
    3204:	02000693          	li	a3,32
    3208:	00e7d733          	srl	a4,a5,a4
    320c:	00d60a63          	beq	a2,a3,3220 <__subdf3+0x4b8>
    3210:	04000693          	li	a3,64
    3214:	40c68633          	sub	a2,a3,a2
    3218:	00c79633          	sll	a2,a5,a2
    321c:	00c9e9b3          	or	s3,s3,a2
    3220:	01303833          	snez	a6,s3
    3224:	00e869b3          	or	s3,a6,a4
    3228:	4601                	li	a2,0
    322a:	4481                	li	s1,0
    322c:	bd1d                	j	3062 <__subdf3+0x2fa>
    322e:	01df09b3          	add	s3,t5,t4
    3232:	00e307b3          	add	a5,t1,a4
    3236:	01e9bf33          	sltu	t5,s3,t5
    323a:	01e78633          	add	a2,a5,t5
    323e:	00861793          	slli	a5,a2,0x8
    3242:	4485                	li	s1,1
    3244:	e007dfe3          	bgez	a5,3062 <__subdf3+0x2fa>
    3248:	4489                	li	s1,2
    324a:	ff8007b7          	lui	a5,0xff800
    324e:	17fd                	addi	a5,a5,-1
    3250:	8ff1                	and	a5,a5,a2
    3252:	0019d713          	srli	a4,s3,0x1
    3256:	0019f813          	andi	a6,s3,1
    325a:	01076833          	or	a6,a4,a6
    325e:	01f79993          	slli	s3,a5,0x1f
    3262:	0109e9b3          	or	s3,s3,a6
    3266:	0017d613          	srli	a2,a5,0x1
    326a:	b911                	j	2e7e <__subdf3+0x116>
    326c:	fe058813          	addi	a6,a1,-32
    3270:	02000793          	li	a5,32
    3274:	010759b3          	srl	s3,a4,a6
    3278:	00f58a63          	beq	a1,a5,328c <__subdf3+0x524>
    327c:	04000793          	li	a5,64
    3280:	40b785b3          	sub	a1,a5,a1
    3284:	00b71733          	sll	a4,a4,a1
    3288:	00eeeeb3          	or	t4,t4,a4
    328c:	01d03833          	snez	a6,t4
    3290:	01386833          	or	a6,a6,s3
    3294:	bea5                	j	2e0c <__subdf3+0xa4>
    3296:	01e36333          	or	t1,t1,t5
    329a:	00603833          	snez	a6,t1
    329e:	410e89b3          	sub	s3,t4,a6
    32a2:	013eb7b3          	sltu	a5,t4,s3
    32a6:	40f70633          	sub	a2,a4,a5
    32aa:	84c6                	mv	s1,a7
    32ac:	8436                	mv	s0,a3
    32ae:	b6ad                	j	2e18 <__subdf3+0xb0>
    32b0:	01e367b3          	or	a5,t1,t5
    32b4:	18078763          	beqz	a5,3442 <__subdf3+0x6da>
    32b8:	fff58793          	addi	a5,a1,-1
    32bc:	1c078c63          	beqz	a5,3494 <__subdf3+0x72c>
    32c0:	7ff00693          	li	a3,2047
    32c4:	0ad58e63          	beq	a1,a3,3380 <__subdf3+0x618>
    32c8:	85be                	mv	a1,a5
    32ca:	bd65                	j	3182 <__subdf3+0x41a>
    32cc:	02000793          	li	a5,32
    32d0:	8f8d                	sub	a5,a5,a1
    32d2:	00bed9b3          	srl	s3,t4,a1
    32d6:	00f71833          	sll	a6,a4,a5
    32da:	00fe9eb3          	sll	t4,t4,a5
    32de:	01386833          	or	a6,a6,s3
    32e2:	00b75733          	srl	a4,a4,a1
    32e6:	01d039b3          	snez	s3,t4
    32ea:	01386833          	or	a6,a6,s3
    32ee:	933a                	add	t1,t1,a4
    32f0:	b365                	j	3098 <__subdf3+0x330>
    32f2:	00361813          	slli	a6,a2,0x3
    32f6:	01d71793          	slli	a5,a4,0x1d
    32fa:	00385813          	srli	a6,a6,0x3
    32fe:	0107e833          	or	a6,a5,a6
    3302:	8436                	mv	s0,a3
    3304:	00375793          	srli	a5,a4,0x3
    3308:	bb95                	j	307c <__subdf3+0x314>
    330a:	cbbd                	beqz	a5,3380 <__subdf3+0x618>
    330c:	01d76733          	or	a4,a4,t4
    3310:	dc071be3          	bnez	a4,30e6 <__subdf3+0x37e>
    3314:	050e                	slli	a0,a0,0x3
    3316:	01d31813          	slli	a6,t1,0x1d
    331a:	810d                	srli	a0,a0,0x3
    331c:	00a86833          	or	a6,a6,a0
    3320:	00335793          	srli	a5,t1,0x3
    3324:	bb75                	j	30e0 <__subdf3+0x378>
    3326:	e2080fe3          	beqz	a6,3164 <__subdf3+0x3fc>
    332a:	00361813          	slli	a6,a2,0x3
    332e:	01d71793          	slli	a5,a4,0x1d
    3332:	00385813          	srli	a6,a6,0x3
    3336:	00f86833          	or	a6,a6,a5
    333a:	8436                	mv	s0,a3
    333c:	00375793          	srli	a5,a4,0x3
    3340:	b391                	j	3084 <__subdf3+0x31c>
    3342:	41df09b3          	sub	s3,t5,t4
    3346:	40e307b3          	sub	a5,t1,a4
    334a:	013f3f33          	sltu	t5,t5,s3
    334e:	41e78633          	sub	a2,a5,t5
    3352:	4485                	li	s1,1
    3354:	b4d1                	j	2e18 <__subdf3+0xb0>
    3356:	00351813          	slli	a6,a0,0x3
    335a:	01d31693          	slli	a3,t1,0x1d
    335e:	00385813          	srli	a6,a6,0x3
    3362:	0106e833          	or	a6,a3,a6
    3366:	00335793          	srli	a5,t1,0x3
    336a:	bb9d                	j	30e0 <__subdf3+0x378>
    336c:	41ee89b3          	sub	s3,t4,t5
    3370:	40670633          	sub	a2,a4,t1
    3374:	013eb933          	sltu	s2,t4,s3
    3378:	41260933          	sub	s2,a2,s2
    337c:	8436                	mv	s0,a3
    337e:	b475                	j	2e2a <__subdf3+0xc2>
    3380:	060e                	slli	a2,a2,0x3
    3382:	01d71813          	slli	a6,a4,0x1d
    3386:	820d                	srli	a2,a2,0x3
    3388:	00c86833          	or	a6,a6,a2
    338c:	00375793          	srli	a5,a4,0x3
    3390:	bb81                	j	30e0 <__subdf3+0x378>
    3392:	41df09b3          	sub	s3,t5,t4
    3396:	40e307b3          	sub	a5,t1,a4
    339a:	013f3633          	sltu	a2,t5,s3
    339e:	40c78633          	sub	a2,a5,a2
    33a2:	00861793          	slli	a5,a2,0x8
    33a6:	0a07d763          	bgez	a5,3454 <__subdf3+0x6ec>
    33aa:	41ee89b3          	sub	s3,t4,t5
    33ae:	406707b3          	sub	a5,a4,t1
    33b2:	013ebeb3          	sltu	t4,t4,s3
    33b6:	41d78633          	sub	a2,a5,t4
    33ba:	8436                	mv	s0,a3
    33bc:	b4c9                	j	2e7e <__subdf3+0x116>
    33be:	01e36333          	or	t1,t1,t5
    33c2:	00603833          	snez	a6,t1
    33c6:	b3fd                	j	31b4 <__subdf3+0x44c>
    33c8:	fe058813          	addi	a6,a1,-32
    33cc:	02000793          	li	a5,32
    33d0:	010359b3          	srl	s3,t1,a6
    33d4:	00f58a63          	beq	a1,a5,33e8 <__subdf3+0x680>
    33d8:	04000793          	li	a5,64
    33dc:	40b785b3          	sub	a1,a5,a1
    33e0:	00b31333          	sll	t1,t1,a1
    33e4:	006f6f33          	or	t5,t5,t1
    33e8:	01e03833          	snez	a6,t5
    33ec:	01386833          	or	a6,a6,s3
    33f0:	b57d                	j	329e <__subdf3+0x536>
    33f2:	41ee89b3          	sub	s3,t4,t5
    33f6:	406707b3          	sub	a5,a4,t1
    33fa:	013ebeb3          	sltu	t4,t4,s3
    33fe:	41d78633          	sub	a2,a5,t4
    3402:	8436                	mv	s0,a3
    3404:	4485                	li	s1,1
    3406:	bc09                	j	2e18 <__subdf3+0xb0>
    3408:	00361813          	slli	a6,a2,0x3
    340c:	01d71793          	slli	a5,a4,0x1d
    3410:	00385813          	srli	a6,a6,0x3
    3414:	00f86833          	or	a6,a6,a5
    3418:	00375793          	srli	a5,a4,0x3
    341c:	b1a5                	j	3084 <__subdf3+0x31c>
    341e:	01df09b3          	add	s3,t5,t4
    3422:	00e307b3          	add	a5,t1,a4
    3426:	01e9bf33          	sltu	t5,s3,t5
    342a:	01e78633          	add	a2,a5,t5
    342e:	00861793          	slli	a5,a2,0x8
    3432:	c207d8e3          	bgez	a5,3062 <__subdf3+0x2fa>
    3436:	ff8007b7          	lui	a5,0xff800
    343a:	17fd                	addi	a5,a5,-1
    343c:	8e7d                	and	a2,a2,a5
    343e:	4485                	li	s1,1
    3440:	b10d                	j	3062 <__subdf3+0x2fa>
    3442:	060e                	slli	a2,a2,0x3
    3444:	01d71813          	slli	a6,a4,0x1d
    3448:	820d                	srli	a2,a2,0x3
    344a:	00c86833          	or	a6,a6,a2
    344e:	00375793          	srli	a5,a4,0x3
    3452:	b12d                	j	307c <__subdf3+0x314>
    3454:	00c9e833          	or	a6,s3,a2
    3458:	d00806e3          	beqz	a6,3164 <__subdf3+0x3fc>
    345c:	b119                	j	3062 <__subdf3+0x2fa>
    345e:	fe058813          	addi	a6,a1,-32
    3462:	02000793          	li	a5,32
    3466:	010359b3          	srl	s3,t1,a6
    346a:	00f58a63          	beq	a1,a5,347e <__subdf3+0x716>
    346e:	04000793          	li	a5,64
    3472:	40b785b3          	sub	a1,a5,a1
    3476:	00b31333          	sll	t1,t1,a1
    347a:	006f6f33          	or	t5,t5,t1
    347e:	01e03833          	snez	a6,t5
    3482:	01386833          	or	a6,a6,s3
    3486:	b33d                	j	31b4 <__subdf3+0x44c>
    3488:	4401                	li	s0,0
    348a:	7ff00713          	li	a4,2047
    348e:	000807b7          	lui	a5,0x80
    3492:	bc2d                	j	2ecc <__subdf3+0x164>
    3494:	01df09b3          	add	s3,t5,t4
    3498:	00e307b3          	add	a5,t1,a4
    349c:	01d9beb3          	sltu	t4,s3,t4
    34a0:	01d78633          	add	a2,a5,t4
    34a4:	bb69                	j	323e <__subdf3+0x4d6>

000034a6 <__fixdfsi>:
__fixdfsi():
    34a6:	0145d793          	srli	a5,a1,0x14
    34aa:	001006b7          	lui	a3,0x100
    34ae:	fff68713          	addi	a4,a3,-1 # fffff <_data_lma+0xfa373>
    34b2:	7ff7f793          	andi	a5,a5,2047
    34b6:	3fe00613          	li	a2,1022
    34ba:	8f6d                	and	a4,a4,a1
    34bc:	81fd                	srli	a1,a1,0x1f
    34be:	00f65c63          	bge	a2,a5,34d6 <__fixdfsi+0x30>
    34c2:	41d00613          	li	a2,1053
    34c6:	00f65a63          	bge	a2,a5,34da <__fixdfsi+0x34>
    34ca:	80000537          	lui	a0,0x80000
    34ce:	fff54513          	not	a0,a0
    34d2:	952e                	add	a0,a0,a1
    34d4:	8082                	ret
    34d6:	4501                	li	a0,0
    34d8:	8082                	ret
    34da:	43300613          	li	a2,1075
    34de:	8e1d                	sub	a2,a2,a5
    34e0:	487d                	li	a6,31
    34e2:	8f55                	or	a4,a4,a3
    34e4:	00c85d63          	bge	a6,a2,34fe <__fixdfsi+0x58>
    34e8:	41300693          	li	a3,1043
    34ec:	40f687b3          	sub	a5,a3,a5
    34f0:	00f757b3          	srl	a5,a4,a5
    34f4:	40f00533          	neg	a0,a5
    34f8:	f1e5                	bnez	a1,34d8 <__fixdfsi+0x32>
    34fa:	853e                	mv	a0,a5
    34fc:	8082                	ret
    34fe:	bed78793          	addi	a5,a5,-1043 # 7fbed <_data_lma+0x79f61>
    3502:	00f717b3          	sll	a5,a4,a5
    3506:	00c55533          	srl	a0,a0,a2
    350a:	8fc9                	or	a5,a5,a0
    350c:	b7e5                	j	34f4 <__fixdfsi+0x4e>

0000350e <__fixunsdfsi>:
__fixunsdfsi():
    350e:	0145d793          	srli	a5,a1,0x14
    3512:	001006b7          	lui	a3,0x100
    3516:	fff68713          	addi	a4,a3,-1 # fffff <_data_lma+0xfa373>
    351a:	7ff7f793          	andi	a5,a5,2047
    351e:	3fe00613          	li	a2,1022
    3522:	882a                	mv	a6,a0
    3524:	8f6d                	and	a4,a4,a1
    3526:	4501                	li	a0,0
    3528:	81fd                	srli	a1,a1,0x1f
    352a:	00f65463          	bge	a2,a5,3532 <__fixunsdfsi+0x24>
    352e:	c199                	beqz	a1,3534 <__fixunsdfsi+0x26>
    3530:	8082                	ret
    3532:	8082                	ret
    3534:	41e00613          	li	a2,1054
    3538:	557d                	li	a0,-1
    353a:	fef64be3          	blt	a2,a5,3530 <__fixunsdfsi+0x22>
    353e:	43300513          	li	a0,1075
    3542:	8d1d                	sub	a0,a0,a5
    3544:	467d                	li	a2,31
    3546:	8f55                	or	a4,a4,a3
    3548:	00a64a63          	blt	a2,a0,355c <__fixunsdfsi+0x4e>
    354c:	bed78793          	addi	a5,a5,-1043
    3550:	00f71733          	sll	a4,a4,a5
    3554:	00a85533          	srl	a0,a6,a0
    3558:	8d59                	or	a0,a0,a4
    355a:	8082                	ret
    355c:	41300513          	li	a0,1043
    3560:	40f507b3          	sub	a5,a0,a5
    3564:	00f75533          	srl	a0,a4,a5
    3568:	8082                	ret

0000356a <__floatsidf>:
__floatsidf():
    356a:	1141                	addi	sp,sp,-16
    356c:	c606                	sw	ra,12(sp)
    356e:	c422                	sw	s0,8(sp)
    3570:	c226                	sw	s1,4(sp)
    3572:	cd0d                	beqz	a0,35ac <__floatsidf+0x42>
    3574:	41f55793          	srai	a5,a0,0x1f
    3578:	00a7c4b3          	xor	s1,a5,a0
    357c:	8c9d                	sub	s1,s1,a5
    357e:	842a                	mv	s0,a0
    3580:	8526                	mv	a0,s1
    3582:	463000ef          	jal	ra,41e4 <__clzsi2>
    3586:	41e00693          	li	a3,1054
    358a:	8e89                	sub	a3,a3,a0
    358c:	47a9                	li	a5,10
    358e:	807d                	srli	s0,s0,0x1f
    3590:	7ff6f693          	andi	a3,a3,2047
    3594:	02a7cd63          	blt	a5,a0,35ce <__floatsidf+0x64>
    3598:	472d                	li	a4,11
    359a:	8f09                	sub	a4,a4,a0
    359c:	00e4d7b3          	srl	a5,s1,a4
    35a0:	0555                	addi	a0,a0,21
    35a2:	07b2                	slli	a5,a5,0xc
    35a4:	00a494b3          	sll	s1,s1,a0
    35a8:	83b1                	srli	a5,a5,0xc
    35aa:	a029                	j	35b4 <__floatsidf+0x4a>
    35ac:	4401                	li	s0,0
    35ae:	4681                	li	a3,0
    35b0:	4781                	li	a5,0
    35b2:	4481                	li	s1,0
    35b4:	07b2                	slli	a5,a5,0xc
    35b6:	06d2                	slli	a3,a3,0x14
    35b8:	83b1                	srli	a5,a5,0xc
    35ba:	047e                	slli	s0,s0,0x1f
    35bc:	8fd5                	or	a5,a5,a3
    35be:	8fc1                	or	a5,a5,s0
    35c0:	40b2                	lw	ra,12(sp)
    35c2:	4422                	lw	s0,8(sp)
    35c4:	8526                	mv	a0,s1
    35c6:	85be                	mv	a1,a5
    35c8:	4492                	lw	s1,4(sp)
    35ca:	0141                	addi	sp,sp,16
    35cc:	8082                	ret
    35ce:	1555                	addi	a0,a0,-11
    35d0:	00a497b3          	sll	a5,s1,a0
    35d4:	07b2                	slli	a5,a5,0xc
    35d6:	83b1                	srli	a5,a5,0xc
    35d8:	4481                	li	s1,0
    35da:	bfe9                	j	35b4 <__floatsidf+0x4a>

000035dc <__divsf3>:
__divsf3():
    35dc:	7139                	addi	sp,sp,-64
    35de:	01755793          	srli	a5,a0,0x17
    35e2:	d84a                	sw	s2,48(sp)
    35e4:	d256                	sw	s5,36(sp)
    35e6:	ce5e                	sw	s7,28(sp)
    35e8:	00951a93          	slli	s5,a0,0x9
    35ec:	01f55913          	srli	s2,a0,0x1f
    35f0:	de06                	sw	ra,60(sp)
    35f2:	dc22                	sw	s0,56(sp)
    35f4:	da26                	sw	s1,52(sp)
    35f6:	d64e                	sw	s3,44(sp)
    35f8:	d452                	sw	s4,40(sp)
    35fa:	d05a                	sw	s6,32(sp)
    35fc:	0ff7f793          	andi	a5,a5,255
    3600:	009ada93          	srli	s5,s5,0x9
    3604:	8bca                	mv	s7,s2
    3606:	12078263          	beqz	a5,372a <__divsf3+0x14e>
    360a:	0ff00713          	li	a4,255
    360e:	12e78463          	beq	a5,a4,3736 <__divsf3+0x15a>
    3612:	0a8e                	slli	s5,s5,0x3
    3614:	04000737          	lui	a4,0x4000
    3618:	00eaeab3          	or	s5,s5,a4
    361c:	f8178a13          	addi	s4,a5,-127
    3620:	4401                	li	s0,0
    3622:	4b01                	li	s6,0
    3624:	0175d793          	srli	a5,a1,0x17
    3628:	00959493          	slli	s1,a1,0x9
    362c:	0ff7f793          	andi	a5,a5,255
    3630:	80a5                	srli	s1,s1,0x9
    3632:	01f5d993          	srli	s3,a1,0x1f
    3636:	c7fd                	beqz	a5,3724 <__divsf3+0x148>
    3638:	0ff00713          	li	a4,255
    363c:	02e78763          	beq	a5,a4,366a <__divsf3+0x8e>
    3640:	048e                	slli	s1,s1,0x3
    3642:	f8178793          	addi	a5,a5,-127
    3646:	04000737          	lui	a4,0x4000
    364a:	8cd9                	or	s1,s1,a4
    364c:	40fa0a33          	sub	s4,s4,a5
    3650:	4681                	li	a3,0
    3652:	8c55                	or	s0,s0,a3
    3654:	00002717          	auipc	a4,0x2
    3658:	39c70713          	addi	a4,a4,924 # 59f0 <UARTN+0x60>
    365c:	040a                	slli	s0,s0,0x2
    365e:	943a                	add	s0,s0,a4
    3660:	401c                	lw	a5,0(s0)
    3662:	01394933          	xor	s2,s2,s3
    3666:	97ba                	add	a5,a5,a4
    3668:	8782                	jr	a5
    366a:	f01a0a13          	addi	s4,s4,-255
    366e:	e8f9                	bnez	s1,3744 <__divsf3+0x168>
    3670:	4689                	li	a3,2
    3672:	8c55                	or	s0,s0,a3
    3674:	00002717          	auipc	a4,0x2
    3678:	3bc70713          	addi	a4,a4,956 # 5a30 <UARTN+0xa0>
    367c:	040a                	slli	s0,s0,0x2
    367e:	943a                	add	s0,s0,a4
    3680:	401c                	lw	a5,0(s0)
    3682:	01394933          	xor	s2,s2,s3
    3686:	97ba                	add	a5,a5,a4
    3688:	8782                	jr	a5
    368a:	4901                	li	s2,0
    368c:	0ff00713          	li	a4,255
    3690:	004007b7          	lui	a5,0x400
    3694:	00979513          	slli	a0,a5,0x9
    3698:	50f2                	lw	ra,60(sp)
    369a:	5462                	lw	s0,56(sp)
    369c:	01771793          	slli	a5,a4,0x17
    36a0:	8125                	srli	a0,a0,0x9
    36a2:	097e                	slli	s2,s2,0x1f
    36a4:	8d5d                	or	a0,a0,a5
    36a6:	01256533          	or	a0,a0,s2
    36aa:	54d2                	lw	s1,52(sp)
    36ac:	5942                	lw	s2,48(sp)
    36ae:	59b2                	lw	s3,44(sp)
    36b0:	5a22                	lw	s4,40(sp)
    36b2:	5a92                	lw	s5,36(sp)
    36b4:	5b02                	lw	s6,32(sp)
    36b6:	4bf2                	lw	s7,28(sp)
    36b8:	6121                	addi	sp,sp,64
    36ba:	8082                	ret
    36bc:	0ff00713          	li	a4,255
    36c0:	4781                	li	a5,0
    36c2:	bfc9                	j	3694 <__divsf3+0xb8>
    36c4:	8aa6                	mv	s5,s1
    36c6:	8bce                	mv	s7,s3
    36c8:	8b36                	mv	s6,a3
    36ca:	4789                	li	a5,2
    36cc:	1afb0b63          	beq	s6,a5,3882 <__divsf3+0x2a6>
    36d0:	478d                	li	a5,3
    36d2:	fafb0ce3          	beq	s6,a5,368a <__divsf3+0xae>
    36d6:	4785                	li	a5,1
    36d8:	0afb0a63          	beq	s6,a5,378c <__divsf3+0x1b0>
    36dc:	07fa0713          	addi	a4,s4,127
    36e0:	001bf913          	andi	s2,s7,1
    36e4:	12e05763          	blez	a4,3812 <__divsf3+0x236>
    36e8:	007af793          	andi	a5,s5,7
    36ec:	c799                	beqz	a5,36fa <__divsf3+0x11e>
    36ee:	00faf793          	andi	a5,s5,15
    36f2:	4691                	li	a3,4
    36f4:	00d78363          	beq	a5,a3,36fa <__divsf3+0x11e>
    36f8:	0a91                	addi	s5,s5,4
    36fa:	004a9793          	slli	a5,s5,0x4
    36fe:	0007d963          	bgez	a5,3710 <__divsf3+0x134>
    3702:	f80007b7          	lui	a5,0xf8000
    3706:	17fd                	addi	a5,a5,-1
    3708:	00fafab3          	and	s5,s5,a5
    370c:	080a0713          	addi	a4,s4,128
    3710:	0fe00793          	li	a5,254
    3714:	fae7c4e3          	blt	a5,a4,36bc <__divsf3+0xe0>
    3718:	006a9793          	slli	a5,s5,0x6
    371c:	83a5                	srli	a5,a5,0x9
    371e:	0ff77713          	andi	a4,a4,255
    3722:	bf8d                	j	3694 <__divsf3+0xb8>
    3724:	e4b9                	bnez	s1,3772 <__divsf3+0x196>
    3726:	4685                	li	a3,1
    3728:	b7a9                	j	3672 <__divsf3+0x96>
    372a:	020a9463          	bnez	s5,3752 <__divsf3+0x176>
    372e:	4411                	li	s0,4
    3730:	4a01                	li	s4,0
    3732:	4b05                	li	s6,1
    3734:	bdc5                	j	3624 <__divsf3+0x48>
    3736:	000a9963          	bnez	s5,3748 <__divsf3+0x16c>
    373a:	4421                	li	s0,8
    373c:	0ff00a13          	li	s4,255
    3740:	4b09                	li	s6,2
    3742:	b5cd                	j	3624 <__divsf3+0x48>
    3744:	468d                	li	a3,3
    3746:	b731                	j	3652 <__divsf3+0x76>
    3748:	4431                	li	s0,12
    374a:	0ff00a13          	li	s4,255
    374e:	4b0d                	li	s6,3
    3750:	bdd1                	j	3624 <__divsf3+0x48>
    3752:	8556                	mv	a0,s5
    3754:	c62e                	sw	a1,12(sp)
    3756:	28f000ef          	jal	ra,41e4 <__clzsi2>
    375a:	ffb50793          	addi	a5,a0,-5 # 7ffffffb <_eusrstack+0x5fffaffb>
    375e:	00fa9ab3          	sll	s5,s5,a5
    3762:	f8a00793          	li	a5,-118
    3766:	40a78a33          	sub	s4,a5,a0
    376a:	4401                	li	s0,0
    376c:	4b01                	li	s6,0
    376e:	45b2                	lw	a1,12(sp)
    3770:	bd55                	j	3624 <__divsf3+0x48>
    3772:	8526                	mv	a0,s1
    3774:	271000ef          	jal	ra,41e4 <__clzsi2>
    3778:	ffb50713          	addi	a4,a0,-5
    377c:	00aa07b3          	add	a5,s4,a0
    3780:	00e494b3          	sll	s1,s1,a4
    3784:	07678a13          	addi	s4,a5,118 # f8000076 <_eusrstack+0xd7ffb076>
    3788:	4681                	li	a3,0
    378a:	b5e1                	j	3652 <__divsf3+0x76>
    378c:	001bf913          	andi	s2,s7,1
    3790:	4701                	li	a4,0
    3792:	4781                	li	a5,0
    3794:	b701                	j	3694 <__divsf3+0xb8>
    3796:	6641                	lui	a2,0x10
    3798:	00549513          	slli	a0,s1,0x5
    379c:	167d                	addi	a2,a2,-1
    379e:	01055793          	srli	a5,a0,0x10
    37a2:	8e69                	and	a2,a2,a0
    37a4:	0a9afa63          	bgeu	s5,s1,3858 <__divsf3+0x27c>
    37a8:	02fad5b3          	divu	a1,s5,a5
    37ac:	1a7d                	addi	s4,s4,-1
    37ae:	86d6                	mv	a3,s5
    37b0:	4701                	li	a4,0
    37b2:	02c58833          	mul	a6,a1,a2
    37b6:	02f6f6b3          	remu	a3,a3,a5
    37ba:	06c2                	slli	a3,a3,0x10
    37bc:	8f55                	or	a4,a4,a3
    37be:	01077b63          	bgeu	a4,a6,37d4 <__divsf3+0x1f8>
    37c2:	972a                	add	a4,a4,a0
    37c4:	fff58693          	addi	a3,a1,-1
    37c8:	0aa76863          	bltu	a4,a0,3878 <__divsf3+0x29c>
    37cc:	0b077663          	bgeu	a4,a6,3878 <__divsf3+0x29c>
    37d0:	15f9                	addi	a1,a1,-2
    37d2:	972a                	add	a4,a4,a0
    37d4:	41070733          	sub	a4,a4,a6
    37d8:	02f756b3          	divu	a3,a4,a5
    37dc:	02f77733          	remu	a4,a4,a5
    37e0:	02c68ab3          	mul	s5,a3,a2
    37e4:	01071793          	slli	a5,a4,0x10
    37e8:	0157fb63          	bgeu	a5,s5,37fe <__divsf3+0x222>
    37ec:	97aa                	add	a5,a5,a0
    37ee:	fff68713          	addi	a4,a3,-1
    37f2:	08a7e163          	bltu	a5,a0,3874 <__divsf3+0x298>
    37f6:	0757ff63          	bgeu	a5,s5,3874 <__divsf3+0x298>
    37fa:	16f9                	addi	a3,a3,-2
    37fc:	97aa                	add	a5,a5,a0
    37fe:	05c2                	slli	a1,a1,0x10
    3800:	41578ab3          	sub	s5,a5,s5
    3804:	8dd5                	or	a1,a1,a3
    3806:	01503ab3          	snez	s5,s5
    380a:	0155eab3          	or	s5,a1,s5
    380e:	8bca                	mv	s7,s2
    3810:	b5f1                	j	36dc <__divsf3+0x100>
    3812:	4685                	li	a3,1
    3814:	8e99                	sub	a3,a3,a4
    3816:	c711                	beqz	a4,3822 <__divsf3+0x246>
    3818:	466d                	li	a2,27
    381a:	4701                	li	a4,0
    381c:	4781                	li	a5,0
    381e:	e6d64be3          	blt	a2,a3,3694 <__divsf3+0xb8>
    3822:	09ea0a13          	addi	s4,s4,158
    3826:	014a9a33          	sll	s4,s5,s4
    382a:	00dad7b3          	srl	a5,s5,a3
    382e:	01403ab3          	snez	s5,s4
    3832:	0157e7b3          	or	a5,a5,s5
    3836:	0077f713          	andi	a4,a5,7
    383a:	c719                	beqz	a4,3848 <__divsf3+0x26c>
    383c:	00f7f713          	andi	a4,a5,15
    3840:	4691                	li	a3,4
    3842:	00d70363          	beq	a4,a3,3848 <__divsf3+0x26c>
    3846:	0791                	addi	a5,a5,4
    3848:	00579713          	slli	a4,a5,0x5
    384c:	02074863          	bltz	a4,387c <__divsf3+0x2a0>
    3850:	079a                	slli	a5,a5,0x6
    3852:	83a5                	srli	a5,a5,0x9
    3854:	4701                	li	a4,0
    3856:	bd3d                	j	3694 <__divsf3+0xb8>
    3858:	001ad693          	srli	a3,s5,0x1
    385c:	02f6d5b3          	divu	a1,a3,a5
    3860:	01fa9713          	slli	a4,s5,0x1f
    3864:	8341                	srli	a4,a4,0x10
    3866:	02c58833          	mul	a6,a1,a2
    386a:	b7b1                	j	37b6 <__divsf3+0x1da>
    386c:	8bce                	mv	s7,s3
    386e:	8b36                	mv	s6,a3
    3870:	4a81                	li	s5,0
    3872:	bda1                	j	36ca <__divsf3+0xee>
    3874:	86ba                	mv	a3,a4
    3876:	b761                	j	37fe <__divsf3+0x222>
    3878:	85b6                	mv	a1,a3
    387a:	bfa9                	j	37d4 <__divsf3+0x1f8>
    387c:	4705                	li	a4,1
    387e:	4781                	li	a5,0
    3880:	bd11                	j	3694 <__divsf3+0xb8>
    3882:	001bf913          	andi	s2,s7,1
    3886:	0ff00713          	li	a4,255
    388a:	4781                	li	a5,0
    388c:	b521                	j	3694 <__divsf3+0xb8>

0000388e <__mulsf3>:
__mulsf3():
    388e:	7179                	addi	sp,sp,-48
    3890:	d422                	sw	s0,40(sp)
    3892:	01755413          	srli	s0,a0,0x17
    3896:	ce4e                	sw	s3,28(sp)
    3898:	cc52                	sw	s4,24(sp)
    389a:	00951993          	slli	s3,a0,0x9
    389e:	d606                	sw	ra,44(sp)
    38a0:	d226                	sw	s1,36(sp)
    38a2:	d04a                	sw	s2,32(sp)
    38a4:	ca56                	sw	s5,20(sp)
    38a6:	c85a                	sw	s6,16(sp)
    38a8:	0ff47413          	andi	s0,s0,255
    38ac:	0099d993          	srli	s3,s3,0x9
    38b0:	01f55a13          	srli	s4,a0,0x1f
    38b4:	c469                	beqz	s0,397e <__mulsf3+0xf0>
    38b6:	0ff00793          	li	a5,255
    38ba:	0ef40863          	beq	s0,a5,39aa <__mulsf3+0x11c>
    38be:	00399793          	slli	a5,s3,0x3
    38c2:	04000737          	lui	a4,0x4000
    38c6:	00e7e9b3          	or	s3,a5,a4
    38ca:	f8140413          	addi	s0,s0,-127 # 7ff81 <_data_lma+0x7a2f5>
    38ce:	4481                	li	s1,0
    38d0:	4b01                	li	s6,0
    38d2:	0175d713          	srli	a4,a1,0x17
    38d6:	00959a93          	slli	s5,a1,0x9
    38da:	0ff77713          	andi	a4,a4,255
    38de:	009ada93          	srli	s5,s5,0x9
    38e2:	01f5d913          	srli	s2,a1,0x1f
    38e6:	cf45                	beqz	a4,399e <__mulsf3+0x110>
    38e8:	0ff00793          	li	a5,255
    38ec:	02f70c63          	beq	a4,a5,3924 <__mulsf3+0x96>
    38f0:	0a8e                	slli	s5,s5,0x3
    38f2:	f8170713          	addi	a4,a4,-127 # 3ffff81 <_data_lma+0x3ffa2f5>
    38f6:	040007b7          	lui	a5,0x4000
    38fa:	00faeab3          	or	s5,s5,a5
    38fe:	943a                	add	s0,s0,a4
    3900:	4601                	li	a2,0
    3902:	012a4533          	xor	a0,s4,s2
    3906:	47bd                	li	a5,15
    3908:	86aa                	mv	a3,a0
    390a:	00140593          	addi	a1,s0,1
    390e:	1097e263          	bltu	a5,s1,3a12 <__mulsf3+0x184>
    3912:	00002717          	auipc	a4,0x2
    3916:	15e70713          	addi	a4,a4,350 # 5a70 <UARTN+0xe0>
    391a:	048a                	slli	s1,s1,0x2
    391c:	94ba                	add	s1,s1,a4
    391e:	409c                	lw	a5,0(s1)
    3920:	97ba                	add	a5,a5,a4
    3922:	8782                	jr	a5
    3924:	0ff40413          	addi	s0,s0,255
    3928:	0c0a9863          	bnez	s5,39f8 <__mulsf3+0x16a>
    392c:	0024e493          	ori	s1,s1,2
    3930:	4609                	li	a2,2
    3932:	bfc1                	j	3902 <__mulsf3+0x74>
    3934:	4501                	li	a0,0
    3936:	0ff00713          	li	a4,255
    393a:	004007b7          	lui	a5,0x400
    393e:	50b2                	lw	ra,44(sp)
    3940:	5422                	lw	s0,40(sp)
    3942:	07a6                	slli	a5,a5,0x9
    3944:	075e                	slli	a4,a4,0x17
    3946:	83a5                	srli	a5,a5,0x9
    3948:	057e                	slli	a0,a0,0x1f
    394a:	8fd9                	or	a5,a5,a4
    394c:	5492                	lw	s1,36(sp)
    394e:	5902                	lw	s2,32(sp)
    3950:	49f2                	lw	s3,28(sp)
    3952:	4a62                	lw	s4,24(sp)
    3954:	4ad2                	lw	s5,20(sp)
    3956:	4b42                	lw	s6,16(sp)
    3958:	8d5d                	or	a0,a0,a5
    395a:	6145                	addi	sp,sp,48
    395c:	8082                	ret
    395e:	86ca                	mv	a3,s2
    3960:	89d6                	mv	s3,s5
    3962:	8b32                	mv	s6,a2
    3964:	4789                	li	a5,2
    3966:	0afb0163          	beq	s6,a5,3a08 <__mulsf3+0x17a>
    396a:	478d                	li	a5,3
    396c:	fcfb04e3          	beq	s6,a5,3934 <__mulsf3+0xa6>
    3970:	4785                	li	a5,1
    3972:	8536                	mv	a0,a3
    3974:	1afb1263          	bne	s6,a5,3b18 <__mulsf3+0x28a>
    3978:	4701                	li	a4,0
    397a:	4781                	li	a5,0
    397c:	b7c9                	j	393e <__mulsf3+0xb0>
    397e:	04099e63          	bnez	s3,39da <__mulsf3+0x14c>
    3982:	0175d713          	srli	a4,a1,0x17
    3986:	00959a93          	slli	s5,a1,0x9
    398a:	0ff77713          	andi	a4,a4,255
    398e:	4491                	li	s1,4
    3990:	4401                	li	s0,0
    3992:	4b05                	li	s6,1
    3994:	009ada93          	srli	s5,s5,0x9
    3998:	01f5d913          	srli	s2,a1,0x1f
    399c:	f731                	bnez	a4,38e8 <__mulsf3+0x5a>
    399e:	000a9d63          	bnez	s5,39b8 <__mulsf3+0x12a>
    39a2:	0014e493          	ori	s1,s1,1
    39a6:	4605                	li	a2,1
    39a8:	bfa9                	j	3902 <__mulsf3+0x74>
    39aa:	02099363          	bnez	s3,39d0 <__mulsf3+0x142>
    39ae:	44a1                	li	s1,8
    39b0:	0ff00413          	li	s0,255
    39b4:	4b09                	li	s6,2
    39b6:	bf31                	j	38d2 <__mulsf3+0x44>
    39b8:	8556                	mv	a0,s5
    39ba:	02b000ef          	jal	ra,41e4 <__clzsi2>
    39be:	ffb50793          	addi	a5,a0,-5
    39c2:	8c09                	sub	s0,s0,a0
    39c4:	00fa9ab3          	sll	s5,s5,a5
    39c8:	f8a40413          	addi	s0,s0,-118
    39cc:	4601                	li	a2,0
    39ce:	bf15                	j	3902 <__mulsf3+0x74>
    39d0:	44b1                	li	s1,12
    39d2:	0ff00413          	li	s0,255
    39d6:	4b0d                	li	s6,3
    39d8:	bded                	j	38d2 <__mulsf3+0x44>
    39da:	854e                	mv	a0,s3
    39dc:	c62e                	sw	a1,12(sp)
    39de:	007000ef          	jal	ra,41e4 <__clzsi2>
    39e2:	ffb50793          	addi	a5,a0,-5
    39e6:	f8a00413          	li	s0,-118
    39ea:	00f999b3          	sll	s3,s3,a5
    39ee:	8c09                	sub	s0,s0,a0
    39f0:	4481                	li	s1,0
    39f2:	4b01                	li	s6,0
    39f4:	45b2                	lw	a1,12(sp)
    39f6:	bdf1                	j	38d2 <__mulsf3+0x44>
    39f8:	0034e493          	ori	s1,s1,3
    39fc:	460d                	li	a2,3
    39fe:	b711                	j	3902 <__mulsf3+0x74>
    3a00:	4789                	li	a5,2
    3a02:	86d2                	mv	a3,s4
    3a04:	f6fb13e3          	bne	s6,a5,396a <__mulsf3+0xdc>
    3a08:	8536                	mv	a0,a3
    3a0a:	0ff00713          	li	a4,255
    3a0e:	4781                	li	a5,0
    3a10:	b73d                	j	393e <__mulsf3+0xb0>
    3a12:	6341                	lui	t1,0x10
    3a14:	fff30693          	addi	a3,t1,-1 # ffff <_data_lma+0xa373>
    3a18:	0109d613          	srli	a2,s3,0x10
    3a1c:	010ad893          	srli	a7,s5,0x10
    3a20:	00d9f7b3          	and	a5,s3,a3
    3a24:	00dafab3          	and	s5,s5,a3
    3a28:	03578833          	mul	a6,a5,s5
    3a2c:	02f889b3          	mul	s3,a7,a5
    3a30:	01085713          	srli	a4,a6,0x10
    3a34:	03560ab3          	mul	s5,a2,s5
    3a38:	99d6                	add	s3,s3,s5
    3a3a:	974e                	add	a4,a4,s3
    3a3c:	03160633          	mul	a2,a2,a7
    3a40:	01577363          	bgeu	a4,s5,3a46 <__mulsf3+0x1b8>
    3a44:	961a                	add	a2,a2,t1
    3a46:	67c1                	lui	a5,0x10
    3a48:	17fd                	addi	a5,a5,-1
    3a4a:	00f776b3          	and	a3,a4,a5
    3a4e:	00f87833          	and	a6,a6,a5
    3a52:	06c2                	slli	a3,a3,0x10
    3a54:	96c2                	add	a3,a3,a6
    3a56:	00669993          	slli	s3,a3,0x6
    3a5a:	01075793          	srli	a5,a4,0x10
    3a5e:	013039b3          	snez	s3,s3
    3a62:	82e9                	srli	a3,a3,0x1a
    3a64:	97b2                	add	a5,a5,a2
    3a66:	079a                	slli	a5,a5,0x6
    3a68:	00d9e6b3          	or	a3,s3,a3
    3a6c:	00d7e9b3          	or	s3,a5,a3
    3a70:	00499793          	slli	a5,s3,0x4
    3a74:	0007d963          	bgez	a5,3a86 <__mulsf3+0x1f8>
    3a78:	0019d713          	srli	a4,s3,0x1
    3a7c:	0019f793          	andi	a5,s3,1
    3a80:	00f769b3          	or	s3,a4,a5
    3a84:	842e                	mv	s0,a1
    3a86:	07f40713          	addi	a4,s0,127
    3a8a:	04e05063          	blez	a4,3aca <__mulsf3+0x23c>
    3a8e:	0079f793          	andi	a5,s3,7
    3a92:	c799                	beqz	a5,3aa0 <__mulsf3+0x212>
    3a94:	00f9f793          	andi	a5,s3,15
    3a98:	4691                	li	a3,4
    3a9a:	00d78363          	beq	a5,a3,3aa0 <__mulsf3+0x212>
    3a9e:	0991                	addi	s3,s3,4
    3aa0:	00499793          	slli	a5,s3,0x4
    3aa4:	0007d963          	bgez	a5,3ab6 <__mulsf3+0x228>
    3aa8:	f80007b7          	lui	a5,0xf8000
    3aac:	17fd                	addi	a5,a5,-1
    3aae:	00f9f9b3          	and	s3,s3,a5
    3ab2:	08040713          	addi	a4,s0,128
    3ab6:	0fe00793          	li	a5,254
    3aba:	04e7cb63          	blt	a5,a4,3b10 <__mulsf3+0x282>
    3abe:	00699793          	slli	a5,s3,0x6
    3ac2:	83a5                	srli	a5,a5,0x9
    3ac4:	0ff77713          	andi	a4,a4,255
    3ac8:	bd9d                	j	393e <__mulsf3+0xb0>
    3aca:	4785                	li	a5,1
    3acc:	40e786b3          	sub	a3,a5,a4
    3ad0:	c711                	beqz	a4,3adc <__mulsf3+0x24e>
    3ad2:	466d                	li	a2,27
    3ad4:	4701                	li	a4,0
    3ad6:	4781                	li	a5,0
    3ad8:	e6d643e3          	blt	a2,a3,393e <__mulsf3+0xb0>
    3adc:	09e40713          	addi	a4,s0,158
    3ae0:	00e99733          	sll	a4,s3,a4
    3ae4:	00e03733          	snez	a4,a4
    3ae8:	00d9d7b3          	srl	a5,s3,a3
    3aec:	8fd9                	or	a5,a5,a4
    3aee:	0077f713          	andi	a4,a5,7
    3af2:	c719                	beqz	a4,3b00 <__mulsf3+0x272>
    3af4:	00f7f713          	andi	a4,a5,15
    3af8:	4691                	li	a3,4
    3afa:	00d70363          	beq	a4,a3,3b00 <__mulsf3+0x272>
    3afe:	0791                	addi	a5,a5,4
    3b00:	00579713          	slli	a4,a5,0x5
    3b04:	00074c63          	bltz	a4,3b1c <__mulsf3+0x28e>
    3b08:	079a                	slli	a5,a5,0x6
    3b0a:	83a5                	srli	a5,a5,0x9
    3b0c:	4701                	li	a4,0
    3b0e:	bd05                	j	393e <__mulsf3+0xb0>
    3b10:	0ff00713          	li	a4,255
    3b14:	4781                	li	a5,0
    3b16:	b525                	j	393e <__mulsf3+0xb0>
    3b18:	842e                	mv	s0,a1
    3b1a:	b7b5                	j	3a86 <__mulsf3+0x1f8>
    3b1c:	4705                	li	a4,1
    3b1e:	4781                	li	a5,0
    3b20:	bd39                	j	393e <__mulsf3+0xb0>

00003b22 <__subsf3>:
__subsf3():
    3b22:	00800737          	lui	a4,0x800
    3b26:	1141                	addi	sp,sp,-16
    3b28:	177d                	addi	a4,a4,-1
    3b2a:	01755693          	srli	a3,a0,0x17
    3b2e:	0175d813          	srli	a6,a1,0x17
    3b32:	00a777b3          	and	a5,a4,a0
    3b36:	0ff6f693          	andi	a3,a3,255
    3b3a:	01f55e93          	srli	t4,a0,0x1f
    3b3e:	00b77633          	and	a2,a4,a1
    3b42:	c226                	sw	s1,4(sp)
    3b44:	c04a                	sw	s2,0(sp)
    3b46:	0ff87813          	andi	a6,a6,255
    3b4a:	c606                	sw	ra,12(sp)
    3b4c:	c422                	sw	s0,8(sp)
    3b4e:	0ff00313          	li	t1,255
    3b52:	8e3e                	mv	t3,a5
    3b54:	8936                	mv	s2,a3
    3b56:	84f6                	mv	s1,t4
    3b58:	00379f13          	slli	t5,a5,0x3
    3b5c:	81fd                	srli	a1,a1,0x1f
    3b5e:	00361513          	slli	a0,a2,0x3
    3b62:	410688b3          	sub	a7,a3,a6
    3b66:	10680263          	beq	a6,t1,3c6a <__subsf3+0x148>
    3b6a:	0015c593          	xori	a1,a1,1
    3b6e:	10be8c63          	beq	t4,a1,3c86 <__subsf3+0x164>
    3b72:	0d105463          	blez	a7,3c3a <__subsf3+0x118>
    3b76:	10081063          	bnez	a6,3c76 <__subsf3+0x154>
    3b7a:	1e050463          	beqz	a0,3d62 <__subsf3+0x240>
    3b7e:	18fd                	addi	a7,a7,-1
    3b80:	40af07b3          	sub	a5,t5,a0
    3b84:	02088663          	beqz	a7,3bb0 <__subsf3+0x8e>
    3b88:	0ff00793          	li	a5,255
    3b8c:	16f68863          	beq	a3,a5,3cfc <__subsf3+0x1da>
    3b90:	47ed                	li	a5,27
    3b92:	2917c763          	blt	a5,a7,3e20 <__subsf3+0x2fe>
    3b96:	02000713          	li	a4,32
    3b9a:	41170733          	sub	a4,a4,a7
    3b9e:	00e51733          	sll	a4,a0,a4
    3ba2:	011557b3          	srl	a5,a0,a7
    3ba6:	00e03733          	snez	a4,a4
    3baa:	8fd9                	or	a5,a5,a4
    3bac:	40ff07b3          	sub	a5,t5,a5
    3bb0:	00579713          	slli	a4,a5,0x5
    3bb4:	1a075163          	bgez	a4,3d56 <__subsf3+0x234>
    3bb8:	04000437          	lui	s0,0x4000
    3bbc:	147d                	addi	s0,s0,-1
    3bbe:	8c7d                	and	s0,s0,a5
    3bc0:	8522                	mv	a0,s0
    3bc2:	250d                	jal	41e4 <__clzsi2>
    3bc4:	156d                	addi	a0,a0,-5
    3bc6:	00a417b3          	sll	a5,s0,a0
    3bca:	1b254e63          	blt	a0,s2,3d86 <__subsf3+0x264>
    3bce:	41250533          	sub	a0,a0,s2
    3bd2:	00150413          	addi	s0,a0,1
    3bd6:	02000713          	li	a4,32
    3bda:	8f01                	sub	a4,a4,s0
    3bdc:	00e79733          	sll	a4,a5,a4
    3be0:	00e03733          	snez	a4,a4
    3be4:	0087d7b3          	srl	a5,a5,s0
    3be8:	8fd9                	or	a5,a5,a4
    3bea:	4901                	li	s2,0
    3bec:	0077f713          	andi	a4,a5,7
    3bf0:	c719                	beqz	a4,3bfe <__subsf3+0xdc>
    3bf2:	00f7f713          	andi	a4,a5,15
    3bf6:	4691                	li	a3,4
    3bf8:	00d70363          	beq	a4,a3,3bfe <__subsf3+0xdc>
    3bfc:	0791                	addi	a5,a5,4
    3bfe:	00579713          	slli	a4,a5,0x5
    3c02:	14075e63          	bgez	a4,3d5e <__subsf3+0x23c>
    3c06:	00190693          	addi	a3,s2,1 # 800001 <_data_lma+0x7fa375>
    3c0a:	0ff00713          	li	a4,255
    3c0e:	0014fe93          	andi	t4,s1,1
    3c12:	16e68663          	beq	a3,a4,3d7e <__subsf3+0x25c>
    3c16:	079a                	slli	a5,a5,0x6
    3c18:	83a5                	srli	a5,a5,0x9
    3c1a:	0ff6f693          	andi	a3,a3,255
    3c1e:	07a6                	slli	a5,a5,0x9
    3c20:	40b2                	lw	ra,12(sp)
    3c22:	4422                	lw	s0,8(sp)
    3c24:	0097d513          	srli	a0,a5,0x9
    3c28:	06de                	slli	a3,a3,0x17
    3c2a:	01fe9793          	slli	a5,t4,0x1f
    3c2e:	8d55                	or	a0,a0,a3
    3c30:	4492                	lw	s1,4(sp)
    3c32:	4902                	lw	s2,0(sp)
    3c34:	8d5d                	or	a0,a0,a5
    3c36:	0141                	addi	sp,sp,16
    3c38:	8082                	ret
    3c3a:	0a089263          	bnez	a7,3cde <__subsf3+0x1bc>
    3c3e:	00168713          	addi	a4,a3,1
    3c42:	0fe77713          	andi	a4,a4,254
    3c46:	14071b63          	bnez	a4,3d9c <__subsf3+0x27a>
    3c4a:	22069463          	bnez	a3,3e72 <__subsf3+0x350>
    3c4e:	200f0263          	beqz	t5,3e52 <__subsf3+0x330>
    3c52:	d571                	beqz	a0,3c1e <__subsf3+0xfc>
    3c54:	40af07b3          	sub	a5,t5,a0
    3c58:	00579713          	slli	a4,a5,0x5
    3c5c:	22075563          	bgez	a4,3e86 <__subsf3+0x364>
    3c60:	41e507b3          	sub	a5,a0,t5
    3c64:	4901                	li	s2,0
    3c66:	84ae                	mv	s1,a1
    3c68:	b751                	j	3bec <__subsf3+0xca>
    3c6a:	f00500e3          	beqz	a0,3b6a <__subsf3+0x48>
    3c6e:	0abe8a63          	beq	t4,a1,3d22 <__subsf3+0x200>
    3c72:	fd1054e3          	blez	a7,3c3a <__subsf3+0x118>
    3c76:	0ff00793          	li	a5,255
    3c7a:	08f68163          	beq	a3,a5,3cfc <__subsf3+0x1da>
    3c7e:	040007b7          	lui	a5,0x4000
    3c82:	8d5d                	or	a0,a0,a5
    3c84:	b731                	j	3b90 <__subsf3+0x6e>
    3c86:	09105e63          	blez	a7,3d22 <__subsf3+0x200>
    3c8a:	08080163          	beqz	a6,3d0c <__subsf3+0x1ea>
    3c8e:	0ff00793          	li	a5,255
    3c92:	06f68563          	beq	a3,a5,3cfc <__subsf3+0x1da>
    3c96:	040007b7          	lui	a5,0x4000
    3c9a:	8d5d                	or	a0,a0,a5
    3c9c:	47ed                	li	a5,27
    3c9e:	1f17c063          	blt	a5,a7,3e7e <__subsf3+0x35c>
    3ca2:	02000713          	li	a4,32
    3ca6:	41170733          	sub	a4,a4,a7
    3caa:	00e51733          	sll	a4,a0,a4
    3cae:	011557b3          	srl	a5,a0,a7
    3cb2:	00e03733          	snez	a4,a4
    3cb6:	8fd9                	or	a5,a5,a4
    3cb8:	97fa                	add	a5,a5,t5
    3cba:	00579713          	slli	a4,a5,0x5
    3cbe:	08075c63          	bgez	a4,3d56 <__subsf3+0x234>
    3cc2:	0905                	addi	s2,s2,1
    3cc4:	0ff00713          	li	a4,255
    3cc8:	0ae90b63          	beq	s2,a4,3d7e <__subsf3+0x25c>
    3ccc:	7e0006b7          	lui	a3,0x7e000
    3cd0:	0017d713          	srli	a4,a5,0x1
    3cd4:	16fd                	addi	a3,a3,-1
    3cd6:	8b85                	andi	a5,a5,1
    3cd8:	8f75                	and	a4,a4,a3
    3cda:	8fd9                	or	a5,a5,a4
    3cdc:	bf01                	j	3bec <__subsf3+0xca>
    3cde:	40d80733          	sub	a4,a6,a3
    3ce2:	10069563          	bnez	a3,3dec <__subsf3+0x2ca>
    3ce6:	140f0d63          	beqz	t5,3e40 <__subsf3+0x31e>
    3cea:	177d                	addi	a4,a4,-1
    3cec:	1a070363          	beqz	a4,3e92 <__subsf3+0x370>
    3cf0:	0ff00793          	li	a5,255
    3cf4:	10f81463          	bne	a6,a5,3dfc <__subsf3+0x2da>
    3cf8:	84ae                	mv	s1,a1
    3cfa:	8e32                	mv	t3,a2
    3cfc:	060e0f63          	beqz	t3,3d7a <__subsf3+0x258>
    3d00:	4e81                	li	t4,0
    3d02:	0ff00693          	li	a3,255
    3d06:	004007b7          	lui	a5,0x400
    3d0a:	bf11                	j	3c1e <__subsf3+0xfc>
    3d0c:	c939                	beqz	a0,3d62 <__subsf3+0x240>
    3d0e:	18fd                	addi	a7,a7,-1
    3d10:	00af07b3          	add	a5,t5,a0
    3d14:	fa0883e3          	beqz	a7,3cba <__subsf3+0x198>
    3d18:	0ff00793          	li	a5,255
    3d1c:	f8f690e3          	bne	a3,a5,3c9c <__subsf3+0x17a>
    3d20:	bff1                	j	3cfc <__subsf3+0x1da>
    3d22:	08089963          	bnez	a7,3db4 <__subsf3+0x292>
    3d26:	00168913          	addi	s2,a3,1 # 7e000001 <_eusrstack+0x5dffb001>
    3d2a:	0fe97713          	andi	a4,s2,254
    3d2e:	12071663          	bnez	a4,3e5a <__subsf3+0x338>
    3d32:	10069b63          	bnez	a3,3e48 <__subsf3+0x326>
    3d36:	160f0363          	beqz	t5,3e9c <__subsf3+0x37a>
    3d3a:	ee0502e3          	beqz	a0,3c1e <__subsf3+0xfc>
    3d3e:	00af07b3          	add	a5,t5,a0
    3d42:	00579713          	slli	a4,a5,0x5
    3d46:	4901                	li	s2,0
    3d48:	00075763          	bgez	a4,3d56 <__subsf3+0x234>
    3d4c:	fc000737          	lui	a4,0xfc000
    3d50:	177d                	addi	a4,a4,-1
    3d52:	8ff9                	and	a5,a5,a4
    3d54:	4905                	li	s2,1
    3d56:	0077f713          	andi	a4,a5,7
    3d5a:	e8071ce3          	bnez	a4,3bf2 <__subsf3+0xd0>
    3d5e:	0037de13          	srli	t3,a5,0x3
    3d62:	0ff00793          	li	a5,255
    3d66:	f8f90be3          	beq	s2,a5,3cfc <__subsf3+0x1da>
    3d6a:	009e1793          	slli	a5,t3,0x9
    3d6e:	83a5                	srli	a5,a5,0x9
    3d70:	0ff97693          	andi	a3,s2,255
    3d74:	0014fe93          	andi	t4,s1,1
    3d78:	b55d                	j	3c1e <__subsf3+0xfc>
    3d7a:	0014fe93          	andi	t4,s1,1
    3d7e:	0ff00693          	li	a3,255
    3d82:	4781                	li	a5,0
    3d84:	bd69                	j	3c1e <__subsf3+0xfc>
    3d86:	fc000737          	lui	a4,0xfc000
    3d8a:	177d                	addi	a4,a4,-1
    3d8c:	8ff9                	and	a5,a5,a4
    3d8e:	0077f713          	andi	a4,a5,7
    3d92:	40a90933          	sub	s2,s2,a0
    3d96:	e4071ee3          	bnez	a4,3bf2 <__subsf3+0xd0>
    3d9a:	b7d1                	j	3d5e <__subsf3+0x23c>
    3d9c:	40af0433          	sub	s0,t5,a0
    3da0:	00541793          	slli	a5,s0,0x5
    3da4:	0c07c363          	bltz	a5,3e6a <__subsf3+0x348>
    3da8:	e0041ce3          	bnez	s0,3bc0 <__subsf3+0x9e>
    3dac:	4e81                	li	t4,0
    3dae:	4681                	li	a3,0
    3db0:	4781                	li	a5,0
    3db2:	b5b5                	j	3c1e <__subsf3+0xfc>
    3db4:	40d80733          	sub	a4,a6,a3
    3db8:	c6b5                	beqz	a3,3e24 <__subsf3+0x302>
    3dba:	0ff00793          	li	a5,255
    3dbe:	f2f80ee3          	beq	a6,a5,3cfa <__subsf3+0x1d8>
    3dc2:	040007b7          	lui	a5,0x4000
    3dc6:	00ff6f33          	or	t5,t5,a5
    3dca:	47ed                	li	a5,27
    3dcc:	0ce7cd63          	blt	a5,a4,3ea6 <__subsf3+0x384>
    3dd0:	02000793          	li	a5,32
    3dd4:	8f99                	sub	a5,a5,a4
    3dd6:	00ff17b3          	sll	a5,t5,a5
    3dda:	00ef5733          	srl	a4,t5,a4
    3dde:	00f037b3          	snez	a5,a5
    3de2:	8f5d                	or	a4,a4,a5
    3de4:	00a707b3          	add	a5,a4,a0
    3de8:	8942                	mv	s2,a6
    3dea:	bdc1                	j	3cba <__subsf3+0x198>
    3dec:	0ff00793          	li	a5,255
    3df0:	f0f804e3          	beq	a6,a5,3cf8 <__subsf3+0x1d6>
    3df4:	040007b7          	lui	a5,0x4000
    3df8:	00ff6f33          	or	t5,t5,a5
    3dfc:	47ed                	li	a5,27
    3dfe:	08e7c263          	blt	a5,a4,3e82 <__subsf3+0x360>
    3e02:	02000793          	li	a5,32
    3e06:	8f99                	sub	a5,a5,a4
    3e08:	00ff17b3          	sll	a5,t5,a5
    3e0c:	00ef5733          	srl	a4,t5,a4
    3e10:	00f037b3          	snez	a5,a5
    3e14:	8fd9                	or	a5,a5,a4
    3e16:	40f507b3          	sub	a5,a0,a5
    3e1a:	8942                	mv	s2,a6
    3e1c:	84ae                	mv	s1,a1
    3e1e:	bb49                	j	3bb0 <__subsf3+0x8e>
    3e20:	4785                	li	a5,1
    3e22:	b369                	j	3bac <__subsf3+0x8a>
    3e24:	060f0e63          	beqz	t5,3ea0 <__subsf3+0x37e>
    3e28:	177d                	addi	a4,a4,-1
    3e2a:	00af07b3          	add	a5,t5,a0
    3e2e:	8942                	mv	s2,a6
    3e30:	e80705e3          	beqz	a4,3cba <__subsf3+0x198>
    3e34:	0ff00793          	li	a5,255
    3e38:	f8f819e3          	bne	a6,a5,3dca <__subsf3+0x2a8>
    3e3c:	8e32                	mv	t3,a2
    3e3e:	bd7d                	j	3cfc <__subsf3+0x1da>
    3e40:	8e32                	mv	t3,a2
    3e42:	8942                	mv	s2,a6
    3e44:	84ae                	mv	s1,a1
    3e46:	bf31                	j	3d62 <__subsf3+0x240>
    3e48:	ea0f09e3          	beqz	t5,3cfa <__subsf3+0x1d8>
    3e4c:	ea0508e3          	beqz	a0,3cfc <__subsf3+0x1da>
    3e50:	bd45                	j	3d00 <__subsf3+0x1de>
    3e52:	cd0d                	beqz	a0,3e8c <__subsf3+0x36a>
    3e54:	8eae                	mv	t4,a1
    3e56:	87b2                	mv	a5,a2
    3e58:	b3d9                	j	3c1e <__subsf3+0xfc>
    3e5a:	0ff00793          	li	a5,255
    3e5e:	f2f900e3          	beq	s2,a5,3d7e <__subsf3+0x25c>
    3e62:	00af07b3          	add	a5,t5,a0
    3e66:	8385                	srli	a5,a5,0x1
    3e68:	b5fd                	j	3d56 <__subsf3+0x234>
    3e6a:	41e50433          	sub	s0,a0,t5
    3e6e:	84ae                	mv	s1,a1
    3e70:	bb81                	j	3bc0 <__subsf3+0x9e>
    3e72:	fc0f1de3          	bnez	t5,3e4c <__subsf3+0x32a>
    3e76:	e80505e3          	beqz	a0,3d00 <__subsf3+0x1de>
    3e7a:	84ae                	mv	s1,a1
    3e7c:	bdbd                	j	3cfa <__subsf3+0x1d8>
    3e7e:	4785                	li	a5,1
    3e80:	bd25                	j	3cb8 <__subsf3+0x196>
    3e82:	4785                	li	a5,1
    3e84:	bf49                	j	3e16 <__subsf3+0x2f4>
    3e86:	4901                	li	s2,0
    3e88:	ec0797e3          	bnez	a5,3d56 <__subsf3+0x234>
    3e8c:	4e81                	li	t4,0
    3e8e:	4781                	li	a5,0
    3e90:	b379                	j	3c1e <__subsf3+0xfc>
    3e92:	41e507b3          	sub	a5,a0,t5
    3e96:	8942                	mv	s2,a6
    3e98:	84ae                	mv	s1,a1
    3e9a:	bb19                	j	3bb0 <__subsf3+0x8e>
    3e9c:	87b2                	mv	a5,a2
    3e9e:	b341                	j	3c1e <__subsf3+0xfc>
    3ea0:	8e32                	mv	t3,a2
    3ea2:	8942                	mv	s2,a6
    3ea4:	bd7d                	j	3d62 <__subsf3+0x240>
    3ea6:	4705                	li	a4,1
    3ea8:	bf35                	j	3de4 <__subsf3+0x2c2>

00003eaa <__fixunssfsi>:
__fixunssfsi():
    3eaa:	01755713          	srli	a4,a0,0x17
    3eae:	00800637          	lui	a2,0x800
    3eb2:	fff60793          	addi	a5,a2,-1 # 7fffff <_data_lma+0x7fa373>
    3eb6:	0ff77713          	andi	a4,a4,255
    3eba:	07e00593          	li	a1,126
    3ebe:	00a7f6b3          	and	a3,a5,a0
    3ec2:	01f55793          	srli	a5,a0,0x1f
    3ec6:	4501                	li	a0,0
    3ec8:	00e5f463          	bgeu	a1,a4,3ed0 <__fixunssfsi+0x26>
    3ecc:	c399                	beqz	a5,3ed2 <__fixunssfsi+0x28>
    3ece:	8082                	ret
    3ed0:	8082                	ret
    3ed2:	09e00793          	li	a5,158
    3ed6:	557d                	li	a0,-1
    3ed8:	fee7ebe3          	bltu	a5,a4,3ece <__fixunssfsi+0x24>
    3edc:	09500593          	li	a1,149
    3ee0:	00c6e7b3          	or	a5,a3,a2
    3ee4:	00e5d763          	bge	a1,a4,3ef2 <__fixunssfsi+0x48>
    3ee8:	f6a70713          	addi	a4,a4,-150 # fbffff6a <_eusrstack+0xdbffaf6a>
    3eec:	00e79533          	sll	a0,a5,a4
    3ef0:	8082                	ret
    3ef2:	09600513          	li	a0,150
    3ef6:	40e50733          	sub	a4,a0,a4
    3efa:	00e7d533          	srl	a0,a5,a4
    3efe:	8082                	ret

00003f00 <__floatunsisf>:
__floatunsisf():
    3f00:	1141                	addi	sp,sp,-16
    3f02:	c606                	sw	ra,12(sp)
    3f04:	c422                	sw	s0,8(sp)
    3f06:	cd15                	beqz	a0,3f42 <__floatunsisf+0x42>
    3f08:	842a                	mv	s0,a0
    3f0a:	2ce9                	jal	41e4 <__clzsi2>
    3f0c:	09e00793          	li	a5,158
    3f10:	40a78733          	sub	a4,a5,a0
    3f14:	09600793          	li	a5,150
    3f18:	04e7c063          	blt	a5,a4,3f58 <__floatunsisf+0x58>
    3f1c:	46a1                	li	a3,8
    3f1e:	0ff77793          	andi	a5,a4,255
    3f22:	00a6d563          	bge	a3,a0,3f2c <__floatunsisf+0x2c>
    3f26:	1561                	addi	a0,a0,-8
    3f28:	00a41433          	sll	s0,s0,a0
    3f2c:	0426                	slli	s0,s0,0x9
    3f2e:	8025                	srli	s0,s0,0x9
    3f30:	0426                	slli	s0,s0,0x9
    3f32:	00945513          	srli	a0,s0,0x9
    3f36:	40b2                	lw	ra,12(sp)
    3f38:	4422                	lw	s0,8(sp)
    3f3a:	07de                	slli	a5,a5,0x17
    3f3c:	8d5d                	or	a0,a0,a5
    3f3e:	0141                	addi	sp,sp,16
    3f40:	8082                	ret
    3f42:	4401                	li	s0,0
    3f44:	0426                	slli	s0,s0,0x9
    3f46:	00945513          	srli	a0,s0,0x9
    3f4a:	40b2                	lw	ra,12(sp)
    3f4c:	4422                	lw	s0,8(sp)
    3f4e:	4781                	li	a5,0
    3f50:	07de                	slli	a5,a5,0x17
    3f52:	8d5d                	or	a0,a0,a5
    3f54:	0141                	addi	sp,sp,16
    3f56:	8082                	ret
    3f58:	09900793          	li	a5,153
    3f5c:	00e7dd63          	bge	a5,a4,3f76 <__floatunsisf+0x76>
    3f60:	01b50793          	addi	a5,a0,27
    3f64:	4695                	li	a3,5
    3f66:	00f417b3          	sll	a5,s0,a5
    3f6a:	8e89                	sub	a3,a3,a0
    3f6c:	00f037b3          	snez	a5,a5
    3f70:	00d45433          	srl	s0,s0,a3
    3f74:	8c5d                	or	s0,s0,a5
    3f76:	4795                	li	a5,5
    3f78:	00a7d663          	bge	a5,a0,3f84 <__floatunsisf+0x84>
    3f7c:	ffb50793          	addi	a5,a0,-5
    3f80:	00f41433          	sll	s0,s0,a5
    3f84:	fc0006b7          	lui	a3,0xfc000
    3f88:	16fd                	addi	a3,a3,-1
    3f8a:	00747793          	andi	a5,s0,7
    3f8e:	00d47633          	and	a2,s0,a3
    3f92:	c385                	beqz	a5,3fb2 <__floatunsisf+0xb2>
    3f94:	00f47793          	andi	a5,s0,15
    3f98:	4591                	li	a1,4
    3f9a:	00b78c63          	beq	a5,a1,3fb2 <__floatunsisf+0xb2>
    3f9e:	0611                	addi	a2,a2,4
    3fa0:	00561793          	slli	a5,a2,0x5
    3fa4:	0007d763          	bgez	a5,3fb2 <__floatunsisf+0xb2>
    3fa8:	09f00793          	li	a5,159
    3fac:	8e75                	and	a2,a2,a3
    3fae:	40a78733          	sub	a4,a5,a0
    3fb2:	00661413          	slli	s0,a2,0x6
    3fb6:	8025                	srli	s0,s0,0x9
    3fb8:	0426                	slli	s0,s0,0x9
    3fba:	00945513          	srli	a0,s0,0x9
    3fbe:	40b2                	lw	ra,12(sp)
    3fc0:	4422                	lw	s0,8(sp)
    3fc2:	0ff77793          	andi	a5,a4,255
    3fc6:	07de                	slli	a5,a5,0x17
    3fc8:	8d5d                	or	a0,a0,a5
    3fca:	0141                	addi	sp,sp,16
    3fcc:	8082                	ret

00003fce <__extendsfdf2>:
__extendsfdf2():
    3fce:	01755713          	srli	a4,a0,0x17
    3fd2:	0ff77713          	andi	a4,a4,255
    3fd6:	1141                	addi	sp,sp,-16
    3fd8:	00170793          	addi	a5,a4,1
    3fdc:	c422                	sw	s0,8(sp)
    3fde:	c226                	sw	s1,4(sp)
    3fe0:	00951413          	slli	s0,a0,0x9
    3fe4:	c606                	sw	ra,12(sp)
    3fe6:	0fe7f793          	andi	a5,a5,254
    3fea:	8025                	srli	s0,s0,0x9
    3fec:	01f55493          	srli	s1,a0,0x1f
    3ff0:	c785                	beqz	a5,4018 <__extendsfdf2+0x4a>
    3ff2:	00345793          	srli	a5,s0,0x3
    3ff6:	38070713          	addi	a4,a4,896
    3ffa:	0476                	slli	s0,s0,0x1d
    3ffc:	07b2                	slli	a5,a5,0xc
    3ffe:	0752                	slli	a4,a4,0x14
    4000:	83b1                	srli	a5,a5,0xc
    4002:	01f49513          	slli	a0,s1,0x1f
    4006:	8fd9                	or	a5,a5,a4
    4008:	8fc9                	or	a5,a5,a0
    400a:	40b2                	lw	ra,12(sp)
    400c:	8522                	mv	a0,s0
    400e:	4422                	lw	s0,8(sp)
    4010:	4492                	lw	s1,4(sp)
    4012:	85be                	mv	a1,a5
    4014:	0141                	addi	sp,sp,16
    4016:	8082                	ret
    4018:	eb05                	bnez	a4,4048 <__extendsfdf2+0x7a>
    401a:	c439                	beqz	s0,4068 <__extendsfdf2+0x9a>
    401c:	8522                	mv	a0,s0
    401e:	22d9                	jal	41e4 <__clzsi2>
    4020:	47a9                	li	a5,10
    4022:	04a7c663          	blt	a5,a0,406e <__extendsfdf2+0xa0>
    4026:	472d                	li	a4,11
    4028:	8f09                	sub	a4,a4,a0
    402a:	01550793          	addi	a5,a0,21
    402e:	00e45733          	srl	a4,s0,a4
    4032:	00f41433          	sll	s0,s0,a5
    4036:	00c71793          	slli	a5,a4,0xc
    403a:	38900713          	li	a4,905
    403e:	8f09                	sub	a4,a4,a0
    4040:	83b1                	srli	a5,a5,0xc
    4042:	7ff77713          	andi	a4,a4,2047
    4046:	bf5d                	j	3ffc <__extendsfdf2+0x2e>
    4048:	cc01                	beqz	s0,4060 <__extendsfdf2+0x92>
    404a:	00345713          	srli	a4,s0,0x3
    404e:	000807b7          	lui	a5,0x80
    4052:	8fd9                	or	a5,a5,a4
    4054:	07b2                	slli	a5,a5,0xc
    4056:	0476                	slli	s0,s0,0x1d
    4058:	83b1                	srli	a5,a5,0xc
    405a:	7ff00713          	li	a4,2047
    405e:	bf79                	j	3ffc <__extendsfdf2+0x2e>
    4060:	7ff00713          	li	a4,2047
    4064:	4781                	li	a5,0
    4066:	bf59                	j	3ffc <__extendsfdf2+0x2e>
    4068:	4701                	li	a4,0
    406a:	4781                	li	a5,0
    406c:	bf41                	j	3ffc <__extendsfdf2+0x2e>
    406e:	ff550713          	addi	a4,a0,-11
    4072:	00e41733          	sll	a4,s0,a4
    4076:	4401                	li	s0,0
    4078:	bf7d                	j	4036 <__extendsfdf2+0x68>

0000407a <__truncdfsf2>:
__truncdfsf2():
    407a:	0145d693          	srli	a3,a1,0x14
    407e:	00c59793          	slli	a5,a1,0xc
    4082:	7ff6f693          	andi	a3,a3,2047
    4086:	83b1                	srli	a5,a5,0xc
    4088:	00168613          	addi	a2,a3,1 # fc000001 <_eusrstack+0xdbffb001>
    408c:	078e                	slli	a5,a5,0x3
    408e:	01d55713          	srli	a4,a0,0x1d
    4092:	7fe67613          	andi	a2,a2,2046
    4096:	81fd                	srli	a1,a1,0x1f
    4098:	8f5d                	or	a4,a4,a5
    409a:	00351893          	slli	a7,a0,0x3
    409e:	ce35                	beqz	a2,411a <__truncdfsf2+0xa0>
    40a0:	c8068813          	addi	a6,a3,-896
    40a4:	0fe00793          	li	a5,254
    40a8:	0107dd63          	bge	a5,a6,40c2 <__truncdfsf2+0x48>
    40ac:	4781                	li	a5,0
    40ae:	00979513          	slli	a0,a5,0x9
    40b2:	0ff00693          	li	a3,255
    40b6:	06de                	slli	a3,a3,0x17
    40b8:	8125                	srli	a0,a0,0x9
    40ba:	05fe                	slli	a1,a1,0x1f
    40bc:	8d55                	or	a0,a0,a3
    40be:	8d4d                	or	a0,a0,a1
    40c0:	8082                	ret
    40c2:	0b005563          	blez	a6,416c <__truncdfsf2+0xf2>
    40c6:	00651793          	slli	a5,a0,0x6
    40ca:	070e                	slli	a4,a4,0x3
    40cc:	00f037b3          	snez	a5,a5
    40d0:	8fd9                	or	a5,a5,a4
    40d2:	01d8d893          	srli	a7,a7,0x1d
    40d6:	0117e7b3          	or	a5,a5,a7
    40da:	0077f713          	andi	a4,a5,7
    40de:	10070163          	beqz	a4,41e0 <__truncdfsf2+0x166>
    40e2:	00f7f713          	andi	a4,a5,15
    40e6:	4691                	li	a3,4
    40e8:	00d70363          	beq	a4,a3,40ee <__truncdfsf2+0x74>
    40ec:	0791                	addi	a5,a5,4
    40ee:	04000737          	lui	a4,0x4000
    40f2:	8f7d                	and	a4,a4,a5
    40f4:	c775                	beqz	a4,41e0 <__truncdfsf2+0x166>
    40f6:	00180713          	addi	a4,a6,1
    40fa:	0ff00613          	li	a2,255
    40fe:	0ff77693          	andi	a3,a4,255
    4102:	fac705e3          	beq	a4,a2,40ac <__truncdfsf2+0x32>
    4106:	079a                	slli	a5,a5,0x6
    4108:	83a5                	srli	a5,a5,0x9
    410a:	00979513          	slli	a0,a5,0x9
    410e:	06de                	slli	a3,a3,0x17
    4110:	8125                	srli	a0,a0,0x9
    4112:	05fe                	slli	a1,a1,0x1f
    4114:	8d55                	or	a0,a0,a3
    4116:	8d4d                	or	a0,a0,a1
    4118:	8082                	ret
    411a:	011767b3          	or	a5,a4,a7
    411e:	ee99                	bnez	a3,413c <__truncdfsf2+0xc2>
    4120:	cf85                	beqz	a5,4158 <__truncdfsf2+0xde>
    4122:	4795                	li	a5,5
    4124:	079a                	slli	a5,a5,0x6
    4126:	83a5                	srli	a5,a5,0x9
    4128:	00979513          	slli	a0,a5,0x9
    412c:	0ff6f693          	andi	a3,a3,255
    4130:	06de                	slli	a3,a3,0x17
    4132:	8125                	srli	a0,a0,0x9
    4134:	05fe                	slli	a1,a1,0x1f
    4136:	8d55                	or	a0,a0,a3
    4138:	8d4d                	or	a0,a0,a1
    413a:	8082                	ret
    413c:	dba5                	beqz	a5,40ac <__truncdfsf2+0x32>
    413e:	004007b7          	lui	a5,0x400
    4142:	00979513          	slli	a0,a5,0x9
    4146:	0ff00693          	li	a3,255
    414a:	06de                	slli	a3,a3,0x17
    414c:	4581                	li	a1,0
    414e:	8125                	srli	a0,a0,0x9
    4150:	05fe                	slli	a1,a1,0x1f
    4152:	8d55                	or	a0,a0,a3
    4154:	8d4d                	or	a0,a0,a1
    4156:	8082                	ret
    4158:	4781                	li	a5,0
    415a:	00979513          	slli	a0,a5,0x9
    415e:	4681                	li	a3,0
    4160:	06de                	slli	a3,a3,0x17
    4162:	8125                	srli	a0,a0,0x9
    4164:	05fe                	slli	a1,a1,0x1f
    4166:	8d55                	or	a0,a0,a3
    4168:	8d4d                	or	a0,a0,a1
    416a:	8082                	ret
    416c:	57a5                	li	a5,-23
    416e:	04f84863          	blt	a6,a5,41be <__truncdfsf2+0x144>
    4172:	47f9                	li	a5,30
    4174:	00800637          	lui	a2,0x800
    4178:	410787b3          	sub	a5,a5,a6
    417c:	457d                	li	a0,31
    417e:	8e59                	or	a2,a2,a4
    4180:	04f55163          	bge	a0,a5,41c2 <__truncdfsf2+0x148>
    4184:	5779                	li	a4,-2
    4186:	41070733          	sub	a4,a4,a6
    418a:	02000513          	li	a0,32
    418e:	00e65733          	srl	a4,a2,a4
    4192:	00a78863          	beq	a5,a0,41a2 <__truncdfsf2+0x128>
    4196:	ca268693          	addi	a3,a3,-862
    419a:	00d616b3          	sll	a3,a2,a3
    419e:	00d8e8b3          	or	a7,a7,a3
    41a2:	011037b3          	snez	a5,a7
    41a6:	8fd9                	or	a5,a5,a4
    41a8:	0077f713          	andi	a4,a5,7
    41ac:	4801                	li	a6,0
    41ae:	fb15                	bnez	a4,40e2 <__truncdfsf2+0x68>
    41b0:	00579713          	slli	a4,a5,0x5
    41b4:	4685                	li	a3,1
    41b6:	f40748e3          	bltz	a4,4106 <__truncdfsf2+0x8c>
    41ba:	4681                	li	a3,0
    41bc:	b7a5                	j	4124 <__truncdfsf2+0xaa>
    41be:	4681                	li	a3,0
    41c0:	b78d                	j	4122 <__truncdfsf2+0xa8>
    41c2:	c8268693          	addi	a3,a3,-894
    41c6:	00d89733          	sll	a4,a7,a3
    41ca:	00e03733          	snez	a4,a4
    41ce:	00d616b3          	sll	a3,a2,a3
    41d2:	00f8d8b3          	srl	a7,a7,a5
    41d6:	00d767b3          	or	a5,a4,a3
    41da:	00f8e7b3          	or	a5,a7,a5
    41de:	b7e9                	j	41a8 <__truncdfsf2+0x12e>
    41e0:	86c2                	mv	a3,a6
    41e2:	b789                	j	4124 <__truncdfsf2+0xaa>

000041e4 <__clzsi2>:
__clzsi2():
    41e4:	67c1                	lui	a5,0x10
    41e6:	02f57e63          	bgeu	a0,a5,4222 <__clzsi2+0x3e>
    41ea:	0ff00793          	li	a5,255
    41ee:	02000713          	li	a4,32
    41f2:	00a7ec63          	bltu	a5,a0,420a <__clzsi2+0x26>
    41f6:	00002797          	auipc	a5,0x2
    41fa:	8ba78793          	addi	a5,a5,-1862 # 5ab0 <__clz_tab>
    41fe:	97aa                	add	a5,a5,a0
    4200:	0007c503          	lbu	a0,0(a5)
    4204:	40a70533          	sub	a0,a4,a0
    4208:	8082                	ret
    420a:	8121                	srli	a0,a0,0x8
    420c:	00002797          	auipc	a5,0x2
    4210:	8a478793          	addi	a5,a5,-1884 # 5ab0 <__clz_tab>
    4214:	97aa                	add	a5,a5,a0
    4216:	0007c503          	lbu	a0,0(a5)
    421a:	4761                	li	a4,24
    421c:	40a70533          	sub	a0,a4,a0
    4220:	8082                	ret
    4222:	010007b7          	lui	a5,0x1000
    4226:	00f56e63          	bltu	a0,a5,4242 <__clzsi2+0x5e>
    422a:	8161                	srli	a0,a0,0x18
    422c:	00002797          	auipc	a5,0x2
    4230:	88478793          	addi	a5,a5,-1916 # 5ab0 <__clz_tab>
    4234:	97aa                	add	a5,a5,a0
    4236:	0007c503          	lbu	a0,0(a5)
    423a:	4721                	li	a4,8
    423c:	40a70533          	sub	a0,a4,a0
    4240:	8082                	ret
    4242:	8141                	srli	a0,a0,0x10
    4244:	00002797          	auipc	a5,0x2
    4248:	86c78793          	addi	a5,a5,-1940 # 5ab0 <__clz_tab>
    424c:	97aa                	add	a5,a5,a0
    424e:	0007c503          	lbu	a0,0(a5)
    4252:	4741                	li	a4,16
    4254:	40a70533          	sub	a0,a4,a0
    4258:	8082                	ret

0000425a <__assert_func>:
__assert_func():
    425a:	1fffc797          	auipc	a5,0x1fffc
    425e:	e1a78793          	addi	a5,a5,-486 # 20000074 <_impure_ptr>
    4262:	439c                	lw	a5,0(a5)
    4264:	1141                	addi	sp,sp,-16
    4266:	8832                	mv	a6,a2
    4268:	c606                	sw	ra,12(sp)
    426a:	88aa                	mv	a7,a0
    426c:	872e                	mv	a4,a1
    426e:	47c8                	lw	a0,12(a5)
    4270:	8636                	mv	a2,a3
    4272:	00002797          	auipc	a5,0x2
    4276:	93e78793          	addi	a5,a5,-1730 # 5bb0 <__clz_tab+0x100>
    427a:	00081763          	bnez	a6,4288 <__assert_func+0x2e>
    427e:	00002797          	auipc	a5,0x2
    4282:	93e78793          	addi	a5,a5,-1730 # 5bbc <__clz_tab+0x10c>
    4286:	883e                	mv	a6,a5
    4288:	86c6                	mv	a3,a7
    428a:	00002597          	auipc	a1,0x2
    428e:	93658593          	addi	a1,a1,-1738 # 5bc0 <__clz_tab+0x110>
    4292:	2019                	jal	4298 <fiprintf>
    4294:	171000ef          	jal	ra,4c04 <abort>

00004298 <fiprintf>:
fprintf():
    4298:	7139                	addi	sp,sp,-64
    429a:	d432                	sw	a2,40(sp)
    429c:	d636                	sw	a3,44(sp)
    429e:	da3e                	sw	a5,52(sp)
    42a0:	d83a                	sw	a4,48(sp)
    42a2:	dc42                	sw	a6,56(sp)
    42a4:	de46                	sw	a7,60(sp)
    42a6:	1fffc797          	auipc	a5,0x1fffc
    42aa:	dce78793          	addi	a5,a5,-562 # 20000074 <_impure_ptr>
    42ae:	862e                	mv	a2,a1
    42b0:	85aa                	mv	a1,a0
    42b2:	4388                	lw	a0,0(a5)
    42b4:	1034                	addi	a3,sp,40
    42b6:	ce06                	sw	ra,28(sp)
    42b8:	c636                	sw	a3,12(sp)
    42ba:	222d                	jal	43e4 <_vfiprintf_r>
    42bc:	40f2                	lw	ra,28(sp)
    42be:	6121                	addi	sp,sp,64
    42c0:	8082                	ret

000042c2 <memcpy>:
memcpy():
    42c2:	00a5c7b3          	xor	a5,a1,a0
    42c6:	8b8d                	andi	a5,a5,3
    42c8:	00c50733          	add	a4,a0,a2
    42cc:	e781                	bnez	a5,42d4 <memcpy+0x12>
    42ce:	478d                	li	a5,3
    42d0:	00c7ee63          	bltu	a5,a2,42ec <memcpy+0x2a>
    42d4:	87aa                	mv	a5,a0
    42d6:	0ae57063          	bgeu	a0,a4,4376 <memcpy+0xb4>
    42da:	0005c683          	lbu	a3,0(a1)
    42de:	0785                	addi	a5,a5,1
    42e0:	0585                	addi	a1,a1,1
    42e2:	fed78fa3          	sb	a3,-1(a5)
    42e6:	fee7eae3          	bltu	a5,a4,42da <memcpy+0x18>
    42ea:	8082                	ret
    42ec:	00357693          	andi	a3,a0,3
    42f0:	87aa                	mv	a5,a0
    42f2:	ca91                	beqz	a3,4306 <memcpy+0x44>
    42f4:	0005c683          	lbu	a3,0(a1)
    42f8:	0785                	addi	a5,a5,1
    42fa:	0585                	addi	a1,a1,1
    42fc:	fed78fa3          	sb	a3,-1(a5)
    4300:	0037f693          	andi	a3,a5,3
    4304:	b7fd                	j	42f2 <memcpy+0x30>
    4306:	ffc77693          	andi	a3,a4,-4
    430a:	fe068613          	addi	a2,a3,-32
    430e:	06c7f063          	bgeu	a5,a2,436e <memcpy+0xac>
    4312:	0005a383          	lw	t2,0(a1)
    4316:	0045a283          	lw	t0,4(a1)
    431a:	0085af83          	lw	t6,8(a1)
    431e:	00c5af03          	lw	t5,12(a1)
    4322:	0105ae83          	lw	t4,16(a1)
    4326:	0145ae03          	lw	t3,20(a1)
    432a:	0185a303          	lw	t1,24(a1)
    432e:	01c5a883          	lw	a7,28(a1)
    4332:	02458593          	addi	a1,a1,36
    4336:	0077a023          	sw	t2,0(a5)
    433a:	ffc5a803          	lw	a6,-4(a1)
    433e:	0057a223          	sw	t0,4(a5)
    4342:	01f7a423          	sw	t6,8(a5)
    4346:	01e7a623          	sw	t5,12(a5)
    434a:	01d7a823          	sw	t4,16(a5)
    434e:	01c7aa23          	sw	t3,20(a5)
    4352:	0067ac23          	sw	t1,24(a5)
    4356:	0117ae23          	sw	a7,28(a5)
    435a:	02478793          	addi	a5,a5,36
    435e:	ff07ae23          	sw	a6,-4(a5)
    4362:	b775                	j	430e <memcpy+0x4c>
    4364:	4190                	lw	a2,0(a1)
    4366:	0791                	addi	a5,a5,4
    4368:	0591                	addi	a1,a1,4
    436a:	fec7ae23          	sw	a2,-4(a5)
    436e:	fed7ebe3          	bltu	a5,a3,4364 <memcpy+0xa2>
    4372:	f6e7e4e3          	bltu	a5,a4,42da <memcpy+0x18>
    4376:	8082                	ret

00004378 <__sfputc_r>:
__sfputc_r():
    4378:	461c                	lw	a5,8(a2)
    437a:	17fd                	addi	a5,a5,-1
    437c:	c61c                	sw	a5,8(a2)
    437e:	0007d963          	bgez	a5,4390 <__sfputc_r+0x18>
    4382:	4e18                	lw	a4,24(a2)
    4384:	00e7c563          	blt	a5,a4,438e <__sfputc_r+0x16>
    4388:	47a9                	li	a5,10
    438a:	00f59363          	bne	a1,a5,4390 <__sfputc_r+0x18>
    438e:	a55d                	j	4a34 <__swbuf_r>
    4390:	421c                	lw	a5,0(a2)
    4392:	852e                	mv	a0,a1
    4394:	00178713          	addi	a4,a5,1
    4398:	c218                	sw	a4,0(a2)
    439a:	00b78023          	sb	a1,0(a5)
    439e:	8082                	ret

000043a0 <__sfputs_r>:
__sfputs_r():
    43a0:	1101                	addi	sp,sp,-32
    43a2:	cc22                	sw	s0,24(sp)
    43a4:	ca26                	sw	s1,20(sp)
    43a6:	c84a                	sw	s2,16(sp)
    43a8:	c64e                	sw	s3,12(sp)
    43aa:	c452                	sw	s4,8(sp)
    43ac:	ce06                	sw	ra,28(sp)
    43ae:	892a                	mv	s2,a0
    43b0:	89ae                	mv	s3,a1
    43b2:	8432                	mv	s0,a2
    43b4:	00d604b3          	add	s1,a2,a3
    43b8:	5a7d                	li	s4,-1
    43ba:	00941463          	bne	s0,s1,43c2 <__sfputs_r+0x22>
    43be:	4501                	li	a0,0
    43c0:	a811                	j	43d4 <__sfputs_r+0x34>
    43c2:	00044583          	lbu	a1,0(s0) # 4000000 <_data_lma+0x3ffa374>
    43c6:	864e                	mv	a2,s3
    43c8:	854a                	mv	a0,s2
    43ca:	fafff0ef          	jal	ra,4378 <__sfputc_r>
    43ce:	0405                	addi	s0,s0,1
    43d0:	ff4515e3          	bne	a0,s4,43ba <__sfputs_r+0x1a>
    43d4:	40f2                	lw	ra,28(sp)
    43d6:	4462                	lw	s0,24(sp)
    43d8:	44d2                	lw	s1,20(sp)
    43da:	4942                	lw	s2,16(sp)
    43dc:	49b2                	lw	s3,12(sp)
    43de:	4a22                	lw	s4,8(sp)
    43e0:	6105                	addi	sp,sp,32
    43e2:	8082                	ret

000043e4 <_vfiprintf_r>:
_vfiprintf_r():
    43e4:	7135                	addi	sp,sp,-160
    43e6:	cd22                	sw	s0,152(sp)
    43e8:	cb26                	sw	s1,148(sp)
    43ea:	c94a                	sw	s2,144(sp)
    43ec:	c74e                	sw	s3,140(sp)
    43ee:	cf06                	sw	ra,156(sp)
    43f0:	c552                	sw	s4,136(sp)
    43f2:	c356                	sw	s5,132(sp)
    43f4:	c15a                	sw	s6,128(sp)
    43f6:	dede                	sw	s7,124(sp)
    43f8:	dce2                	sw	s8,120(sp)
    43fa:	dae6                	sw	s9,116(sp)
    43fc:	89aa                	mv	s3,a0
    43fe:	84ae                	mv	s1,a1
    4400:	8932                	mv	s2,a2
    4402:	8436                	mv	s0,a3
    4404:	c509                	beqz	a0,440e <_vfiprintf_r+0x2a>
    4406:	4d1c                	lw	a5,24(a0)
    4408:	e399                	bnez	a5,440e <_vfiprintf_r+0x2a>
    440a:	265000ef          	jal	ra,4e6e <__sinit>
    440e:	00002797          	auipc	a5,0x2
    4412:	83e78793          	addi	a5,a5,-1986 # 5c4c <__sf_fake_stdin>
    4416:	0cf49d63          	bne	s1,a5,44f0 <_vfiprintf_r+0x10c>
    441a:	0049a483          	lw	s1,4(s3)
    441e:	00c4d783          	lhu	a5,12(s1)
    4422:	8ba1                	andi	a5,a5,8
    4424:	cbe5                	beqz	a5,4514 <_vfiprintf_r+0x130>
    4426:	489c                	lw	a5,16(s1)
    4428:	c7f5                	beqz	a5,4514 <_vfiprintf_r+0x130>
    442a:	02000793          	li	a5,32
    442e:	02f104a3          	sb	a5,41(sp)
    4432:	03000793          	li	a5,48
    4436:	d202                	sw	zero,36(sp)
    4438:	02f10523          	sb	a5,42(sp)
    443c:	c622                	sw	s0,12(sp)
    443e:	02500b93          	li	s7,37
    4442:	00001a97          	auipc	s5,0x1
    4446:	7aea8a93          	addi	s5,s5,1966 # 5bf0 <__clz_tab+0x140>
    444a:	4c05                	li	s8,1
    444c:	4b29                	li	s6,10
    444e:	844a                	mv	s0,s2
    4450:	00044783          	lbu	a5,0(s0)
    4454:	c399                	beqz	a5,445a <_vfiprintf_r+0x76>
    4456:	0f779163          	bne	a5,s7,4538 <_vfiprintf_r+0x154>
    445a:	41240cb3          	sub	s9,s0,s2
    445e:	000c8e63          	beqz	s9,447a <_vfiprintf_r+0x96>
    4462:	86e6                	mv	a3,s9
    4464:	864a                	mv	a2,s2
    4466:	85a6                	mv	a1,s1
    4468:	854e                	mv	a0,s3
    446a:	f37ff0ef          	jal	ra,43a0 <__sfputs_r>
    446e:	57fd                	li	a5,-1
    4470:	1ef50863          	beq	a0,a5,4660 <_vfiprintf_r+0x27c>
    4474:	5692                	lw	a3,36(sp)
    4476:	96e6                	add	a3,a3,s9
    4478:	d236                	sw	a3,36(sp)
    447a:	00044783          	lbu	a5,0(s0)
    447e:	1e078163          	beqz	a5,4660 <_vfiprintf_r+0x27c>
    4482:	57fd                	li	a5,-1
    4484:	00140913          	addi	s2,s0,1
    4488:	c802                	sw	zero,16(sp)
    448a:	ce02                	sw	zero,28(sp)
    448c:	ca3e                	sw	a5,20(sp)
    448e:	cc02                	sw	zero,24(sp)
    4490:	040109a3          	sb	zero,83(sp)
    4494:	d482                	sw	zero,104(sp)
    4496:	00094583          	lbu	a1,0(s2)
    449a:	4615                	li	a2,5
    449c:	8556                	mv	a0,s5
    449e:	43f000ef          	jal	ra,50dc <memchr>
    44a2:	00190413          	addi	s0,s2,1
    44a6:	47c2                	lw	a5,16(sp)
    44a8:	e951                	bnez	a0,453c <_vfiprintf_r+0x158>
    44aa:	0107f713          	andi	a4,a5,16
    44ae:	c709                	beqz	a4,44b8 <_vfiprintf_r+0xd4>
    44b0:	02000713          	li	a4,32
    44b4:	04e109a3          	sb	a4,83(sp)
    44b8:	0087f713          	andi	a4,a5,8
    44bc:	c709                	beqz	a4,44c6 <_vfiprintf_r+0xe2>
    44be:	02b00713          	li	a4,43
    44c2:	04e109a3          	sb	a4,83(sp)
    44c6:	00094683          	lbu	a3,0(s2)
    44ca:	02a00713          	li	a4,42
    44ce:	06e68f63          	beq	a3,a4,454c <_vfiprintf_r+0x168>
    44d2:	47f2                	lw	a5,28(sp)
    44d4:	844a                	mv	s0,s2
    44d6:	4681                	li	a3,0
    44d8:	4625                	li	a2,9
    44da:	00044703          	lbu	a4,0(s0)
    44de:	00140593          	addi	a1,s0,1
    44e2:	fd070713          	addi	a4,a4,-48 # 3ffffd0 <_data_lma+0x3ffa344>
    44e6:	0ae67863          	bgeu	a2,a4,4596 <_vfiprintf_r+0x1b2>
    44ea:	caad                	beqz	a3,455c <_vfiprintf_r+0x178>
    44ec:	ce3e                	sw	a5,28(sp)
    44ee:	a0bd                	j	455c <_vfiprintf_r+0x178>
    44f0:	00001797          	auipc	a5,0x1
    44f4:	77c78793          	addi	a5,a5,1916 # 5c6c <__sf_fake_stdout>
    44f8:	00f49563          	bne	s1,a5,4502 <_vfiprintf_r+0x11e>
    44fc:	0089a483          	lw	s1,8(s3)
    4500:	bf39                	j	441e <_vfiprintf_r+0x3a>
    4502:	00001797          	auipc	a5,0x1
    4506:	72a78793          	addi	a5,a5,1834 # 5c2c <__sf_fake_stderr>
    450a:	f0f49ae3          	bne	s1,a5,441e <_vfiprintf_r+0x3a>
    450e:	00c9a483          	lw	s1,12(s3)
    4512:	b731                	j	441e <_vfiprintf_r+0x3a>
    4514:	85a6                	mv	a1,s1
    4516:	854e                	mv	a0,s3
    4518:	2bf1                	jal	4af4 <__swsetup_r>
    451a:	d901                	beqz	a0,442a <_vfiprintf_r+0x46>
    451c:	557d                	li	a0,-1
    451e:	40fa                	lw	ra,156(sp)
    4520:	446a                	lw	s0,152(sp)
    4522:	44da                	lw	s1,148(sp)
    4524:	494a                	lw	s2,144(sp)
    4526:	49ba                	lw	s3,140(sp)
    4528:	4a2a                	lw	s4,136(sp)
    452a:	4a9a                	lw	s5,132(sp)
    452c:	4b0a                	lw	s6,128(sp)
    452e:	5bf6                	lw	s7,124(sp)
    4530:	5c66                	lw	s8,120(sp)
    4532:	5cd6                	lw	s9,116(sp)
    4534:	610d                	addi	sp,sp,160
    4536:	8082                	ret
    4538:	0405                	addi	s0,s0,1
    453a:	bf19                	j	4450 <_vfiprintf_r+0x6c>
    453c:	41550533          	sub	a0,a0,s5
    4540:	00ac1533          	sll	a0,s8,a0
    4544:	8fc9                	or	a5,a5,a0
    4546:	c83e                	sw	a5,16(sp)
    4548:	8922                	mv	s2,s0
    454a:	b7b1                	j	4496 <_vfiprintf_r+0xb2>
    454c:	4732                	lw	a4,12(sp)
    454e:	00470693          	addi	a3,a4,4
    4552:	4318                	lw	a4,0(a4)
    4554:	c636                	sw	a3,12(sp)
    4556:	02074963          	bltz	a4,4588 <_vfiprintf_r+0x1a4>
    455a:	ce3a                	sw	a4,28(sp)
    455c:	00044703          	lbu	a4,0(s0)
    4560:	02e00793          	li	a5,46
    4564:	04f71f63          	bne	a4,a5,45c2 <_vfiprintf_r+0x1de>
    4568:	00144703          	lbu	a4,1(s0)
    456c:	02a00793          	li	a5,42
    4570:	02f71b63          	bne	a4,a5,45a6 <_vfiprintf_r+0x1c2>
    4574:	47b2                	lw	a5,12(sp)
    4576:	0409                	addi	s0,s0,2
    4578:	00478713          	addi	a4,a5,4
    457c:	439c                	lw	a5,0(a5)
    457e:	c63a                	sw	a4,12(sp)
    4580:	0207c163          	bltz	a5,45a2 <_vfiprintf_r+0x1be>
    4584:	ca3e                	sw	a5,20(sp)
    4586:	a835                	j	45c2 <_vfiprintf_r+0x1de>
    4588:	40e00733          	neg	a4,a4
    458c:	0027e793          	ori	a5,a5,2
    4590:	ce3a                	sw	a4,28(sp)
    4592:	c83e                	sw	a5,16(sp)
    4594:	b7e1                	j	455c <_vfiprintf_r+0x178>
    4596:	036787b3          	mul	a5,a5,s6
    459a:	4685                	li	a3,1
    459c:	842e                	mv	s0,a1
    459e:	97ba                	add	a5,a5,a4
    45a0:	bf2d                	j	44da <_vfiprintf_r+0xf6>
    45a2:	57fd                	li	a5,-1
    45a4:	b7c5                	j	4584 <_vfiprintf_r+0x1a0>
    45a6:	0405                	addi	s0,s0,1
    45a8:	ca02                	sw	zero,20(sp)
    45aa:	4681                	li	a3,0
    45ac:	4781                	li	a5,0
    45ae:	4625                	li	a2,9
    45b0:	00044703          	lbu	a4,0(s0)
    45b4:	00140593          	addi	a1,s0,1
    45b8:	fd070713          	addi	a4,a4,-48
    45bc:	06e67863          	bgeu	a2,a4,462c <_vfiprintf_r+0x248>
    45c0:	f2f1                	bnez	a3,4584 <_vfiprintf_r+0x1a0>
    45c2:	00044583          	lbu	a1,0(s0)
    45c6:	460d                	li	a2,3
    45c8:	00001517          	auipc	a0,0x1
    45cc:	63050513          	addi	a0,a0,1584 # 5bf8 <__clz_tab+0x148>
    45d0:	30d000ef          	jal	ra,50dc <memchr>
    45d4:	cd11                	beqz	a0,45f0 <_vfiprintf_r+0x20c>
    45d6:	00001797          	auipc	a5,0x1
    45da:	62278793          	addi	a5,a5,1570 # 5bf8 <__clz_tab+0x148>
    45de:	8d1d                	sub	a0,a0,a5
    45e0:	04000793          	li	a5,64
    45e4:	00a797b3          	sll	a5,a5,a0
    45e8:	4542                	lw	a0,16(sp)
    45ea:	0405                	addi	s0,s0,1
    45ec:	8d5d                	or	a0,a0,a5
    45ee:	c82a                	sw	a0,16(sp)
    45f0:	00044583          	lbu	a1,0(s0)
    45f4:	4619                	li	a2,6
    45f6:	00001517          	auipc	a0,0x1
    45fa:	60650513          	addi	a0,a0,1542 # 5bfc <__clz_tab+0x14c>
    45fe:	00140913          	addi	s2,s0,1
    4602:	02b10423          	sb	a1,40(sp)
    4606:	2d7000ef          	jal	ra,50dc <memchr>
    460a:	c13d                	beqz	a0,4670 <_vfiprintf_r+0x28c>
    460c:	ffffc797          	auipc	a5,0xffffc
    4610:	9f478793          	addi	a5,a5,-1548 # 0 <_sinit>
    4614:	e795                	bnez	a5,4640 <_vfiprintf_r+0x25c>
    4616:	4742                	lw	a4,16(sp)
    4618:	47b2                	lw	a5,12(sp)
    461a:	10077713          	andi	a4,a4,256
    461e:	cf09                	beqz	a4,4638 <_vfiprintf_r+0x254>
    4620:	0791                	addi	a5,a5,4
    4622:	c63e                	sw	a5,12(sp)
    4624:	5792                	lw	a5,36(sp)
    4626:	97d2                	add	a5,a5,s4
    4628:	d23e                	sw	a5,36(sp)
    462a:	b515                	j	444e <_vfiprintf_r+0x6a>
    462c:	036787b3          	mul	a5,a5,s6
    4630:	4685                	li	a3,1
    4632:	842e                	mv	s0,a1
    4634:	97ba                	add	a5,a5,a4
    4636:	bfad                	j	45b0 <_vfiprintf_r+0x1cc>
    4638:	079d                	addi	a5,a5,7
    463a:	9be1                	andi	a5,a5,-8
    463c:	07a1                	addi	a5,a5,8
    463e:	b7d5                	j	4622 <_vfiprintf_r+0x23e>
    4640:	0078                	addi	a4,sp,12
    4642:	00000697          	auipc	a3,0x0
    4646:	d5e68693          	addi	a3,a3,-674 # 43a0 <__sfputs_r>
    464a:	8626                	mv	a2,s1
    464c:	080c                	addi	a1,sp,16
    464e:	854e                	mv	a0,s3
    4650:	00000097          	auipc	ra,0x0
    4654:	000000e7          	jalr	zero # 0 <_sinit>
    4658:	57fd                	li	a5,-1
    465a:	8a2a                	mv	s4,a0
    465c:	fcf514e3          	bne	a0,a5,4624 <_vfiprintf_r+0x240>
    4660:	00c4d783          	lhu	a5,12(s1)
    4664:	0407f793          	andi	a5,a5,64
    4668:	ea079ae3          	bnez	a5,451c <_vfiprintf_r+0x138>
    466c:	5512                	lw	a0,36(sp)
    466e:	bd45                	j	451e <_vfiprintf_r+0x13a>
    4670:	0078                	addi	a4,sp,12
    4672:	00000697          	auipc	a3,0x0
    4676:	d2e68693          	addi	a3,a3,-722 # 43a0 <__sfputs_r>
    467a:	8626                	mv	a2,s1
    467c:	080c                	addi	a1,sp,16
    467e:	854e                	mv	a0,s3
    4680:	2a01                	jal	4790 <_printf_i>
    4682:	bfd9                	j	4658 <_vfiprintf_r+0x274>

00004684 <_printf_common>:
_printf_common():
    4684:	7179                	addi	sp,sp,-48
    4686:	ca56                	sw	s5,20(sp)
    4688:	499c                	lw	a5,16(a1)
    468a:	8aba                	mv	s5,a4
    468c:	4598                	lw	a4,8(a1)
    468e:	d422                	sw	s0,40(sp)
    4690:	d226                	sw	s1,36(sp)
    4692:	ce4e                	sw	s3,28(sp)
    4694:	cc52                	sw	s4,24(sp)
    4696:	d606                	sw	ra,44(sp)
    4698:	d04a                	sw	s2,32(sp)
    469a:	c85a                	sw	s6,16(sp)
    469c:	c65e                	sw	s7,12(sp)
    469e:	89aa                	mv	s3,a0
    46a0:	842e                	mv	s0,a1
    46a2:	84b2                	mv	s1,a2
    46a4:	8a36                	mv	s4,a3
    46a6:	00e7d363          	bge	a5,a4,46ac <_printf_common+0x28>
    46aa:	87ba                	mv	a5,a4
    46ac:	c09c                	sw	a5,0(s1)
    46ae:	04344703          	lbu	a4,67(s0)
    46b2:	c319                	beqz	a4,46b8 <_printf_common+0x34>
    46b4:	0785                	addi	a5,a5,1
    46b6:	c09c                	sw	a5,0(s1)
    46b8:	401c                	lw	a5,0(s0)
    46ba:	0207f793          	andi	a5,a5,32
    46be:	c781                	beqz	a5,46c6 <_printf_common+0x42>
    46c0:	409c                	lw	a5,0(s1)
    46c2:	0789                	addi	a5,a5,2
    46c4:	c09c                	sw	a5,0(s1)
    46c6:	00042903          	lw	s2,0(s0)
    46ca:	00697913          	andi	s2,s2,6
    46ce:	00091a63          	bnez	s2,46e2 <_printf_common+0x5e>
    46d2:	01940b13          	addi	s6,s0,25
    46d6:	5bfd                	li	s7,-1
    46d8:	445c                	lw	a5,12(s0)
    46da:	4098                	lw	a4,0(s1)
    46dc:	8f99                	sub	a5,a5,a4
    46de:	04f94c63          	blt	s2,a5,4736 <_printf_common+0xb2>
    46e2:	401c                	lw	a5,0(s0)
    46e4:	04344683          	lbu	a3,67(s0)
    46e8:	0207f793          	andi	a5,a5,32
    46ec:	00d036b3          	snez	a3,a3
    46f0:	eba5                	bnez	a5,4760 <_printf_common+0xdc>
    46f2:	04340613          	addi	a2,s0,67
    46f6:	85d2                	mv	a1,s4
    46f8:	854e                	mv	a0,s3
    46fa:	9a82                	jalr	s5
    46fc:	57fd                	li	a5,-1
    46fe:	04f50363          	beq	a0,a5,4744 <_printf_common+0xc0>
    4702:	401c                	lw	a5,0(s0)
    4704:	4611                	li	a2,4
    4706:	4098                	lw	a4,0(s1)
    4708:	8b99                	andi	a5,a5,6
    470a:	4454                	lw	a3,12(s0)
    470c:	4481                	li	s1,0
    470e:	00c79763          	bne	a5,a2,471c <_printf_common+0x98>
    4712:	40e684b3          	sub	s1,a3,a4
    4716:	0004d363          	bgez	s1,471c <_printf_common+0x98>
    471a:	4481                	li	s1,0
    471c:	441c                	lw	a5,8(s0)
    471e:	4818                	lw	a4,16(s0)
    4720:	00f75463          	bge	a4,a5,4728 <_printf_common+0xa4>
    4724:	8f99                	sub	a5,a5,a4
    4726:	94be                	add	s1,s1,a5
    4728:	4901                	li	s2,0
    472a:	0469                	addi	s0,s0,26
    472c:	5b7d                	li	s6,-1
    472e:	05249863          	bne	s1,s2,477e <_printf_common+0xfa>
    4732:	4501                	li	a0,0
    4734:	a809                	j	4746 <_printf_common+0xc2>
    4736:	4685                	li	a3,1
    4738:	865a                	mv	a2,s6
    473a:	85d2                	mv	a1,s4
    473c:	854e                	mv	a0,s3
    473e:	9a82                	jalr	s5
    4740:	01751e63          	bne	a0,s7,475c <_printf_common+0xd8>
    4744:	557d                	li	a0,-1
    4746:	50b2                	lw	ra,44(sp)
    4748:	5422                	lw	s0,40(sp)
    474a:	5492                	lw	s1,36(sp)
    474c:	5902                	lw	s2,32(sp)
    474e:	49f2                	lw	s3,28(sp)
    4750:	4a62                	lw	s4,24(sp)
    4752:	4ad2                	lw	s5,20(sp)
    4754:	4b42                	lw	s6,16(sp)
    4756:	4bb2                	lw	s7,12(sp)
    4758:	6145                	addi	sp,sp,48
    475a:	8082                	ret
    475c:	0905                	addi	s2,s2,1
    475e:	bfad                	j	46d8 <_printf_common+0x54>
    4760:	00d40733          	add	a4,s0,a3
    4764:	03000613          	li	a2,48
    4768:	04c701a3          	sb	a2,67(a4)
    476c:	04544703          	lbu	a4,69(s0)
    4770:	00168793          	addi	a5,a3,1
    4774:	97a2                	add	a5,a5,s0
    4776:	0689                	addi	a3,a3,2
    4778:	04e781a3          	sb	a4,67(a5)
    477c:	bf9d                	j	46f2 <_printf_common+0x6e>
    477e:	4685                	li	a3,1
    4780:	8622                	mv	a2,s0
    4782:	85d2                	mv	a1,s4
    4784:	854e                	mv	a0,s3
    4786:	9a82                	jalr	s5
    4788:	fb650ee3          	beq	a0,s6,4744 <_printf_common+0xc0>
    478c:	0905                	addi	s2,s2,1
    478e:	b745                	j	472e <_printf_common+0xaa>

00004790 <_printf_i>:
_printf_i():
    4790:	7179                	addi	sp,sp,-48
    4792:	d422                	sw	s0,40(sp)
    4794:	d226                	sw	s1,36(sp)
    4796:	d04a                	sw	s2,32(sp)
    4798:	ce4e                	sw	s3,28(sp)
    479a:	d606                	sw	ra,44(sp)
    479c:	cc52                	sw	s4,24(sp)
    479e:	ca56                	sw	s5,20(sp)
    47a0:	c85a                	sw	s6,16(sp)
    47a2:	89b6                	mv	s3,a3
    47a4:	0185c683          	lbu	a3,24(a1)
    47a8:	06e00793          	li	a5,110
    47ac:	8932                	mv	s2,a2
    47ae:	84aa                	mv	s1,a0
    47b0:	842e                	mv	s0,a1
    47b2:	04358613          	addi	a2,a1,67
    47b6:	1ef68163          	beq	a3,a5,4998 <_printf_i+0x208>
    47ba:	06d7e263          	bltu	a5,a3,481e <_printf_i+0x8e>
    47be:	06300793          	li	a5,99
    47c2:	0af68263          	beq	a3,a5,4866 <_printf_i+0xd6>
    47c6:	00d7ed63          	bltu	a5,a3,47e0 <_printf_i+0x50>
    47ca:	1e068b63          	beqz	a3,49c0 <_printf_i+0x230>
    47ce:	05800793          	li	a5,88
    47d2:	16f68763          	beq	a3,a5,4940 <_printf_i+0x1b0>
    47d6:	04240a93          	addi	s5,s0,66
    47da:	04d40123          	sb	a3,66(s0)
    47de:	a869                	j	4878 <_printf_i+0xe8>
    47e0:	06400793          	li	a5,100
    47e4:	00f68663          	beq	a3,a5,47f0 <_printf_i+0x60>
    47e8:	06900793          	li	a5,105
    47ec:	fef695e3          	bne	a3,a5,47d6 <_printf_i+0x46>
    47f0:	401c                	lw	a5,0(s0)
    47f2:	4308                	lw	a0,0(a4)
    47f4:	0807f693          	andi	a3,a5,128
    47f8:	00450593          	addi	a1,a0,4
    47fc:	c2c1                	beqz	a3,487c <_printf_i+0xec>
    47fe:	411c                	lw	a5,0(a0)
    4800:	c30c                	sw	a1,0(a4)
    4802:	0007d863          	bgez	a5,4812 <_printf_i+0x82>
    4806:	02d00713          	li	a4,45
    480a:	40f007b3          	neg	a5,a5
    480e:	04e401a3          	sb	a4,67(s0)
    4812:	00001697          	auipc	a3,0x1
    4816:	3f268693          	addi	a3,a3,1010 # 5c04 <__clz_tab+0x154>
    481a:	4729                	li	a4,10
    481c:	a065                	j	48c4 <_printf_i+0x134>
    481e:	07300793          	li	a5,115
    4822:	1af68363          	beq	a3,a5,49c8 <_printf_i+0x238>
    4826:	00d7ef63          	bltu	a5,a3,4844 <_printf_i+0xb4>
    482a:	06f00793          	li	a5,111
    482e:	04f68f63          	beq	a3,a5,488c <_printf_i+0xfc>
    4832:	07000793          	li	a5,112
    4836:	faf690e3          	bne	a3,a5,47d6 <_printf_i+0x46>
    483a:	419c                	lw	a5,0(a1)
    483c:	0207e793          	ori	a5,a5,32
    4840:	c19c                	sw	a5,0(a1)
    4842:	a809                	j	4854 <_printf_i+0xc4>
    4844:	07500793          	li	a5,117
    4848:	04f68263          	beq	a3,a5,488c <_printf_i+0xfc>
    484c:	07800793          	li	a5,120
    4850:	f8f693e3          	bne	a3,a5,47d6 <_printf_i+0x46>
    4854:	07800793          	li	a5,120
    4858:	04f402a3          	sb	a5,69(s0)
    485c:	00001697          	auipc	a3,0x1
    4860:	3bc68693          	addi	a3,a3,956 # 5c18 <__clz_tab+0x168>
    4864:	a0e5                	j	494c <_printf_i+0x1bc>
    4866:	431c                	lw	a5,0(a4)
    4868:	04258a93          	addi	s5,a1,66
    486c:	00478693          	addi	a3,a5,4
    4870:	439c                	lw	a5,0(a5)
    4872:	c314                	sw	a3,0(a4)
    4874:	04f58123          	sb	a5,66(a1)
    4878:	4785                	li	a5,1
    487a:	a2b5                	j	49e6 <_printf_i+0x256>
    487c:	0407f693          	andi	a3,a5,64
    4880:	411c                	lw	a5,0(a0)
    4882:	c30c                	sw	a1,0(a4)
    4884:	debd                	beqz	a3,4802 <_printf_i+0x72>
    4886:	07c2                	slli	a5,a5,0x10
    4888:	87c1                	srai	a5,a5,0x10
    488a:	bfa5                	j	4802 <_printf_i+0x72>
    488c:	400c                	lw	a1,0(s0)
    488e:	431c                	lw	a5,0(a4)
    4890:	0805f813          	andi	a6,a1,128
    4894:	00478513          	addi	a0,a5,4
    4898:	00080563          	beqz	a6,48a2 <_printf_i+0x112>
    489c:	c308                	sw	a0,0(a4)
    489e:	439c                	lw	a5,0(a5)
    48a0:	a039                	j	48ae <_printf_i+0x11e>
    48a2:	0405f593          	andi	a1,a1,64
    48a6:	c308                	sw	a0,0(a4)
    48a8:	d9fd                	beqz	a1,489e <_printf_i+0x10e>
    48aa:	0007d783          	lhu	a5,0(a5)
    48ae:	06f00713          	li	a4,111
    48b2:	0ce68b63          	beq	a3,a4,4988 <_printf_i+0x1f8>
    48b6:	00001697          	auipc	a3,0x1
    48ba:	34e68693          	addi	a3,a3,846 # 5c04 <__clz_tab+0x154>
    48be:	4729                	li	a4,10
    48c0:	040401a3          	sb	zero,67(s0)
    48c4:	404c                	lw	a1,4(s0)
    48c6:	c40c                	sw	a1,8(s0)
    48c8:	0005c563          	bltz	a1,48d2 <_printf_i+0x142>
    48cc:	4008                	lw	a0,0(s0)
    48ce:	996d                	andi	a0,a0,-5
    48d0:	c008                	sw	a0,0(s0)
    48d2:	e399                	bnez	a5,48d8 <_printf_i+0x148>
    48d4:	8ab2                	mv	s5,a2
    48d6:	cd91                	beqz	a1,48f2 <_printf_i+0x162>
    48d8:	8ab2                	mv	s5,a2
    48da:	02e7f5b3          	remu	a1,a5,a4
    48de:	1afd                	addi	s5,s5,-1
    48e0:	95b6                	add	a1,a1,a3
    48e2:	0005c583          	lbu	a1,0(a1)
    48e6:	00ba8023          	sb	a1,0(s5)
    48ea:	02e7d5b3          	divu	a1,a5,a4
    48ee:	0ae7f363          	bgeu	a5,a4,4994 <_printf_i+0x204>
    48f2:	47a1                	li	a5,8
    48f4:	00f71e63          	bne	a4,a5,4910 <_printf_i+0x180>
    48f8:	401c                	lw	a5,0(s0)
    48fa:	8b85                	andi	a5,a5,1
    48fc:	cb91                	beqz	a5,4910 <_printf_i+0x180>
    48fe:	4058                	lw	a4,4(s0)
    4900:	481c                	lw	a5,16(s0)
    4902:	00e7c763          	blt	a5,a4,4910 <_printf_i+0x180>
    4906:	03000793          	li	a5,48
    490a:	fefa8fa3          	sb	a5,-1(s5)
    490e:	1afd                	addi	s5,s5,-1
    4910:	41560633          	sub	a2,a2,s5
    4914:	c810                	sw	a2,16(s0)
    4916:	874e                	mv	a4,s3
    4918:	86ca                	mv	a3,s2
    491a:	0070                	addi	a2,sp,12
    491c:	85a2                	mv	a1,s0
    491e:	8526                	mv	a0,s1
    4920:	d65ff0ef          	jal	ra,4684 <_printf_common>
    4924:	5a7d                	li	s4,-1
    4926:	0d451463          	bne	a0,s4,49ee <_printf_i+0x25e>
    492a:	557d                	li	a0,-1
    492c:	50b2                	lw	ra,44(sp)
    492e:	5422                	lw	s0,40(sp)
    4930:	5492                	lw	s1,36(sp)
    4932:	5902                	lw	s2,32(sp)
    4934:	49f2                	lw	s3,28(sp)
    4936:	4a62                	lw	s4,24(sp)
    4938:	4ad2                	lw	s5,20(sp)
    493a:	4b42                	lw	s6,16(sp)
    493c:	6145                	addi	sp,sp,48
    493e:	8082                	ret
    4940:	04d582a3          	sb	a3,69(a1)
    4944:	00001697          	auipc	a3,0x1
    4948:	2c068693          	addi	a3,a3,704 # 5c04 <__clz_tab+0x154>
    494c:	400c                	lw	a1,0(s0)
    494e:	4308                	lw	a0,0(a4)
    4950:	0805f813          	andi	a6,a1,128
    4954:	411c                	lw	a5,0(a0)
    4956:	0511                	addi	a0,a0,4
    4958:	02080063          	beqz	a6,4978 <_printf_i+0x1e8>
    495c:	c308                	sw	a0,0(a4)
    495e:	0015f713          	andi	a4,a1,1
    4962:	c701                	beqz	a4,496a <_printf_i+0x1da>
    4964:	0205e593          	ori	a1,a1,32
    4968:	c00c                	sw	a1,0(s0)
    496a:	4741                	li	a4,16
    496c:	fbb1                	bnez	a5,48c0 <_printf_i+0x130>
    496e:	400c                	lw	a1,0(s0)
    4970:	fdf5f593          	andi	a1,a1,-33
    4974:	c00c                	sw	a1,0(s0)
    4976:	b7a9                	j	48c0 <_printf_i+0x130>
    4978:	0405f813          	andi	a6,a1,64
    497c:	c308                	sw	a0,0(a4)
    497e:	fe0800e3          	beqz	a6,495e <_printf_i+0x1ce>
    4982:	07c2                	slli	a5,a5,0x10
    4984:	83c1                	srli	a5,a5,0x10
    4986:	bfe1                	j	495e <_printf_i+0x1ce>
    4988:	00001697          	auipc	a3,0x1
    498c:	27c68693          	addi	a3,a3,636 # 5c04 <__clz_tab+0x154>
    4990:	4721                	li	a4,8
    4992:	b73d                	j	48c0 <_printf_i+0x130>
    4994:	87ae                	mv	a5,a1
    4996:	b791                	j	48da <_printf_i+0x14a>
    4998:	4194                	lw	a3,0(a1)
    499a:	431c                	lw	a5,0(a4)
    499c:	49cc                	lw	a1,20(a1)
    499e:	0806f813          	andi	a6,a3,128
    49a2:	00478513          	addi	a0,a5,4
    49a6:	00080663          	beqz	a6,49b2 <_printf_i+0x222>
    49aa:	c308                	sw	a0,0(a4)
    49ac:	439c                	lw	a5,0(a5)
    49ae:	c38c                	sw	a1,0(a5)
    49b0:	a801                	j	49c0 <_printf_i+0x230>
    49b2:	c308                	sw	a0,0(a4)
    49b4:	0406f693          	andi	a3,a3,64
    49b8:	439c                	lw	a5,0(a5)
    49ba:	daf5                	beqz	a3,49ae <_printf_i+0x21e>
    49bc:	00b79023          	sh	a1,0(a5)
    49c0:	00042823          	sw	zero,16(s0)
    49c4:	8ab2                	mv	s5,a2
    49c6:	bf81                	j	4916 <_printf_i+0x186>
    49c8:	431c                	lw	a5,0(a4)
    49ca:	41d0                	lw	a2,4(a1)
    49cc:	4581                	li	a1,0
    49ce:	00478693          	addi	a3,a5,4
    49d2:	c314                	sw	a3,0(a4)
    49d4:	0007aa83          	lw	s5,0(a5)
    49d8:	8556                	mv	a0,s5
    49da:	2709                	jal	50dc <memchr>
    49dc:	c501                	beqz	a0,49e4 <_printf_i+0x254>
    49de:	41550533          	sub	a0,a0,s5
    49e2:	c048                	sw	a0,4(s0)
    49e4:	405c                	lw	a5,4(s0)
    49e6:	c81c                	sw	a5,16(s0)
    49e8:	040401a3          	sb	zero,67(s0)
    49ec:	b72d                	j	4916 <_printf_i+0x186>
    49ee:	4814                	lw	a3,16(s0)
    49f0:	8656                	mv	a2,s5
    49f2:	85ca                	mv	a1,s2
    49f4:	8526                	mv	a0,s1
    49f6:	9982                	jalr	s3
    49f8:	f34509e3          	beq	a0,s4,492a <_printf_i+0x19a>
    49fc:	401c                	lw	a5,0(s0)
    49fe:	8b89                	andi	a5,a5,2
    4a00:	e78d                	bnez	a5,4a2a <_printf_i+0x29a>
    4a02:	47b2                	lw	a5,12(sp)
    4a04:	4448                	lw	a0,12(s0)
    4a06:	f2f553e3          	bge	a0,a5,492c <_printf_i+0x19c>
    4a0a:	853e                	mv	a0,a5
    4a0c:	b705                	j	492c <_printf_i+0x19c>
    4a0e:	4685                	li	a3,1
    4a10:	8656                	mv	a2,s5
    4a12:	85ca                	mv	a1,s2
    4a14:	8526                	mv	a0,s1
    4a16:	9982                	jalr	s3
    4a18:	f16509e3          	beq	a0,s6,492a <_printf_i+0x19a>
    4a1c:	0a05                	addi	s4,s4,1
    4a1e:	445c                	lw	a5,12(s0)
    4a20:	4732                	lw	a4,12(sp)
    4a22:	8f99                	sub	a5,a5,a4
    4a24:	fefa45e3          	blt	s4,a5,4a0e <_printf_i+0x27e>
    4a28:	bfe9                	j	4a02 <_printf_i+0x272>
    4a2a:	4a01                	li	s4,0
    4a2c:	01940a93          	addi	s5,s0,25
    4a30:	5b7d                	li	s6,-1
    4a32:	b7f5                	j	4a1e <_printf_i+0x28e>

00004a34 <__swbuf_r>:
__swbuf_r():
    4a34:	1101                	addi	sp,sp,-32
    4a36:	cc22                	sw	s0,24(sp)
    4a38:	ca26                	sw	s1,20(sp)
    4a3a:	c84a                	sw	s2,16(sp)
    4a3c:	ce06                	sw	ra,28(sp)
    4a3e:	c64e                	sw	s3,12(sp)
    4a40:	84aa                	mv	s1,a0
    4a42:	892e                	mv	s2,a1
    4a44:	8432                	mv	s0,a2
    4a46:	c501                	beqz	a0,4a4e <__swbuf_r+0x1a>
    4a48:	4d1c                	lw	a5,24(a0)
    4a4a:	e391                	bnez	a5,4a4e <__swbuf_r+0x1a>
    4a4c:	210d                	jal	4e6e <__sinit>
    4a4e:	00001797          	auipc	a5,0x1
    4a52:	1fe78793          	addi	a5,a5,510 # 5c4c <__sf_fake_stdin>
    4a56:	06f41963          	bne	s0,a5,4ac8 <__swbuf_r+0x94>
    4a5a:	40c0                	lw	s0,4(s1)
    4a5c:	4c1c                	lw	a5,24(s0)
    4a5e:	c41c                	sw	a5,8(s0)
    4a60:	00c45783          	lhu	a5,12(s0)
    4a64:	8ba1                	andi	a5,a5,8
    4a66:	c3c9                	beqz	a5,4ae8 <__swbuf_r+0xb4>
    4a68:	481c                	lw	a5,16(s0)
    4a6a:	cfbd                	beqz	a5,4ae8 <__swbuf_r+0xb4>
    4a6c:	481c                	lw	a5,16(s0)
    4a6e:	4008                	lw	a0,0(s0)
    4a70:	0ff97993          	andi	s3,s2,255
    4a74:	0ff97913          	andi	s2,s2,255
    4a78:	8d1d                	sub	a0,a0,a5
    4a7a:	485c                	lw	a5,20(s0)
    4a7c:	00f54663          	blt	a0,a5,4a88 <__swbuf_r+0x54>
    4a80:	85a2                	mv	a1,s0
    4a82:	8526                	mv	a0,s1
    4a84:	24e9                	jal	4d4e <_fflush_r>
    4a86:	e52d                	bnez	a0,4af0 <__swbuf_r+0xbc>
    4a88:	441c                	lw	a5,8(s0)
    4a8a:	0505                	addi	a0,a0,1
    4a8c:	17fd                	addi	a5,a5,-1
    4a8e:	c41c                	sw	a5,8(s0)
    4a90:	401c                	lw	a5,0(s0)
    4a92:	00178713          	addi	a4,a5,1
    4a96:	c018                	sw	a4,0(s0)
    4a98:	01378023          	sb	s3,0(a5)
    4a9c:	485c                	lw	a5,20(s0)
    4a9e:	00a78963          	beq	a5,a0,4ab0 <__swbuf_r+0x7c>
    4aa2:	00c45783          	lhu	a5,12(s0)
    4aa6:	8b85                	andi	a5,a5,1
    4aa8:	cb81                	beqz	a5,4ab8 <__swbuf_r+0x84>
    4aaa:	47a9                	li	a5,10
    4aac:	00f91663          	bne	s2,a5,4ab8 <__swbuf_r+0x84>
    4ab0:	85a2                	mv	a1,s0
    4ab2:	8526                	mv	a0,s1
    4ab4:	2c69                	jal	4d4e <_fflush_r>
    4ab6:	ed0d                	bnez	a0,4af0 <__swbuf_r+0xbc>
    4ab8:	40f2                	lw	ra,28(sp)
    4aba:	4462                	lw	s0,24(sp)
    4abc:	854a                	mv	a0,s2
    4abe:	44d2                	lw	s1,20(sp)
    4ac0:	4942                	lw	s2,16(sp)
    4ac2:	49b2                	lw	s3,12(sp)
    4ac4:	6105                	addi	sp,sp,32
    4ac6:	8082                	ret
    4ac8:	00001797          	auipc	a5,0x1
    4acc:	1a478793          	addi	a5,a5,420 # 5c6c <__sf_fake_stdout>
    4ad0:	00f41463          	bne	s0,a5,4ad8 <__swbuf_r+0xa4>
    4ad4:	4480                	lw	s0,8(s1)
    4ad6:	b759                	j	4a5c <__swbuf_r+0x28>
    4ad8:	00001797          	auipc	a5,0x1
    4adc:	15478793          	addi	a5,a5,340 # 5c2c <__sf_fake_stderr>
    4ae0:	f6f41ee3          	bne	s0,a5,4a5c <__swbuf_r+0x28>
    4ae4:	44c0                	lw	s0,12(s1)
    4ae6:	bf9d                	j	4a5c <__swbuf_r+0x28>
    4ae8:	85a2                	mv	a1,s0
    4aea:	8526                	mv	a0,s1
    4aec:	2021                	jal	4af4 <__swsetup_r>
    4aee:	dd3d                	beqz	a0,4a6c <__swbuf_r+0x38>
    4af0:	597d                	li	s2,-1
    4af2:	b7d9                	j	4ab8 <__swbuf_r+0x84>

00004af4 <__swsetup_r>:
__swsetup_r():
    4af4:	1141                	addi	sp,sp,-16
    4af6:	1fffb797          	auipc	a5,0x1fffb
    4afa:	57e78793          	addi	a5,a5,1406 # 20000074 <_impure_ptr>
    4afe:	c226                	sw	s1,4(sp)
    4b00:	4384                	lw	s1,0(a5)
    4b02:	c422                	sw	s0,8(sp)
    4b04:	c04a                	sw	s2,0(sp)
    4b06:	c606                	sw	ra,12(sp)
    4b08:	892a                	mv	s2,a0
    4b0a:	842e                	mv	s0,a1
    4b0c:	c489                	beqz	s1,4b16 <__swsetup_r+0x22>
    4b0e:	4c9c                	lw	a5,24(s1)
    4b10:	e399                	bnez	a5,4b16 <__swsetup_r+0x22>
    4b12:	8526                	mv	a0,s1
    4b14:	2ea9                	jal	4e6e <__sinit>
    4b16:	00001797          	auipc	a5,0x1
    4b1a:	13678793          	addi	a5,a5,310 # 5c4c <__sf_fake_stdin>
    4b1e:	02f41c63          	bne	s0,a5,4b56 <__swsetup_r+0x62>
    4b22:	40c0                	lw	s0,4(s1)
    4b24:	00c41703          	lh	a4,12(s0)
    4b28:	01071793          	slli	a5,a4,0x10
    4b2c:	83c1                	srli	a5,a5,0x10
    4b2e:	0087f693          	andi	a3,a5,8
    4b32:	eeb5                	bnez	a3,4bae <__swsetup_r+0xba>
    4b34:	0107f693          	andi	a3,a5,16
    4b38:	ee9d                	bnez	a3,4b76 <__swsetup_r+0x82>
    4b3a:	47a5                	li	a5,9
    4b3c:	00f92023          	sw	a5,0(s2)
    4b40:	04076713          	ori	a4,a4,64
    4b44:	00e41623          	sh	a4,12(s0)
    4b48:	557d                	li	a0,-1
    4b4a:	40b2                	lw	ra,12(sp)
    4b4c:	4422                	lw	s0,8(sp)
    4b4e:	4492                	lw	s1,4(sp)
    4b50:	4902                	lw	s2,0(sp)
    4b52:	0141                	addi	sp,sp,16
    4b54:	8082                	ret
    4b56:	00001797          	auipc	a5,0x1
    4b5a:	11678793          	addi	a5,a5,278 # 5c6c <__sf_fake_stdout>
    4b5e:	00f41463          	bne	s0,a5,4b66 <__swsetup_r+0x72>
    4b62:	4480                	lw	s0,8(s1)
    4b64:	b7c1                	j	4b24 <__swsetup_r+0x30>
    4b66:	00001797          	auipc	a5,0x1
    4b6a:	0c678793          	addi	a5,a5,198 # 5c2c <__sf_fake_stderr>
    4b6e:	faf41be3          	bne	s0,a5,4b24 <__swsetup_r+0x30>
    4b72:	44c0                	lw	s0,12(s1)
    4b74:	bf45                	j	4b24 <__swsetup_r+0x30>
    4b76:	8b91                	andi	a5,a5,4
    4b78:	c78d                	beqz	a5,4ba2 <__swsetup_r+0xae>
    4b7a:	584c                	lw	a1,52(s0)
    4b7c:	c989                	beqz	a1,4b8e <__swsetup_r+0x9a>
    4b7e:	04440793          	addi	a5,s0,68
    4b82:	00f58463          	beq	a1,a5,4b8a <__swsetup_r+0x96>
    4b86:	854a                	mv	a0,s2
    4b88:	23bd                	jal	50f6 <_free_r>
    4b8a:	02042a23          	sw	zero,52(s0)
    4b8e:	00c45783          	lhu	a5,12(s0)
    4b92:	00042223          	sw	zero,4(s0)
    4b96:	fdb7f793          	andi	a5,a5,-37
    4b9a:	00f41623          	sh	a5,12(s0)
    4b9e:	481c                	lw	a5,16(s0)
    4ba0:	c01c                	sw	a5,0(s0)
    4ba2:	00c45783          	lhu	a5,12(s0)
    4ba6:	0087e793          	ori	a5,a5,8
    4baa:	00f41623          	sh	a5,12(s0)
    4bae:	481c                	lw	a5,16(s0)
    4bb0:	ef81                	bnez	a5,4bc8 <__swsetup_r+0xd4>
    4bb2:	00c45783          	lhu	a5,12(s0)
    4bb6:	20000713          	li	a4,512
    4bba:	2807f793          	andi	a5,a5,640
    4bbe:	00e78563          	beq	a5,a4,4bc8 <__swsetup_r+0xd4>
    4bc2:	85a2                	mv	a1,s0
    4bc4:	854a                	mv	a0,s2
    4bc6:	29a5                	jal	503e <__smakebuf_r>
    4bc8:	00c45783          	lhu	a5,12(s0)
    4bcc:	0017f713          	andi	a4,a5,1
    4bd0:	c705                	beqz	a4,4bf8 <__swsetup_r+0x104>
    4bd2:	485c                	lw	a5,20(s0)
    4bd4:	00042423          	sw	zero,8(s0)
    4bd8:	40f007b3          	neg	a5,a5
    4bdc:	cc1c                	sw	a5,24(s0)
    4bde:	481c                	lw	a5,16(s0)
    4be0:	4501                	li	a0,0
    4be2:	f7a5                	bnez	a5,4b4a <__swsetup_r+0x56>
    4be4:	00c41783          	lh	a5,12(s0)
    4be8:	0807f713          	andi	a4,a5,128
    4bec:	df39                	beqz	a4,4b4a <__swsetup_r+0x56>
    4bee:	0407e793          	ori	a5,a5,64
    4bf2:	00f41623          	sh	a5,12(s0)
    4bf6:	bf89                	j	4b48 <__swsetup_r+0x54>
    4bf8:	8b89                	andi	a5,a5,2
    4bfa:	4701                	li	a4,0
    4bfc:	e391                	bnez	a5,4c00 <__swsetup_r+0x10c>
    4bfe:	4858                	lw	a4,20(s0)
    4c00:	c418                	sw	a4,8(s0)
    4c02:	bff1                	j	4bde <__swsetup_r+0xea>

00004c04 <abort>:
abort():
    4c04:	1141                	addi	sp,sp,-16
    4c06:	4519                	li	a0,6
    4c08:	c606                	sw	ra,12(sp)
    4c0a:	2dc5                	jal	52fa <raise>
    4c0c:	4505                	li	a0,1
    4c0e:	1b3000ef          	jal	ra,55c0 <_exit>

00004c12 <__sflush_r>:
__sflush_r():
    4c12:	00c5d783          	lhu	a5,12(a1)
    4c16:	1101                	addi	sp,sp,-32
    4c18:	cc22                	sw	s0,24(sp)
    4c1a:	ca26                	sw	s1,20(sp)
    4c1c:	ce06                	sw	ra,28(sp)
    4c1e:	c84a                	sw	s2,16(sp)
    4c20:	c64e                	sw	s3,12(sp)
    4c22:	0087f713          	andi	a4,a5,8
    4c26:	84aa                	mv	s1,a0
    4c28:	842e                	mv	s0,a1
    4c2a:	ef71                	bnez	a4,4d06 <__sflush_r+0xf4>
    4c2c:	41d8                	lw	a4,4(a1)
    4c2e:	00e04d63          	bgtz	a4,4c48 <__sflush_r+0x36>
    4c32:	41b8                	lw	a4,64(a1)
    4c34:	00e04a63          	bgtz	a4,4c48 <__sflush_r+0x36>
    4c38:	4501                	li	a0,0
    4c3a:	40f2                	lw	ra,28(sp)
    4c3c:	4462                	lw	s0,24(sp)
    4c3e:	44d2                	lw	s1,20(sp)
    4c40:	4942                	lw	s2,16(sp)
    4c42:	49b2                	lw	s3,12(sp)
    4c44:	6105                	addi	sp,sp,32
    4c46:	8082                	ret
    4c48:	5458                	lw	a4,44(s0)
    4c4a:	d77d                	beqz	a4,4c38 <__sflush_r+0x26>
    4c4c:	0004a903          	lw	s2,0(s1)
    4c50:	01379693          	slli	a3,a5,0x13
    4c54:	0004a023          	sw	zero,0(s1)
    4c58:	0606dd63          	bgez	a3,4cd2 <__sflush_r+0xc0>
    4c5c:	4870                	lw	a2,84(s0)
    4c5e:	00c45783          	lhu	a5,12(s0)
    4c62:	8b91                	andi	a5,a5,4
    4c64:	c799                	beqz	a5,4c72 <__sflush_r+0x60>
    4c66:	405c                	lw	a5,4(s0)
    4c68:	8e1d                	sub	a2,a2,a5
    4c6a:	585c                	lw	a5,52(s0)
    4c6c:	c399                	beqz	a5,4c72 <__sflush_r+0x60>
    4c6e:	403c                	lw	a5,64(s0)
    4c70:	8e1d                	sub	a2,a2,a5
    4c72:	545c                	lw	a5,44(s0)
    4c74:	500c                	lw	a1,32(s0)
    4c76:	4681                	li	a3,0
    4c78:	8526                	mv	a0,s1
    4c7a:	9782                	jalr	a5
    4c7c:	57fd                	li	a5,-1
    4c7e:	00c45703          	lhu	a4,12(s0)
    4c82:	00f51d63          	bne	a0,a5,4c9c <__sflush_r+0x8a>
    4c86:	4094                	lw	a3,0(s1)
    4c88:	47f5                	li	a5,29
    4c8a:	06d7e863          	bltu	a5,a3,4cfa <__sflush_r+0xe8>
    4c8e:	204007b7          	lui	a5,0x20400
    4c92:	0785                	addi	a5,a5,1
    4c94:	00d7d7b3          	srl	a5,a5,a3
    4c98:	8b85                	andi	a5,a5,1
    4c9a:	c3a5                	beqz	a5,4cfa <__sflush_r+0xe8>
    4c9c:	481c                	lw	a5,16(s0)
    4c9e:	00042223          	sw	zero,4(s0)
    4ca2:	c01c                	sw	a5,0(s0)
    4ca4:	01371793          	slli	a5,a4,0x13
    4ca8:	0007d863          	bgez	a5,4cb8 <__sflush_r+0xa6>
    4cac:	57fd                	li	a5,-1
    4cae:	00f51463          	bne	a0,a5,4cb6 <__sflush_r+0xa4>
    4cb2:	409c                	lw	a5,0(s1)
    4cb4:	e391                	bnez	a5,4cb8 <__sflush_r+0xa6>
    4cb6:	c868                	sw	a0,84(s0)
    4cb8:	584c                	lw	a1,52(s0)
    4cba:	0124a023          	sw	s2,0(s1)
    4cbe:	ddad                	beqz	a1,4c38 <__sflush_r+0x26>
    4cc0:	04440793          	addi	a5,s0,68
    4cc4:	00f58463          	beq	a1,a5,4ccc <__sflush_r+0xba>
    4cc8:	8526                	mv	a0,s1
    4cca:	2135                	jal	50f6 <_free_r>
    4ccc:	02042a23          	sw	zero,52(s0)
    4cd0:	b7a5                	j	4c38 <__sflush_r+0x26>
    4cd2:	500c                	lw	a1,32(s0)
    4cd4:	4601                	li	a2,0
    4cd6:	4685                	li	a3,1
    4cd8:	8526                	mv	a0,s1
    4cda:	9702                	jalr	a4
    4cdc:	57fd                	li	a5,-1
    4cde:	862a                	mv	a2,a0
    4ce0:	f6f51fe3          	bne	a0,a5,4c5e <__sflush_r+0x4c>
    4ce4:	409c                	lw	a5,0(s1)
    4ce6:	dfa5                	beqz	a5,4c5e <__sflush_r+0x4c>
    4ce8:	4775                	li	a4,29
    4cea:	00e78563          	beq	a5,a4,4cf4 <__sflush_r+0xe2>
    4cee:	4759                	li	a4,22
    4cf0:	04e79463          	bne	a5,a4,4d38 <__sflush_r+0x126>
    4cf4:	0124a023          	sw	s2,0(s1)
    4cf8:	b781                	j	4c38 <__sflush_r+0x26>
    4cfa:	04076713          	ori	a4,a4,64
    4cfe:	00e41623          	sh	a4,12(s0)
    4d02:	557d                	li	a0,-1
    4d04:	bf1d                	j	4c3a <__sflush_r+0x28>
    4d06:	0105a983          	lw	s3,16(a1)
    4d0a:	f20987e3          	beqz	s3,4c38 <__sflush_r+0x26>
    4d0e:	0005a903          	lw	s2,0(a1)
    4d12:	8b8d                	andi	a5,a5,3
    4d14:	0135a023          	sw	s3,0(a1)
    4d18:	41390933          	sub	s2,s2,s3
    4d1c:	4701                	li	a4,0
    4d1e:	e391                	bnez	a5,4d22 <__sflush_r+0x110>
    4d20:	49d8                	lw	a4,20(a1)
    4d22:	c418                	sw	a4,8(s0)
    4d24:	f1205ae3          	blez	s2,4c38 <__sflush_r+0x26>
    4d28:	541c                	lw	a5,40(s0)
    4d2a:	500c                	lw	a1,32(s0)
    4d2c:	86ca                	mv	a3,s2
    4d2e:	864e                	mv	a2,s3
    4d30:	8526                	mv	a0,s1
    4d32:	9782                	jalr	a5
    4d34:	00a04963          	bgtz	a0,4d46 <__sflush_r+0x134>
    4d38:	00c45783          	lhu	a5,12(s0)
    4d3c:	0407e793          	ori	a5,a5,64
    4d40:	00f41623          	sh	a5,12(s0)
    4d44:	bf7d                	j	4d02 <__sflush_r+0xf0>
    4d46:	99aa                	add	s3,s3,a0
    4d48:	40a90933          	sub	s2,s2,a0
    4d4c:	bfe1                	j	4d24 <__sflush_r+0x112>

00004d4e <_fflush_r>:
_fflush_r():
    4d4e:	499c                	lw	a5,16(a1)
    4d50:	c3a5                	beqz	a5,4db0 <_fflush_r+0x62>
    4d52:	1101                	addi	sp,sp,-32
    4d54:	cc22                	sw	s0,24(sp)
    4d56:	ce06                	sw	ra,28(sp)
    4d58:	842a                	mv	s0,a0
    4d5a:	c511                	beqz	a0,4d66 <_fflush_r+0x18>
    4d5c:	4d1c                	lw	a5,24(a0)
    4d5e:	e781                	bnez	a5,4d66 <_fflush_r+0x18>
    4d60:	c62e                	sw	a1,12(sp)
    4d62:	2231                	jal	4e6e <__sinit>
    4d64:	45b2                	lw	a1,12(sp)
    4d66:	00001797          	auipc	a5,0x1
    4d6a:	ee678793          	addi	a5,a5,-282 # 5c4c <__sf_fake_stdin>
    4d6e:	00f59c63          	bne	a1,a5,4d86 <_fflush_r+0x38>
    4d72:	404c                	lw	a1,4(s0)
    4d74:	00c59783          	lh	a5,12(a1)
    4d78:	c79d                	beqz	a5,4da6 <_fflush_r+0x58>
    4d7a:	8522                	mv	a0,s0
    4d7c:	4462                	lw	s0,24(sp)
    4d7e:	40f2                	lw	ra,28(sp)
    4d80:	6105                	addi	sp,sp,32
    4d82:	e91ff06f          	j	4c12 <__sflush_r>
    4d86:	00001797          	auipc	a5,0x1
    4d8a:	ee678793          	addi	a5,a5,-282 # 5c6c <__sf_fake_stdout>
    4d8e:	00f59463          	bne	a1,a5,4d96 <_fflush_r+0x48>
    4d92:	440c                	lw	a1,8(s0)
    4d94:	b7c5                	j	4d74 <_fflush_r+0x26>
    4d96:	00001797          	auipc	a5,0x1
    4d9a:	e9678793          	addi	a5,a5,-362 # 5c2c <__sf_fake_stderr>
    4d9e:	fcf59be3          	bne	a1,a5,4d74 <_fflush_r+0x26>
    4da2:	444c                	lw	a1,12(s0)
    4da4:	bfc1                	j	4d74 <_fflush_r+0x26>
    4da6:	40f2                	lw	ra,28(sp)
    4da8:	4462                	lw	s0,24(sp)
    4daa:	4501                	li	a0,0
    4dac:	6105                	addi	sp,sp,32
    4dae:	8082                	ret
    4db0:	4501                	li	a0,0
    4db2:	8082                	ret

00004db4 <std>:
std():
    4db4:	1141                	addi	sp,sp,-16
    4db6:	c422                	sw	s0,8(sp)
    4db8:	c606                	sw	ra,12(sp)
    4dba:	842a                	mv	s0,a0
    4dbc:	00b51623          	sh	a1,12(a0)
    4dc0:	00c51723          	sh	a2,14(a0)
    4dc4:	00052023          	sw	zero,0(a0)
    4dc8:	00052223          	sw	zero,4(a0)
    4dcc:	00052423          	sw	zero,8(a0)
    4dd0:	06052223          	sw	zero,100(a0)
    4dd4:	00052823          	sw	zero,16(a0)
    4dd8:	00052a23          	sw	zero,20(a0)
    4ddc:	00052c23          	sw	zero,24(a0)
    4de0:	4621                	li	a2,8
    4de2:	4581                	li	a1,0
    4de4:	05c50513          	addi	a0,a0,92
    4de8:	b58fb0ef          	jal	ra,140 <memset>
    4dec:	00000797          	auipc	a5,0x0
    4df0:	55278793          	addi	a5,a5,1362 # 533e <__sread>
    4df4:	d05c                	sw	a5,36(s0)
    4df6:	00000797          	auipc	a5,0x0
    4dfa:	57878793          	addi	a5,a5,1400 # 536e <__swrite>
    4dfe:	d41c                	sw	a5,40(s0)
    4e00:	00000797          	auipc	a5,0x0
    4e04:	5bc78793          	addi	a5,a5,1468 # 53bc <__sseek>
    4e08:	d45c                	sw	a5,44(s0)
    4e0a:	00000797          	auipc	a5,0x0
    4e0e:	5e878793          	addi	a5,a5,1512 # 53f2 <__sclose>
    4e12:	d000                	sw	s0,32(s0)
    4e14:	d81c                	sw	a5,48(s0)
    4e16:	40b2                	lw	ra,12(sp)
    4e18:	4422                	lw	s0,8(sp)
    4e1a:	0141                	addi	sp,sp,16
    4e1c:	8082                	ret

00004e1e <_cleanup_r>:
_cleanup_r():
    4e1e:	00000597          	auipc	a1,0x0
    4e22:	f3058593          	addi	a1,a1,-208 # 4d4e <_fflush_r>
    4e26:	aa91                	j	4f7a <_fwalk_reent>

00004e28 <__sfmoreglue>:
__sfmoreglue():
    4e28:	1141                	addi	sp,sp,-16
    4e2a:	c226                	sw	s1,4(sp)
    4e2c:	06800613          	li	a2,104
    4e30:	fff58493          	addi	s1,a1,-1
    4e34:	02c484b3          	mul	s1,s1,a2
    4e38:	c04a                	sw	s2,0(sp)
    4e3a:	892e                	mv	s2,a1
    4e3c:	c422                	sw	s0,8(sp)
    4e3e:	c606                	sw	ra,12(sp)
    4e40:	07448593          	addi	a1,s1,116
    4e44:	2e99                	jal	519a <_malloc_r>
    4e46:	842a                	mv	s0,a0
    4e48:	cd01                	beqz	a0,4e60 <__sfmoreglue+0x38>
    4e4a:	00052023          	sw	zero,0(a0)
    4e4e:	01252223          	sw	s2,4(a0)
    4e52:	0531                	addi	a0,a0,12
    4e54:	c408                	sw	a0,8(s0)
    4e56:	06848613          	addi	a2,s1,104
    4e5a:	4581                	li	a1,0
    4e5c:	ae4fb0ef          	jal	ra,140 <memset>
    4e60:	8522                	mv	a0,s0
    4e62:	40b2                	lw	ra,12(sp)
    4e64:	4422                	lw	s0,8(sp)
    4e66:	4492                	lw	s1,4(sp)
    4e68:	4902                	lw	s2,0(sp)
    4e6a:	0141                	addi	sp,sp,16
    4e6c:	8082                	ret

00004e6e <__sinit>:
__sinit():
    4e6e:	4d1c                	lw	a5,24(a0)
    4e70:	e7a5                	bnez	a5,4ed8 <__sinit+0x6a>
    4e72:	1141                	addi	sp,sp,-16
    4e74:	c606                	sw	ra,12(sp)
    4e76:	c422                	sw	s0,8(sp)
    4e78:	00000797          	auipc	a5,0x0
    4e7c:	fa678793          	addi	a5,a5,-90 # 4e1e <_cleanup_r>
    4e80:	d51c                	sw	a5,40(a0)
    4e82:	80818793          	addi	a5,gp,-2040 # 20000078 <_global_impure_ptr>
    4e86:	439c                	lw	a5,0(a5)
    4e88:	04052423          	sw	zero,72(a0)
    4e8c:	04052623          	sw	zero,76(a0)
    4e90:	04052823          	sw	zero,80(a0)
    4e94:	00f51463          	bne	a0,a5,4e9c <__sinit+0x2e>
    4e98:	4785                	li	a5,1
    4e9a:	cd1c                	sw	a5,24(a0)
    4e9c:	842a                	mv	s0,a0
    4e9e:	2835                	jal	4eda <__sfp>
    4ea0:	c048                	sw	a0,4(s0)
    4ea2:	8522                	mv	a0,s0
    4ea4:	281d                	jal	4eda <__sfp>
    4ea6:	c408                	sw	a0,8(s0)
    4ea8:	8522                	mv	a0,s0
    4eaa:	2805                	jal	4eda <__sfp>
    4eac:	c448                	sw	a0,12(s0)
    4eae:	4048                	lw	a0,4(s0)
    4eb0:	4601                	li	a2,0
    4eb2:	4591                	li	a1,4
    4eb4:	f01ff0ef          	jal	ra,4db4 <std>
    4eb8:	4408                	lw	a0,8(s0)
    4eba:	4605                	li	a2,1
    4ebc:	45a5                	li	a1,9
    4ebe:	ef7ff0ef          	jal	ra,4db4 <std>
    4ec2:	4448                	lw	a0,12(s0)
    4ec4:	4609                	li	a2,2
    4ec6:	45c9                	li	a1,18
    4ec8:	eedff0ef          	jal	ra,4db4 <std>
    4ecc:	4785                	li	a5,1
    4ece:	cc1c                	sw	a5,24(s0)
    4ed0:	40b2                	lw	ra,12(sp)
    4ed2:	4422                	lw	s0,8(sp)
    4ed4:	0141                	addi	sp,sp,16
    4ed6:	8082                	ret
    4ed8:	8082                	ret

00004eda <__sfp>:
__sfp():
    4eda:	1141                	addi	sp,sp,-16
    4edc:	80818793          	addi	a5,gp,-2040 # 20000078 <_global_impure_ptr>
    4ee0:	c226                	sw	s1,4(sp)
    4ee2:	4384                	lw	s1,0(a5)
    4ee4:	c04a                	sw	s2,0(sp)
    4ee6:	c606                	sw	ra,12(sp)
    4ee8:	4c9c                	lw	a5,24(s1)
    4eea:	c422                	sw	s0,8(sp)
    4eec:	892a                	mv	s2,a0
    4eee:	e781                	bnez	a5,4ef6 <__sfp+0x1c>
    4ef0:	8526                	mv	a0,s1
    4ef2:	f7dff0ef          	jal	ra,4e6e <__sinit>
    4ef6:	04848493          	addi	s1,s1,72
    4efa:	4480                	lw	s0,8(s1)
    4efc:	40dc                	lw	a5,4(s1)
    4efe:	17fd                	addi	a5,a5,-1
    4f00:	0007d663          	bgez	a5,4f0c <__sfp+0x32>
    4f04:	409c                	lw	a5,0(s1)
    4f06:	cfb9                	beqz	a5,4f64 <__sfp+0x8a>
    4f08:	4084                	lw	s1,0(s1)
    4f0a:	bfc5                	j	4efa <__sfp+0x20>
    4f0c:	00c41703          	lh	a4,12(s0)
    4f10:	e739                	bnez	a4,4f5e <__sfp+0x84>
    4f12:	77c1                	lui	a5,0xffff0
    4f14:	0785                	addi	a5,a5,1
    4f16:	06042223          	sw	zero,100(s0)
    4f1a:	00042023          	sw	zero,0(s0)
    4f1e:	00042223          	sw	zero,4(s0)
    4f22:	00042423          	sw	zero,8(s0)
    4f26:	c45c                	sw	a5,12(s0)
    4f28:	00042823          	sw	zero,16(s0)
    4f2c:	00042a23          	sw	zero,20(s0)
    4f30:	00042c23          	sw	zero,24(s0)
    4f34:	4621                	li	a2,8
    4f36:	4581                	li	a1,0
    4f38:	05c40513          	addi	a0,s0,92
    4f3c:	a04fb0ef          	jal	ra,140 <memset>
    4f40:	02042a23          	sw	zero,52(s0)
    4f44:	02042c23          	sw	zero,56(s0)
    4f48:	04042423          	sw	zero,72(s0)
    4f4c:	04042623          	sw	zero,76(s0)
    4f50:	8522                	mv	a0,s0
    4f52:	40b2                	lw	ra,12(sp)
    4f54:	4422                	lw	s0,8(sp)
    4f56:	4492                	lw	s1,4(sp)
    4f58:	4902                	lw	s2,0(sp)
    4f5a:	0141                	addi	sp,sp,16
    4f5c:	8082                	ret
    4f5e:	06840413          	addi	s0,s0,104
    4f62:	bf71                	j	4efe <__sfp+0x24>
    4f64:	4591                	li	a1,4
    4f66:	854a                	mv	a0,s2
    4f68:	ec1ff0ef          	jal	ra,4e28 <__sfmoreglue>
    4f6c:	c088                	sw	a0,0(s1)
    4f6e:	fd49                	bnez	a0,4f08 <__sfp+0x2e>
    4f70:	47b1                	li	a5,12
    4f72:	00f92023          	sw	a5,0(s2)
    4f76:	4401                	li	s0,0
    4f78:	bfe1                	j	4f50 <__sfp+0x76>

00004f7a <_fwalk_reent>:
_fwalk_reent():
    4f7a:	7179                	addi	sp,sp,-48
    4f7c:	d422                	sw	s0,40(sp)
    4f7e:	d04a                	sw	s2,32(sp)
    4f80:	cc52                	sw	s4,24(sp)
    4f82:	ca56                	sw	s5,20(sp)
    4f84:	c85a                	sw	s6,16(sp)
    4f86:	c65e                	sw	s7,12(sp)
    4f88:	d606                	sw	ra,44(sp)
    4f8a:	d226                	sw	s1,36(sp)
    4f8c:	ce4e                	sw	s3,28(sp)
    4f8e:	8a2a                	mv	s4,a0
    4f90:	8aae                	mv	s5,a1
    4f92:	04850413          	addi	s0,a0,72
    4f96:	4901                	li	s2,0
    4f98:	4b05                	li	s6,1
    4f9a:	5bfd                	li	s7,-1
    4f9c:	ec09                	bnez	s0,4fb6 <_fwalk_reent+0x3c>
    4f9e:	50b2                	lw	ra,44(sp)
    4fa0:	5422                	lw	s0,40(sp)
    4fa2:	854a                	mv	a0,s2
    4fa4:	5492                	lw	s1,36(sp)
    4fa6:	5902                	lw	s2,32(sp)
    4fa8:	49f2                	lw	s3,28(sp)
    4faa:	4a62                	lw	s4,24(sp)
    4fac:	4ad2                	lw	s5,20(sp)
    4fae:	4b42                	lw	s6,16(sp)
    4fb0:	4bb2                	lw	s7,12(sp)
    4fb2:	6145                	addi	sp,sp,48
    4fb4:	8082                	ret
    4fb6:	4404                	lw	s1,8(s0)
    4fb8:	00442983          	lw	s3,4(s0)
    4fbc:	19fd                	addi	s3,s3,-1
    4fbe:	0009d463          	bgez	s3,4fc6 <_fwalk_reent+0x4c>
    4fc2:	4000                	lw	s0,0(s0)
    4fc4:	bfe1                	j	4f9c <_fwalk_reent+0x22>
    4fc6:	00c4d783          	lhu	a5,12(s1)
    4fca:	00fb7b63          	bgeu	s6,a5,4fe0 <_fwalk_reent+0x66>
    4fce:	00e49783          	lh	a5,14(s1)
    4fd2:	01778763          	beq	a5,s7,4fe0 <_fwalk_reent+0x66>
    4fd6:	85a6                	mv	a1,s1
    4fd8:	8552                	mv	a0,s4
    4fda:	9a82                	jalr	s5
    4fdc:	00a96933          	or	s2,s2,a0
    4fe0:	06848493          	addi	s1,s1,104
    4fe4:	bfe1                	j	4fbc <_fwalk_reent+0x42>

00004fe6 <__swhatbuf_r>:
__swhatbuf_r():
    4fe6:	7119                	addi	sp,sp,-128
    4fe8:	daa6                	sw	s1,116(sp)
    4fea:	84ae                	mv	s1,a1
    4fec:	00e59583          	lh	a1,14(a1)
    4ff0:	dca2                	sw	s0,120(sp)
    4ff2:	de86                	sw	ra,124(sp)
    4ff4:	8432                	mv	s0,a2
    4ff6:	0005dc63          	bgez	a1,500e <__swhatbuf_r+0x28>
    4ffa:	00c4d783          	lhu	a5,12(s1)
    4ffe:	0006a023          	sw	zero,0(a3)
    5002:	0807f793          	andi	a5,a5,128
    5006:	e39d                	bnez	a5,502c <__swhatbuf_r+0x46>
    5008:	40000793          	li	a5,1024
    500c:	a015                	j	5030 <__swhatbuf_r+0x4a>
    500e:	0830                	addi	a2,sp,24
    5010:	c636                	sw	a3,12(sp)
    5012:	21b1                	jal	545e <_fstat_r>
    5014:	46b2                	lw	a3,12(sp)
    5016:	fe0542e3          	bltz	a0,4ffa <__swhatbuf_r+0x14>
    501a:	4772                	lw	a4,28(sp)
    501c:	67bd                	lui	a5,0xf
    501e:	8ff9                	and	a5,a5,a4
    5020:	7779                	lui	a4,0xffffe
    5022:	97ba                	add	a5,a5,a4
    5024:	0017b793          	seqz	a5,a5
    5028:	c29c                	sw	a5,0(a3)
    502a:	bff9                	j	5008 <__swhatbuf_r+0x22>
    502c:	04000793          	li	a5,64
    5030:	c01c                	sw	a5,0(s0)
    5032:	50f6                	lw	ra,124(sp)
    5034:	5466                	lw	s0,120(sp)
    5036:	54d6                	lw	s1,116(sp)
    5038:	4501                	li	a0,0
    503a:	6109                	addi	sp,sp,128
    503c:	8082                	ret

0000503e <__smakebuf_r>:
__smakebuf_r():
    503e:	00c5d783          	lhu	a5,12(a1)
    5042:	1101                	addi	sp,sp,-32
    5044:	cc22                	sw	s0,24(sp)
    5046:	ce06                	sw	ra,28(sp)
    5048:	ca26                	sw	s1,20(sp)
    504a:	c84a                	sw	s2,16(sp)
    504c:	8b89                	andi	a5,a5,2
    504e:	842e                	mv	s0,a1
    5050:	cf89                	beqz	a5,506a <__smakebuf_r+0x2c>
    5052:	04740793          	addi	a5,s0,71
    5056:	c01c                	sw	a5,0(s0)
    5058:	c81c                	sw	a5,16(s0)
    505a:	4785                	li	a5,1
    505c:	c85c                	sw	a5,20(s0)
    505e:	40f2                	lw	ra,28(sp)
    5060:	4462                	lw	s0,24(sp)
    5062:	44d2                	lw	s1,20(sp)
    5064:	4942                	lw	s2,16(sp)
    5066:	6105                	addi	sp,sp,32
    5068:	8082                	ret
    506a:	0074                	addi	a3,sp,12
    506c:	0030                	addi	a2,sp,8
    506e:	84aa                	mv	s1,a0
    5070:	f77ff0ef          	jal	ra,4fe6 <__swhatbuf_r>
    5074:	45a2                	lw	a1,8(sp)
    5076:	892a                	mv	s2,a0
    5078:	8526                	mv	a0,s1
    507a:	2205                	jal	519a <_malloc_r>
    507c:	ed01                	bnez	a0,5094 <__smakebuf_r+0x56>
    507e:	00c41783          	lh	a5,12(s0)
    5082:	2007f713          	andi	a4,a5,512
    5086:	ff61                	bnez	a4,505e <__smakebuf_r+0x20>
    5088:	9bf1                	andi	a5,a5,-4
    508a:	0027e793          	ori	a5,a5,2
    508e:	00f41623          	sh	a5,12(s0)
    5092:	b7c1                	j	5052 <__smakebuf_r+0x14>
    5094:	00000797          	auipc	a5,0x0
    5098:	d8a78793          	addi	a5,a5,-630 # 4e1e <_cleanup_r>
    509c:	d49c                	sw	a5,40(s1)
    509e:	00c45783          	lhu	a5,12(s0)
    50a2:	c008                	sw	a0,0(s0)
    50a4:	c808                	sw	a0,16(s0)
    50a6:	0807e793          	ori	a5,a5,128
    50aa:	00f41623          	sh	a5,12(s0)
    50ae:	47a2                	lw	a5,8(sp)
    50b0:	c85c                	sw	a5,20(s0)
    50b2:	47b2                	lw	a5,12(sp)
    50b4:	cf89                	beqz	a5,50ce <__smakebuf_r+0x90>
    50b6:	00e41583          	lh	a1,14(s0)
    50ba:	8526                	mv	a0,s1
    50bc:	2ed1                	jal	5490 <_isatty_r>
    50be:	c901                	beqz	a0,50ce <__smakebuf_r+0x90>
    50c0:	00c45783          	lhu	a5,12(s0)
    50c4:	9bf1                	andi	a5,a5,-4
    50c6:	0017e793          	ori	a5,a5,1
    50ca:	00f41623          	sh	a5,12(s0)
    50ce:	00c45783          	lhu	a5,12(s0)
    50d2:	00f96933          	or	s2,s2,a5
    50d6:	01241623          	sh	s2,12(s0)
    50da:	b751                	j	505e <__smakebuf_r+0x20>

000050dc <memchr>:
memchr():
    50dc:	0ff5f593          	andi	a1,a1,255
    50e0:	962a                	add	a2,a2,a0
    50e2:	00c51463          	bne	a0,a2,50ea <memchr+0xe>
    50e6:	4501                	li	a0,0
    50e8:	8082                	ret
    50ea:	00054783          	lbu	a5,0(a0)
    50ee:	feb78de3          	beq	a5,a1,50e8 <memchr+0xc>
    50f2:	0505                	addi	a0,a0,1
    50f4:	b7fd                	j	50e2 <memchr+0x6>

000050f6 <_free_r>:
_free_r():
    50f6:	c1cd                	beqz	a1,5198 <_free_r+0xa2>
    50f8:	ffc5a783          	lw	a5,-4(a1)
    50fc:	1141                	addi	sp,sp,-16
    50fe:	c422                	sw	s0,8(sp)
    5100:	c606                	sw	ra,12(sp)
    5102:	c226                	sw	s1,4(sp)
    5104:	ffc58413          	addi	s0,a1,-4
    5108:	0007d363          	bgez	a5,510e <_free_r+0x18>
    510c:	943e                	add	s0,s0,a5
    510e:	84aa                	mv	s1,a0
    5110:	26d5                	jal	54f4 <__malloc_lock>
    5112:	82c18793          	addi	a5,gp,-2004 # 2000009c <__malloc_free_list>
    5116:	439c                	lw	a5,0(a5)
    5118:	eb99                	bnez	a5,512e <_free_r+0x38>
    511a:	00042223          	sw	zero,4(s0)
    511e:	8281a623          	sw	s0,-2004(gp) # 2000009c <__malloc_free_list>
    5122:	4422                	lw	s0,8(sp)
    5124:	40b2                	lw	ra,12(sp)
    5126:	8526                	mv	a0,s1
    5128:	4492                	lw	s1,4(sp)
    512a:	0141                	addi	sp,sp,16
    512c:	a6e9                	j	54f6 <__malloc_unlock>
    512e:	00f47e63          	bgeu	s0,a5,514a <_free_r+0x54>
    5132:	4014                	lw	a3,0(s0)
    5134:	00d40733          	add	a4,s0,a3
    5138:	00e79663          	bne	a5,a4,5144 <_free_r+0x4e>
    513c:	4398                	lw	a4,0(a5)
    513e:	43dc                	lw	a5,4(a5)
    5140:	9736                	add	a4,a4,a3
    5142:	c018                	sw	a4,0(s0)
    5144:	c05c                	sw	a5,4(s0)
    5146:	bfe1                	j	511e <_free_r+0x28>
    5148:	87ba                	mv	a5,a4
    514a:	43d8                	lw	a4,4(a5)
    514c:	c319                	beqz	a4,5152 <_free_r+0x5c>
    514e:	fee47de3          	bgeu	s0,a4,5148 <_free_r+0x52>
    5152:	4394                	lw	a3,0(a5)
    5154:	00d78633          	add	a2,a5,a3
    5158:	00861f63          	bne	a2,s0,5176 <_free_r+0x80>
    515c:	4010                	lw	a2,0(s0)
    515e:	96b2                	add	a3,a3,a2
    5160:	c394                	sw	a3,0(a5)
    5162:	00d78633          	add	a2,a5,a3
    5166:	fac71ee3          	bne	a4,a2,5122 <_free_r+0x2c>
    516a:	4310                	lw	a2,0(a4)
    516c:	4358                	lw	a4,4(a4)
    516e:	96b2                	add	a3,a3,a2
    5170:	c394                	sw	a3,0(a5)
    5172:	c3d8                	sw	a4,4(a5)
    5174:	b77d                	j	5122 <_free_r+0x2c>
    5176:	00c47563          	bgeu	s0,a2,5180 <_free_r+0x8a>
    517a:	47b1                	li	a5,12
    517c:	c09c                	sw	a5,0(s1)
    517e:	b755                	j	5122 <_free_r+0x2c>
    5180:	4010                	lw	a2,0(s0)
    5182:	00c406b3          	add	a3,s0,a2
    5186:	00d71663          	bne	a4,a3,5192 <_free_r+0x9c>
    518a:	4314                	lw	a3,0(a4)
    518c:	4358                	lw	a4,4(a4)
    518e:	96b2                	add	a3,a3,a2
    5190:	c014                	sw	a3,0(s0)
    5192:	c058                	sw	a4,4(s0)
    5194:	c3c0                	sw	s0,4(a5)
    5196:	b771                	j	5122 <_free_r+0x2c>
    5198:	8082                	ret

0000519a <_malloc_r>:
_malloc_r():
    519a:	1101                	addi	sp,sp,-32
    519c:	ca26                	sw	s1,20(sp)
    519e:	00358493          	addi	s1,a1,3
    51a2:	98f1                	andi	s1,s1,-4
    51a4:	ce06                	sw	ra,28(sp)
    51a6:	cc22                	sw	s0,24(sp)
    51a8:	c84a                	sw	s2,16(sp)
    51aa:	c64e                	sw	s3,12(sp)
    51ac:	04a1                	addi	s1,s1,8
    51ae:	47b1                	li	a5,12
    51b0:	04f4f163          	bgeu	s1,a5,51f2 <_malloc_r+0x58>
    51b4:	44b1                	li	s1,12
    51b6:	04b4e063          	bltu	s1,a1,51f6 <_malloc_r+0x5c>
    51ba:	892a                	mv	s2,a0
    51bc:	2e25                	jal	54f4 <__malloc_lock>
    51be:	82c18793          	addi	a5,gp,-2004 # 2000009c <__malloc_free_list>
    51c2:	4398                	lw	a4,0(a5)
    51c4:	843a                	mv	s0,a4
    51c6:	e031                	bnez	s0,520a <_malloc_r+0x70>
    51c8:	83018793          	addi	a5,gp,-2000 # 200000a0 <__malloc_sbrk_start>
    51cc:	439c                	lw	a5,0(a5)
    51ce:	e791                	bnez	a5,51da <_malloc_r+0x40>
    51d0:	4581                	li	a1,0
    51d2:	854a                	mv	a0,s2
    51d4:	2851                	jal	5268 <_sbrk_r>
    51d6:	82a1a823          	sw	a0,-2000(gp) # 200000a0 <__malloc_sbrk_start>
    51da:	85a6                	mv	a1,s1
    51dc:	854a                	mv	a0,s2
    51de:	2069                	jal	5268 <_sbrk_r>
    51e0:	59fd                	li	s3,-1
    51e2:	07351763          	bne	a0,s3,5250 <_malloc_r+0xb6>
    51e6:	47b1                	li	a5,12
    51e8:	00f92023          	sw	a5,0(s2)
    51ec:	854a                	mv	a0,s2
    51ee:	2621                	jal	54f6 <__malloc_unlock>
    51f0:	a029                	j	51fa <_malloc_r+0x60>
    51f2:	fc04d2e3          	bgez	s1,51b6 <_malloc_r+0x1c>
    51f6:	47b1                	li	a5,12
    51f8:	c11c                	sw	a5,0(a0)
    51fa:	4501                	li	a0,0
    51fc:	40f2                	lw	ra,28(sp)
    51fe:	4462                	lw	s0,24(sp)
    5200:	44d2                	lw	s1,20(sp)
    5202:	4942                	lw	s2,16(sp)
    5204:	49b2                	lw	s3,12(sp)
    5206:	6105                	addi	sp,sp,32
    5208:	8082                	ret
    520a:	401c                	lw	a5,0(s0)
    520c:	8f85                	sub	a5,a5,s1
    520e:	0207ce63          	bltz	a5,524a <_malloc_r+0xb0>
    5212:	46ad                	li	a3,11
    5214:	00f6f663          	bgeu	a3,a5,5220 <_malloc_r+0x86>
    5218:	c01c                	sw	a5,0(s0)
    521a:	943e                	add	s0,s0,a5
    521c:	c004                	sw	s1,0(s0)
    521e:	a031                	j	522a <_malloc_r+0x90>
    5220:	405c                	lw	a5,4(s0)
    5222:	02871263          	bne	a4,s0,5246 <_malloc_r+0xac>
    5226:	82f1a623          	sw	a5,-2004(gp) # 2000009c <__malloc_free_list>
    522a:	854a                	mv	a0,s2
    522c:	24e9                	jal	54f6 <__malloc_unlock>
    522e:	00b40513          	addi	a0,s0,11
    5232:	00440793          	addi	a5,s0,4
    5236:	9961                	andi	a0,a0,-8
    5238:	40f50733          	sub	a4,a0,a5
    523c:	d361                	beqz	a4,51fc <_malloc_r+0x62>
    523e:	943a                	add	s0,s0,a4
    5240:	8f89                	sub	a5,a5,a0
    5242:	c01c                	sw	a5,0(s0)
    5244:	bf65                	j	51fc <_malloc_r+0x62>
    5246:	c35c                	sw	a5,4(a4)
    5248:	b7cd                	j	522a <_malloc_r+0x90>
    524a:	8722                	mv	a4,s0
    524c:	4040                	lw	s0,4(s0)
    524e:	bfa5                	j	51c6 <_malloc_r+0x2c>
    5250:	00350413          	addi	s0,a0,3
    5254:	9871                	andi	s0,s0,-4
    5256:	fc8503e3          	beq	a0,s0,521c <_malloc_r+0x82>
    525a:	40a405b3          	sub	a1,s0,a0
    525e:	854a                	mv	a0,s2
    5260:	2021                	jal	5268 <_sbrk_r>
    5262:	fb351de3          	bne	a0,s3,521c <_malloc_r+0x82>
    5266:	b741                	j	51e6 <_malloc_r+0x4c>

00005268 <_sbrk_r>:
_sbrk_r():
    5268:	1141                	addi	sp,sp,-16
    526a:	c422                	sw	s0,8(sp)
    526c:	842a                	mv	s0,a0
    526e:	852e                	mv	a0,a1
    5270:	1fffe797          	auipc	a5,0x1fffe
    5274:	e007a223          	sw	zero,-508(a5) # 20003074 <errno>
    5278:	c606                	sw	ra,12(sp)
    527a:	260d                	jal	559c <_sbrk>
    527c:	57fd                	li	a5,-1
    527e:	00f51963          	bne	a0,a5,5290 <_sbrk_r+0x28>
    5282:	1fffe797          	auipc	a5,0x1fffe
    5286:	df278793          	addi	a5,a5,-526 # 20003074 <errno>
    528a:	439c                	lw	a5,0(a5)
    528c:	c391                	beqz	a5,5290 <_sbrk_r+0x28>
    528e:	c01c                	sw	a5,0(s0)
    5290:	40b2                	lw	ra,12(sp)
    5292:	4422                	lw	s0,8(sp)
    5294:	0141                	addi	sp,sp,16
    5296:	8082                	ret

00005298 <_raise_r>:
_raise_r():
    5298:	47fd                	li	a5,31
    529a:	00b7f663          	bgeu	a5,a1,52a6 <_raise_r+0xe>
    529e:	47d9                	li	a5,22
    52a0:	c11c                	sw	a5,0(a0)
    52a2:	557d                	li	a0,-1
    52a4:	8082                	ret
    52a6:	417c                	lw	a5,68(a0)
    52a8:	1101                	addi	sp,sp,-32
    52aa:	cc22                	sw	s0,24(sp)
    52ac:	ce06                	sw	ra,28(sp)
    52ae:	862e                	mv	a2,a1
    52b0:	842a                	mv	s0,a0
    52b2:	c791                	beqz	a5,52be <_raise_r+0x26>
    52b4:	00259713          	slli	a4,a1,0x2
    52b8:	97ba                	add	a5,a5,a4
    52ba:	4398                	lw	a4,0(a5)
    52bc:	eb19                	bnez	a4,52d2 <_raise_r+0x3a>
    52be:	8522                	mv	a0,s0
    52c0:	c632                	sw	a2,12(sp)
    52c2:	28ad                	jal	533c <_getpid_r>
    52c4:	85aa                	mv	a1,a0
    52c6:	8522                	mv	a0,s0
    52c8:	4462                	lw	s0,24(sp)
    52ca:	4632                	lw	a2,12(sp)
    52cc:	40f2                	lw	ra,28(sp)
    52ce:	6105                	addi	sp,sp,32
    52d0:	a82d                	j	530a <_kill_r>
    52d2:	4685                	li	a3,1
    52d4:	4501                	li	a0,0
    52d6:	00d70863          	beq	a4,a3,52e6 <_raise_r+0x4e>
    52da:	56fd                	li	a3,-1
    52dc:	00d71963          	bne	a4,a3,52ee <_raise_r+0x56>
    52e0:	47d9                	li	a5,22
    52e2:	c01c                	sw	a5,0(s0)
    52e4:	4505                	li	a0,1
    52e6:	40f2                	lw	ra,28(sp)
    52e8:	4462                	lw	s0,24(sp)
    52ea:	6105                	addi	sp,sp,32
    52ec:	8082                	ret
    52ee:	852e                	mv	a0,a1
    52f0:	0007a023          	sw	zero,0(a5)
    52f4:	9702                	jalr	a4
    52f6:	4501                	li	a0,0
    52f8:	b7fd                	j	52e6 <_raise_r+0x4e>

000052fa <raise>:
raise():
    52fa:	1fffb797          	auipc	a5,0x1fffb
    52fe:	d7a78793          	addi	a5,a5,-646 # 20000074 <_impure_ptr>
    5302:	85aa                	mv	a1,a0
    5304:	4388                	lw	a0,0(a5)
    5306:	f93ff06f          	j	5298 <_raise_r>

0000530a <_kill_r>:
_kill_r():
    530a:	1141                	addi	sp,sp,-16
    530c:	c422                	sw	s0,8(sp)
    530e:	842a                	mv	s0,a0
    5310:	852e                	mv	a0,a1
    5312:	85b2                	mv	a1,a2
    5314:	1fffe797          	auipc	a5,0x1fffe
    5318:	d607a023          	sw	zero,-672(a5) # 20003074 <errno>
    531c:	c606                	sw	ra,12(sp)
    531e:	24b9                	jal	556c <_kill>
    5320:	57fd                	li	a5,-1
    5322:	00f51963          	bne	a0,a5,5334 <_kill_r+0x2a>
    5326:	1fffe797          	auipc	a5,0x1fffe
    532a:	d4e78793          	addi	a5,a5,-690 # 20003074 <errno>
    532e:	439c                	lw	a5,0(a5)
    5330:	c391                	beqz	a5,5334 <_kill_r+0x2a>
    5332:	c01c                	sw	a5,0(s0)
    5334:	40b2                	lw	ra,12(sp)
    5336:	4422                	lw	s0,8(sp)
    5338:	0141                	addi	sp,sp,16
    533a:	8082                	ret

0000533c <_getpid_r>:
_getpid_r():
    533c:	ac01                	j	554c <_getpid>

0000533e <__sread>:
__sread():
    533e:	1141                	addi	sp,sp,-16
    5340:	c422                	sw	s0,8(sp)
    5342:	842e                	mv	s0,a1
    5344:	00e59583          	lh	a1,14(a1)
    5348:	c606                	sw	ra,12(sp)
    534a:	227d                	jal	54f8 <_read_r>
    534c:	00054963          	bltz	a0,535e <__sread+0x20>
    5350:	487c                	lw	a5,84(s0)
    5352:	97aa                	add	a5,a5,a0
    5354:	c87c                	sw	a5,84(s0)
    5356:	40b2                	lw	ra,12(sp)
    5358:	4422                	lw	s0,8(sp)
    535a:	0141                	addi	sp,sp,16
    535c:	8082                	ret
    535e:	00c45783          	lhu	a5,12(s0)
    5362:	777d                	lui	a4,0xfffff
    5364:	177d                	addi	a4,a4,-1
    5366:	8ff9                	and	a5,a5,a4
    5368:	00f41623          	sh	a5,12(s0)
    536c:	b7ed                	j	5356 <__sread+0x18>

0000536e <__swrite>:
__swrite():
    536e:	00c5d783          	lhu	a5,12(a1)
    5372:	1101                	addi	sp,sp,-32
    5374:	cc22                	sw	s0,24(sp)
    5376:	ca26                	sw	s1,20(sp)
    5378:	c84a                	sw	s2,16(sp)
    537a:	c64e                	sw	s3,12(sp)
    537c:	ce06                	sw	ra,28(sp)
    537e:	1007f793          	andi	a5,a5,256
    5382:	84aa                	mv	s1,a0
    5384:	842e                	mv	s0,a1
    5386:	8932                	mv	s2,a2
    5388:	89b6                	mv	s3,a3
    538a:	c791                	beqz	a5,5396 <__swrite+0x28>
    538c:	00e59583          	lh	a1,14(a1)
    5390:	4689                	li	a3,2
    5392:	4601                	li	a2,0
    5394:	2235                	jal	54c0 <_lseek_r>
    5396:	00c45783          	lhu	a5,12(s0)
    539a:	777d                	lui	a4,0xfffff
    539c:	177d                	addi	a4,a4,-1
    539e:	8ff9                	and	a5,a5,a4
    53a0:	00f41623          	sh	a5,12(s0)
    53a4:	00e41583          	lh	a1,14(s0)
    53a8:	4462                	lw	s0,24(sp)
    53aa:	40f2                	lw	ra,28(sp)
    53ac:	86ce                	mv	a3,s3
    53ae:	864a                	mv	a2,s2
    53b0:	49b2                	lw	s3,12(sp)
    53b2:	4942                	lw	s2,16(sp)
    53b4:	8526                	mv	a0,s1
    53b6:	44d2                	lw	s1,20(sp)
    53b8:	6105                	addi	sp,sp,32
    53ba:	a83d                	j	53f8 <_write_r>

000053bc <__sseek>:
__sseek():
    53bc:	1141                	addi	sp,sp,-16
    53be:	c422                	sw	s0,8(sp)
    53c0:	842e                	mv	s0,a1
    53c2:	00e59583          	lh	a1,14(a1)
    53c6:	c606                	sw	ra,12(sp)
    53c8:	28e5                	jal	54c0 <_lseek_r>
    53ca:	57fd                	li	a5,-1
    53cc:	00c45703          	lhu	a4,12(s0)
    53d0:	00f51b63          	bne	a0,a5,53e6 <__sseek+0x2a>
    53d4:	77fd                	lui	a5,0xfffff
    53d6:	17fd                	addi	a5,a5,-1
    53d8:	8ff9                	and	a5,a5,a4
    53da:	00f41623          	sh	a5,12(s0)
    53de:	40b2                	lw	ra,12(sp)
    53e0:	4422                	lw	s0,8(sp)
    53e2:	0141                	addi	sp,sp,16
    53e4:	8082                	ret
    53e6:	6785                	lui	a5,0x1
    53e8:	8fd9                	or	a5,a5,a4
    53ea:	00f41623          	sh	a5,12(s0)
    53ee:	c868                	sw	a0,84(s0)
    53f0:	b7fd                	j	53de <__sseek+0x22>

000053f2 <__sclose>:
__sclose():
    53f2:	00e59583          	lh	a1,14(a1)
    53f6:	a825                	j	542e <_close_r>

000053f8 <_write_r>:
_write_r():
    53f8:	1141                	addi	sp,sp,-16
    53fa:	c422                	sw	s0,8(sp)
    53fc:	842a                	mv	s0,a0
    53fe:	852e                	mv	a0,a1
    5400:	85b2                	mv	a1,a2
    5402:	8636                	mv	a2,a3
    5404:	1fffe797          	auipc	a5,0x1fffe
    5408:	c607a823          	sw	zero,-912(a5) # 20003074 <errno>
    540c:	c606                	sw	ra,12(sp)
    540e:	e7dfc0ef          	jal	ra,228a <_write>
    5412:	57fd                	li	a5,-1
    5414:	00f51963          	bne	a0,a5,5426 <_write_r+0x2e>
    5418:	1fffe797          	auipc	a5,0x1fffe
    541c:	c5c78793          	addi	a5,a5,-932 # 20003074 <errno>
    5420:	439c                	lw	a5,0(a5)
    5422:	c391                	beqz	a5,5426 <_write_r+0x2e>
    5424:	c01c                	sw	a5,0(s0)
    5426:	40b2                	lw	ra,12(sp)
    5428:	4422                	lw	s0,8(sp)
    542a:	0141                	addi	sp,sp,16
    542c:	8082                	ret

0000542e <_close_r>:
_close_r():
    542e:	1141                	addi	sp,sp,-16
    5430:	c422                	sw	s0,8(sp)
    5432:	842a                	mv	s0,a0
    5434:	852e                	mv	a0,a1
    5436:	1fffe797          	auipc	a5,0x1fffe
    543a:	c207af23          	sw	zero,-962(a5) # 20003074 <errno>
    543e:	c606                	sw	ra,12(sp)
    5440:	20f5                	jal	552c <_close>
    5442:	57fd                	li	a5,-1
    5444:	00f51963          	bne	a0,a5,5456 <_close_r+0x28>
    5448:	1fffe797          	auipc	a5,0x1fffe
    544c:	c2c78793          	addi	a5,a5,-980 # 20003074 <errno>
    5450:	439c                	lw	a5,0(a5)
    5452:	c391                	beqz	a5,5456 <_close_r+0x28>
    5454:	c01c                	sw	a5,0(s0)
    5456:	40b2                	lw	ra,12(sp)
    5458:	4422                	lw	s0,8(sp)
    545a:	0141                	addi	sp,sp,16
    545c:	8082                	ret

0000545e <_fstat_r>:
_fstat_r():
    545e:	1141                	addi	sp,sp,-16
    5460:	c422                	sw	s0,8(sp)
    5462:	842a                	mv	s0,a0
    5464:	852e                	mv	a0,a1
    5466:	85b2                	mv	a1,a2
    5468:	1fffe797          	auipc	a5,0x1fffe
    546c:	c007a623          	sw	zero,-1012(a5) # 20003074 <errno>
    5470:	c606                	sw	ra,12(sp)
    5472:	20e9                	jal	553c <_fstat>
    5474:	57fd                	li	a5,-1
    5476:	00f51963          	bne	a0,a5,5488 <_fstat_r+0x2a>
    547a:	1fffe797          	auipc	a5,0x1fffe
    547e:	bfa78793          	addi	a5,a5,-1030 # 20003074 <errno>
    5482:	439c                	lw	a5,0(a5)
    5484:	c391                	beqz	a5,5488 <_fstat_r+0x2a>
    5486:	c01c                	sw	a5,0(s0)
    5488:	40b2                	lw	ra,12(sp)
    548a:	4422                	lw	s0,8(sp)
    548c:	0141                	addi	sp,sp,16
    548e:	8082                	ret

00005490 <_isatty_r>:
_isatty_r():
    5490:	1141                	addi	sp,sp,-16
    5492:	c422                	sw	s0,8(sp)
    5494:	842a                	mv	s0,a0
    5496:	852e                	mv	a0,a1
    5498:	1fffe797          	auipc	a5,0x1fffe
    549c:	bc07ae23          	sw	zero,-1060(a5) # 20003074 <errno>
    54a0:	c606                	sw	ra,12(sp)
    54a2:	286d                	jal	555c <_isatty>
    54a4:	57fd                	li	a5,-1
    54a6:	00f51963          	bne	a0,a5,54b8 <_isatty_r+0x28>
    54aa:	1fffe797          	auipc	a5,0x1fffe
    54ae:	bca78793          	addi	a5,a5,-1078 # 20003074 <errno>
    54b2:	439c                	lw	a5,0(a5)
    54b4:	c391                	beqz	a5,54b8 <_isatty_r+0x28>
    54b6:	c01c                	sw	a5,0(s0)
    54b8:	40b2                	lw	ra,12(sp)
    54ba:	4422                	lw	s0,8(sp)
    54bc:	0141                	addi	sp,sp,16
    54be:	8082                	ret

000054c0 <_lseek_r>:
_lseek_r():
    54c0:	1141                	addi	sp,sp,-16
    54c2:	c422                	sw	s0,8(sp)
    54c4:	842a                	mv	s0,a0
    54c6:	852e                	mv	a0,a1
    54c8:	85b2                	mv	a1,a2
    54ca:	8636                	mv	a2,a3
    54cc:	1fffe797          	auipc	a5,0x1fffe
    54d0:	ba07a423          	sw	zero,-1112(a5) # 20003074 <errno>
    54d4:	c606                	sw	ra,12(sp)
    54d6:	205d                	jal	557c <_lseek>
    54d8:	57fd                	li	a5,-1
    54da:	00f51963          	bne	a0,a5,54ec <_lseek_r+0x2c>
    54de:	1fffe797          	auipc	a5,0x1fffe
    54e2:	b9678793          	addi	a5,a5,-1130 # 20003074 <errno>
    54e6:	439c                	lw	a5,0(a5)
    54e8:	c391                	beqz	a5,54ec <_lseek_r+0x2c>
    54ea:	c01c                	sw	a5,0(s0)
    54ec:	40b2                	lw	ra,12(sp)
    54ee:	4422                	lw	s0,8(sp)
    54f0:	0141                	addi	sp,sp,16
    54f2:	8082                	ret

000054f4 <__malloc_lock>:
__malloc_lock():
    54f4:	8082                	ret

000054f6 <__malloc_unlock>:
__malloc_unlock():
    54f6:	8082                	ret

000054f8 <_read_r>:
_read_r():
    54f8:	1141                	addi	sp,sp,-16
    54fa:	c422                	sw	s0,8(sp)
    54fc:	842a                	mv	s0,a0
    54fe:	852e                	mv	a0,a1
    5500:	85b2                	mv	a1,a2
    5502:	8636                	mv	a2,a3
    5504:	1fffe797          	auipc	a5,0x1fffe
    5508:	b607a823          	sw	zero,-1168(a5) # 20003074 <errno>
    550c:	c606                	sw	ra,12(sp)
    550e:	28bd                	jal	558c <_read>
    5510:	57fd                	li	a5,-1
    5512:	00f51963          	bne	a0,a5,5524 <_read_r+0x2c>
    5516:	1fffe797          	auipc	a5,0x1fffe
    551a:	b5e78793          	addi	a5,a5,-1186 # 20003074 <errno>
    551e:	439c                	lw	a5,0(a5)
    5520:	c391                	beqz	a5,5524 <_read_r+0x2c>
    5522:	c01c                	sw	a5,0(s0)
    5524:	40b2                	lw	ra,12(sp)
    5526:	4422                	lw	s0,8(sp)
    5528:	0141                	addi	sp,sp,16
    552a:	8082                	ret

0000552c <_close>:
_close():
    552c:	05800793          	li	a5,88
    5530:	1fffe717          	auipc	a4,0x1fffe
    5534:	b4f72223          	sw	a5,-1212(a4) # 20003074 <errno>
    5538:	557d                	li	a0,-1
    553a:	8082                	ret

0000553c <_fstat>:
_fstat():
    553c:	05800793          	li	a5,88
    5540:	1fffe717          	auipc	a4,0x1fffe
    5544:	b2f72a23          	sw	a5,-1228(a4) # 20003074 <errno>
    5548:	557d                	li	a0,-1
    554a:	8082                	ret

0000554c <_getpid>:
_getpid():
    554c:	05800793          	li	a5,88
    5550:	1fffe717          	auipc	a4,0x1fffe
    5554:	b2f72223          	sw	a5,-1244(a4) # 20003074 <errno>
    5558:	557d                	li	a0,-1
    555a:	8082                	ret

0000555c <_isatty>:
_isatty():
    555c:	05800793          	li	a5,88
    5560:	1fffe717          	auipc	a4,0x1fffe
    5564:	b0f72a23          	sw	a5,-1260(a4) # 20003074 <errno>
    5568:	4501                	li	a0,0
    556a:	8082                	ret

0000556c <_kill>:
_kill():
    556c:	05800793          	li	a5,88
    5570:	1fffe717          	auipc	a4,0x1fffe
    5574:	b0f72223          	sw	a5,-1276(a4) # 20003074 <errno>
    5578:	557d                	li	a0,-1
    557a:	8082                	ret

0000557c <_lseek>:
_lseek():
    557c:	05800793          	li	a5,88
    5580:	1fffe717          	auipc	a4,0x1fffe
    5584:	aef72a23          	sw	a5,-1292(a4) # 20003074 <errno>
    5588:	557d                	li	a0,-1
    558a:	8082                	ret

0000558c <_read>:
_read():
    558c:	05800793          	li	a5,88
    5590:	1fffe717          	auipc	a4,0x1fffe
    5594:	aef72223          	sw	a5,-1308(a4) # 20003074 <errno>
    5598:	557d                	li	a0,-1
    559a:	8082                	ret

0000559c <_sbrk>:
_sbrk():
    559c:	83418793          	addi	a5,gp,-1996 # 200000a4 <heap_end.1518>
    55a0:	439c                	lw	a5,0(a5)
    55a2:	c791                	beqz	a5,55ae <_sbrk+0x12>
    55a4:	953e                	add	a0,a0,a5
    55a6:	82a1aa23          	sw	a0,-1996(gp) # 200000a4 <heap_end.1518>
    55aa:	853e                	mv	a0,a5
    55ac:	8082                	ret
    55ae:	1fffe797          	auipc	a5,0x1fffe
    55b2:	aca78793          	addi	a5,a5,-1334 # 20003078 <_ebss>
    55b6:	953e                	add	a0,a0,a5
    55b8:	82a1aa23          	sw	a0,-1996(gp) # 200000a4 <heap_end.1518>
    55bc:	853e                	mv	a0,a5
    55be:	8082                	ret

000055c0 <_exit>:
_exit():
    55c0:	a001                	j	55c0 <_exit>
    55c2:	0000                	unimp
    55c4:	0000                	unimp
    55c6:	4120                	lw	s0,64(a0)
    55c8:	6666                	flw	fa2,88(sp)
    55ca:	6666                	flw	fa2,88(sp)
    55cc:	6666                	flw	fa2,88(sp)
    55ce:	400a                	0x400a
    55d0:	0000                	unimp
    55d2:	0000                	unimp
    55d4:	0000                	unimp
    55d6:	3f70                	fld	fa2,248(a4)
    55d8:	0000                	unimp
    55da:	0000                	unimp
    55dc:	0000                	unimp
    55de:	4024                	lw	s1,64(s0)
    55e0:	0000                	unimp
    55e2:	0000                	unimp
    55e4:	0000                	unimp
    55e6:	4034                	lw	a3,64(s0)
    55e8:	6554                	flw	fa3,12(a0)
    55ea:	706d                	c.lui	zero,0xffffb
    55ec:	003d                	c.nop	15
    55ee:	0000                	unimp
    55f0:	7568                	flw	fa0,108(a0)
    55f2:	696d                	lui	s2,0x1b
    55f4:	003d                	c.nop	15
    55f6:	0000                	unimp
    55f8:	756c                	flw	fa1,108(a0)
    55fa:	3d78                	fld	fa4,248(a0)
    55fc:	0000                	unimp
    55fe:	0000                	unimp
    5600:	0990                	addi	a2,sp,208
    5602:	0000                	unimp
    5604:	099a                	slli	s3,s3,0x6
    5606:	0000                	unimp
    5608:	0a10                	addi	a2,sp,272
    560a:	0000                	unimp
    560c:	09a2                	slli	s3,s3,0x8
    560e:	0000                	unimp
    5610:	09b6                	slli	s3,s3,0xd
    5612:	0000                	unimp
    5614:	09be                	slli	s3,s3,0xf
    5616:	0000                	unimp
    5618:	09c6                	slli	s3,s3,0x11
    561a:	0000                	unimp
    561c:	09ce                	slli	s3,s3,0x13
    561e:	0000                	unimp
    5620:	0a10                	addi	a2,sp,272
    5622:	0000                	unimp
    5624:	0a10                	addi	a2,sp,272
    5626:	0000                	unimp
    5628:	09d6                	slli	s3,s3,0x15
    562a:	0000                	unimp
    562c:	09de                	slli	s3,s3,0x17
    562e:	0000                	unimp
    5630:	09e6                	slli	s3,s3,0x19
    5632:	0000                	unimp
    5634:	09ee                	slli	s3,s3,0x1b
    5636:	0000                	unimp
    5638:	09f6                	slli	s3,s3,0x1d
    563a:	0000                	unimp
    563c:	09fe                	slli	s3,s3,0x1f
    563e:	0000                	unimp
    5640:	0a08                	addi	a0,sp,272
	...

00005644 <download_cmd>:
    5644:	0201 0202 0403 0204 0105 0206 0207 0108     ................
    5654:	0409 020a 020b 020c 020d 040e 040f 0210     ................
    5664:	0211 0212 0213 0214 0115 0216 0b44 0000     ............D...
    5674:	0b88 0000 0c64 0000 0c6c 0000 0c86 0000     ....d...l.......
    5684:	0caa 0000 0cb2 0000 0c8c 0000 0d5a 0000     ............Z...
    5694:	0c8c 0000 0c8c 0000 0c8c 0000 0c8c 0000     ................
    56a4:	0c8c 0000 0d78 0000 227b 2270 223a 0000     ....x...{"p":"..
    56b4:	6966 3675 356a 3266 6476 6e6b 7179 7875     fiu6j5f2vdknyqux
    56c4:	0000 0000 2c22 7622 3a22 0022 2e31 2e30     ....","v":".1.0.
    56d4:	0030 0000 2c22 6d22 3a22 0000 0032 0000     0...","m":..2...
    56e4:	007d 0000                                   }...

000056e8 <oled_6x8>:
	...
    56f0:	2f00 0000 0000 0007 0007 1400 147f 147f     ./..............
    5700:	2400 7f2a 122a 6200 0864 2313 3600 5549     .$*.*..bd..#.6IU
    5710:	5022 0000 0305 0000 0000 221c 0041 0000     "P........."A...
    5720:	2241 001c 1400 3e08 1408 0800 3e08 0808     A".....>.....>..
    5730:	0000 a000 0060 0800 0808 0808 0000 6060     ....`.........``
    5740:	0000 2000 0810 0204 3e00 4951 3e45 0000     ... .....>QIE>..
    5750:	7f42 0040 4200 5161 4649 2100 4541 314b     B.@..BaQIF.!AEK1
    5760:	1800 1214 107f 2700 4545 3945 3c00 494a     .......'EEE9.<JI
    5770:	3049 0100 0971 0305 3600 4949 3649 0600     I0..q....6III6..
    5780:	4949 1e29 0000 3636 0000 0000 3656 0000     II)...66....V6..
    5790:	0800 2214 0041 1400 1414 1414 0000 2241     ..."A.........A"
    57a0:	0814 0200 5101 0609 3200 5949 3e51 7c00     .....Q...2IYQ>.|
    57b0:	1112 7c12 7f00 4949 3649 3e00 4141 2241     ...|..III6.>AAA"
    57c0:	7f00 4141 1c22 7f00 4949 4149 7f00 0909     ..AA"...IIIA....
    57d0:	0109 3e00 4941 7a49 7f00 0808 7f08 0000     ...>AIIz........
    57e0:	7f41 0041 2000 4140 013f 7f00 1408 4122     A.A.. @A?....."A
    57f0:	7f00 4040 4040 7f00 0c02 7f02 7f00 0804     ..@@@@..........
    5800:	7f10 3e00 4141 3e41 7f00 0909 0609 3e00     ...>AAA>.......>
    5810:	5141 5e21 7f00 1909 4629 4600 4949 3149     AQ!^....)F.FIII1
    5820:	0100 7f01 0101 3f00 4040 3f40 1f00 4020     .......?@@@?.. @
    5830:	1f20 3f00 3840 3f40 6300 0814 6314 0700      ..?@8@?.c...c..
    5840:	7008 0708 6100 4951 4345 0000 417f 0041     .p...aQIEC...AA.
    5850:	5500 552a 552a 0000 4141 007f 0400 0102     .U*U*U..AA......
    5860:	0402 4000 4040 4040 0000 0201 0004 2000     ...@@@@@....... 
    5870:	5454 7854 7f00 4448 3844 3800 4444 2044     TTTx..HDD8.8DDD 
    5880:	3800 4444 7f48 3800 5454 1854 0800 097e     .8DDH..8TTT...~.
    5890:	0201 1800 a4a4 7ca4 7f00 0408 7804 0000     .......|.....x..
    58a0:	7d44 0040 4000 8480 007d 7f00 2810 0044     D}@..@..}....(D.
    58b0:	0000 7f41 0040 7c00 1804 7804 7c00 0408     ..A.@..|...x.|..
    58c0:	7804 3800 4444 3844 fc00 2424 1824 1800     .x.8DDD8..$$$...
    58d0:	2424 fc18 7c00 0408 0804 4800 5454 2054     $$...|.....HTTT 
    58e0:	0400 443f 2040 3c00 4040 7c20 1c00 4020     ..?D@ .<@@ |.. @
    58f0:	1c20 3c00 3040 3c40 4400 1028 4428 1c00      ..<@0@<.D(.(D..
    5900:	a0a0 7ca0 4400 5464 444c 1414 1414 1414     ...|.DdTLD......

00005910 <__func__.3170>:
    5910:	6c6f 6465 735f 7465 705f 736f 0000 0000     oled_set_pos....
    5920:	6625 0000 5f58 4957 5444 3e48 0078 0000     %f..X_WIDTH>x...
    5930:	2e2e 4c2f 6269 6172 6972 7365 732f 6565     ../Libraries/see
    5940:	666b 6572 5f65 6570 6972 6870 7265 6c61     kfree_peripheral
    5950:	532f 4545 464b 4552 5f45 4c4f 4445 632e     /SEEKFREE_OLED.c
    5960:	0000 0000 5928 575f 4449 4854 382f 3e29     ....(Y_WIDTH/8)>
    5970:	0079 0000 0000 0000 0000 0000 8480 412e     y..............A

00005980 <GPION>:
    5980:	0800 4001 0c00 4001 1000 4001 1400 4001     ...@...@...@...@

00005990 <UARTN>:
    5990:	3800 4001 4400 4000 4800 4000 4c00 4000     .8.@.D.@.H.@.L.@
    59a0:	0000 42c8 0000 432f ff00 477f 0000 4234     ...B../C...G..4B
    59b0:	d110 ffff d002 ffff d002 ffff d000 ffff     ................
    59c0:	d008 ffff d008 ffff cfce ffff d000 ffff     ................
    59d0:	d008 ffff cfce ffff d008 ffff d000 ffff     ................
    59e0:	d0fc ffff d0fc ffff d0fc ffff cfce ffff     ................
    59f0:	dda6 ffff dccc ffff dda0 ffff dcd4 ffff     ................
    5a00:	dda0 ffff dc9a ffff dda0 ffff dcd4 ffff     ................
    5a10:	dccc ffff dccc ffff dc9a ffff dcd4 ffff     ................
    5a20:	dcda ffff dcda ffff dcda ffff dc9a ffff     ................
    5a30:	dc8c ffff dc8c ffff dd60 ffff de3c ffff     ........`...<...
    5a40:	dd60 ffff dc5a ffff dd60 ffff de3c ffff     `...Z...`...<...
    5a50:	dc8c ffff dc8c ffff dc5a ffff de3c ffff     ........Z...<...
    5a60:	dc9a ffff dc9a ffff dc9a ffff dc5a ffff     ............Z...
    5a70:	dfa2 ffff def0 ffff def0 ffff deee ffff     ................
    5a80:	def4 ffff def4 ffff dec4 ffff deee ffff     ................
    5a90:	def4 ffff dec4 ffff def4 ffff deee ffff     ................
    5aa0:	df90 ffff df90 ffff df90 ffff dec4 ffff     ................

00005ab0 <__clz_tab>:
    5ab0:	0100 0202 0303 0303 0404 0404 0404 0404     ................
    5ac0:	0505 0505 0505 0505 0505 0505 0505 0505     ................
    5ad0:	0606 0606 0606 0606 0606 0606 0606 0606     ................
    5ae0:	0606 0606 0606 0606 0606 0606 0606 0606     ................
    5af0:	0707 0707 0707 0707 0707 0707 0707 0707     ................
    5b00:	0707 0707 0707 0707 0707 0707 0707 0707     ................
    5b10:	0707 0707 0707 0707 0707 0707 0707 0707     ................
    5b20:	0707 0707 0707 0707 0707 0707 0707 0707     ................
    5b30:	0808 0808 0808 0808 0808 0808 0808 0808     ................
    5b40:	0808 0808 0808 0808 0808 0808 0808 0808     ................
    5b50:	0808 0808 0808 0808 0808 0808 0808 0808     ................
    5b60:	0808 0808 0808 0808 0808 0808 0808 0808     ................
    5b70:	0808 0808 0808 0808 0808 0808 0808 0808     ................
    5b80:	0808 0808 0808 0808 0808 0808 0808 0808     ................
    5b90:	0808 0808 0808 0808 0808 0808 0808 0808     ................
    5ba0:	0808 0808 0808 0808 0808 0808 0808 0808     ................
    5bb0:	202c 7566 636e 6974 6e6f 203a 0000 0000     , function: ....
    5bc0:	7361 6573 7472 6f69 206e 2522 2273 6620     assertion "%s" f
    5bd0:	6961 656c 3a64 6620 6c69 2065 2522 2273     ailed: file "%s"
    5be0:	202c 696c 656e 2520 2564 2573 0a73 0000     , line %d%s%s...
    5bf0:	2d23 2b30 0020 0000 6c68 004c 6665 4567     #-0+ ...hlL.efgE
    5c00:	4746 0000 3130 3332 3534 3736 3938 4241     FG..0123456789AB
    5c10:	4443 4645 0000 0000 3130 3332 3534 3736     CDEF....01234567
    5c20:	3938 6261 6463 6665 0000 0000               89abcdef....

00005c2c <__sf_fake_stderr>:
	...

00005c4c <__sf_fake_stdin>:
	...

00005c6c <__sf_fake_stdout>:
	...
